ARM GAS  /tmp/ccoKluGf.s 			page 1


   1              		.cpu cortex-m4
   2              		.arch armv7e-m
   3              		.fpu fpv4-sp-d16
   4              		.eabi_attribute 27, 1
   5              		.eabi_attribute 28, 1
   6              		.eabi_attribute 20, 1
   7              		.eabi_attribute 21, 1
   8              		.eabi_attribute 23, 3
   9              		.eabi_attribute 24, 1
  10              		.eabi_attribute 25, 1
  11              		.eabi_attribute 26, 1
  12              		.eabi_attribute 30, 1
  13              		.eabi_attribute 34, 1
  14              		.eabi_attribute 18, 4
  15              		.file	"bno055.c"
  16              		.text
  17              	.Ltext0:
  18              		.cfi_sections	.debug_frame
  19              		.file 1 "Core/Src/bno055.c"
  20              		.section	.text.bno_bus_recover,"ax",%progbits
  21              		.align	1
  22              		.syntax unified
  23              		.thumb
  24              		.thumb_func
  26              	bno_bus_recover:
  27              	.LFB134:
   1:Core/Src/bno055.c **** /* USER CODE BEGIN Header */
   2:Core/Src/bno055.c **** /**
   3:Core/Src/bno055.c ****   ******************************************************************************
   4:Core/Src/bno055.c ****   * @file    bno055.c
   5:Core/Src/bno055.c ****   * @brief   GY-BNO055 IMU ыУЬыЭ╝ьЭ┤ы▓Д ъ╡мэШД (I2C1, NDOF). ы╕ФыбЬэВ╣ + ьззьЭА timeout.
   6:Core/Src/bno055.c ****   ******************************************************************************
   7:Core/Src/bno055.c ****   */
   8:Core/Src/bno055.c **** /* USER CODE END Header */
   9:Core/Src/bno055.c **** 
  10:Core/Src/bno055.c **** #include "bno055.h"
  11:Core/Src/bno055.c **** #include "i2c.h"   /* CubeMX ьГЭьД▒: hi2c1, MX_I2C1_Init */
  12:Core/Src/bno055.c **** #include "delay.h" /* delay_us тАФ ы▓ДьКд ы│╡ъ╡м ьЛЬэААьКд эГАьЭ┤ы░Н (TIM11 ьЛЬьЮС эЫДьЧРызМ эШ╕ь╢Ь
  13:Core/Src/bno055.c **** 
  14:Core/Src/bno055.c **** /* ---- ыаИьзАьКдэД░ (Page 0) ---- */
  15:Core/Src/bno055.c **** #define REG_CHIP_ID      0x00U   /* = 0xA0 */
  16:Core/Src/bno055.c **** #define REG_PAGE_ID      0x07U
  17:Core/Src/bno055.c **** #define REG_EUL_H_LSB    0x1AU   /* Heading LSBы╢АэД░ 6ы░ФьЭ┤эК╕: H,R,P (LSB/MSB) */
  18:Core/Src/bno055.c **** #define REG_CALIB_STAT   0x35U
  19:Core/Src/bno055.c **** #define REG_UNIT_SEL     0x3BU
  20:Core/Src/bno055.c **** #define REG_OPR_MODE     0x3DU
  21:Core/Src/bno055.c **** #define REG_PWR_MODE     0x3EU
  22:Core/Src/bno055.c **** #define REG_SYS_TRIGGER  0x3FU
  23:Core/Src/bno055.c **** 
  24:Core/Src/bno055.c **** /* ---- ъ░Т ---- */
  25:Core/Src/bno055.c **** #define CHIP_ID_VAL      0xA0U
  26:Core/Src/bno055.c **** #define OPR_MODE_CONFIG  0x00U
  27:Core/Src/bno055.c **** #define OPR_MODE_NDOF    0x0CU   /* 9ь╢Х ьаИыМАы░йьЬД ьЬ╡эХй (ьзАьЮРъ╕░ эПмэХи тАФ ыкиэД░/L298N ьЮР
  28:Core/Src/bno055.c **** #define OPR_MODE_IMU     0x08U   /* gyro+accel ьЬ╡эХй (ьзАьЮРъ╕░ ьаЬьЩ╕). ьг╝эЦЙ ьаЬьЦ┤ьЪй ьГБыМА h
  29:Core/Src/bno055.c ****                                     ы╕МыЯмьЛЬыУЬ ыкиэД░+L298N ьШЖ ьзАьЮРъ╕░ыКФ 10~40┬░ ьаРэФД ьЬаы░
  30:Core/Src/bno055.c ****                                     ыУЬыжмэФДэК╕ ~1-3┬░/min ьЭ┤ьзАызМ ьаЬьЦ┤ыКФ ьИШ ь┤И ьЬИыПДьЭШ ь
  31:Core/Src/bno055.c ****                                     ы╢АэМЕ ьЛЬ headingтЙИ0 ъ╕░ьдА(ьаИыМА ы░йьЬД ьХДыЛШ). mag calib 
ARM GAS  /tmp/ccoKluGf.s 			page 2


  32:Core/Src/bno055.c **** #define BNO_PWR_NORMAL   0x00U   /* (ъ╡м PWR_MODE_NORMAL тАФ HAL legacy ыздэБмыбЬьЩА ь╢йыПМэХ┤ ъ░Ьы
  33:Core/Src/bno055.c **** 
  34:Core/Src/bno055.c **** #define BNO_I2C_TIMEOUT  10U     /* ms. ы▓ДьКд stall ьЛЬ ыкиэД░ ьЮеьЛЬъ░Д ьаХьзА ы░йьзА */
  35:Core/Src/bno055.c **** #define BNO_FAIL_RECOVER 10U     /* ьЭ╜ъ╕░ ьЧ░ьЖН ьЛдэМи NэЪМ тЖТ I2C ы▓ДьКд ы│╡ъ╡м ьЛЬыПД */
  36:Core/Src/bno055.c **** 
  37:Core/Src/bno055.c **** /* 1┬░ = 16 LSB (UNIT_SEL ъ╕░ы│╕ degree) */
  38:Core/Src/bno055.c **** #define EUL_LSB_PER_DEG  16.0f
  39:Core/Src/bno055.c **** 
  40:Core/Src/bno055.c **** static uint8_t bno_fail_cnt = 0;
  41:Core/Src/bno055.c **** 
  42:Core/Src/bno055.c **** /* I2C ы▓ДьКд wedge ы│╡ъ╡м: ыЕ╕ьЭ┤ьжИ/F4 ьХДыВаыбЬъ╖╕эХДэД░ errataыбЬ slaveъ░А SDAые╝ ым╝ый┤ ьЮмы╢А
  43:Core/Src/bno055.c ****  * ьаД эК╕ыЮЬьЮньЕШ ьЛдэМи(HAL_BUSY ъ│аь░й) тЖТ IMU ьШБъ╡м ьГБьЛд. эСЬьдА ы│╡ъ╡м: SCL ьИШыПЩ 9эБ┤ыЯ
  44:Core/Src/bno055.c ****  * ьЛЬэФДэК╕ыаИьзАьКдэД░ые╝ ы╣ДьЫМ SDAые╝ ыЖУъ▓М эХШъ│а STOP ьГЭьД▒ эЫД эОШыжмэФД ьЮмь┤Иъ╕░эЩФ.
  45:Core/Src/bno055.c ****  * PB8=SCL/PB9=SDA эХШыУЬь╜ФыФйьЭА i2c.c MspInitъ│╝ ыПЩьЭ╝ ьаДьаЬ. ьЖМьЪФ <1ms тАФ IWDG/ьаЬьЦ┤ьг╝ъ╕
  46:Core/Src/bno055.c **** static void bno_bus_recover(void)
  47:Core/Src/bno055.c **** {
  28              		.loc 1 47 1 view -0
  29              		.cfi_startproc
  30              		@ args = 0, pretend = 0, frame = 24
  31              		@ frame_needed = 0, uses_anonymous_args = 0
  32 0000 30B5     		push	{r4, r5, lr}
  33              	.LCFI0:
  34              		.cfi_def_cfa_offset 12
  35              		.cfi_offset 4, -12
  36              		.cfi_offset 5, -8
  37              		.cfi_offset 14, -4
  38 0002 87B0     		sub	sp, sp, #28
  39              	.LCFI1:
  40              		.cfi_def_cfa_offset 40
  48:Core/Src/bno055.c ****     GPIO_InitTypeDef g = {0};
  41              		.loc 1 48 5 view .LVU1
  42              		.loc 1 48 22 is_stmt 0 view .LVU2
  43 0004 0024     		movs	r4, #0
  44 0006 0194     		str	r4, [sp, #4]
  45 0008 0294     		str	r4, [sp, #8]
  46 000a 0394     		str	r4, [sp, #12]
  47 000c 0494     		str	r4, [sp, #16]
  48 000e 0594     		str	r4, [sp, #20]
  49:Core/Src/bno055.c **** 
  50:Core/Src/bno055.c ****     HAL_I2C_DeInit(&hi2c1);
  49              		.loc 1 50 5 is_stmt 1 view .LVU3
  50 0010 2148     		ldr	r0, .L5
  51 0012 FFF7FEFF 		bl	HAL_I2C_DeInit
  52              	.LVL0:
  51:Core/Src/bno055.c **** 
  52:Core/Src/bno055.c ****     g.Pin   = GPIO_PIN_8 | GPIO_PIN_9;
  53              		.loc 1 52 5 view .LVU4
  54              		.loc 1 52 13 is_stmt 0 view .LVU5
  55 0016 4FF44073 		mov	r3, #768
  56 001a 0193     		str	r3, [sp, #4]
  53:Core/Src/bno055.c ****     g.Mode  = GPIO_MODE_OUTPUT_OD;
  57              		.loc 1 53 5 is_stmt 1 view .LVU6
  58              		.loc 1 53 13 is_stmt 0 view .LVU7
  59 001c 1123     		movs	r3, #17
  60 001e 0293     		str	r3, [sp, #8]
  54:Core/Src/bno055.c ****     g.Pull  = GPIO_NOPULL;
  61              		.loc 1 54 5 is_stmt 1 view .LVU8
ARM GAS  /tmp/ccoKluGf.s 			page 3


  62              		.loc 1 54 13 is_stmt 0 view .LVU9
  63 0020 0394     		str	r4, [sp, #12]
  55:Core/Src/bno055.c ****     g.Speed = GPIO_SPEED_FREQ_LOW;
  64              		.loc 1 55 5 is_stmt 1 view .LVU10
  65              		.loc 1 55 13 is_stmt 0 view .LVU11
  66 0022 0494     		str	r4, [sp, #16]
  56:Core/Src/bno055.c ****     HAL_GPIO_Init(GPIOB, &g);
  67              		.loc 1 56 5 is_stmt 1 view .LVU12
  68 0024 1D4D     		ldr	r5, .L5+4
  69 0026 01A9     		add	r1, sp, #4
  70 0028 2846     		mov	r0, r5
  71 002a FFF7FEFF 		bl	HAL_GPIO_Init
  72              	.LVL1:
  57:Core/Src/bno055.c **** 
  58:Core/Src/bno055.c ****     HAL_GPIO_WritePin(GPIOB, GPIO_PIN_9, GPIO_PIN_SET);      /* SDA эХ┤ьаЬ ьЛЬыПД */
  73              		.loc 1 58 5 view .LVU13
  74 002e 0122     		movs	r2, #1
  75 0030 4FF40071 		mov	r1, #512
  76 0034 2846     		mov	r0, r5
  77 0036 FFF7FEFF 		bl	HAL_GPIO_WritePin
  78              	.LVL2:
  59:Core/Src/bno055.c ****     for (int i = 0; i < 9; i++)                              /* SCL 9эОДьКд (~100kHz) */
  79              		.loc 1 59 5 view .LVU14
  80              	.LBB2:
  81              		.loc 1 59 10 view .LVU15
  82              		.loc 1 59 5 is_stmt 0 view .LVU16
  83 003a 13E0     		b	.L2
  84              	.LVL3:
  85              	.L3:
  60:Core/Src/bno055.c ****     {
  61:Core/Src/bno055.c ****         HAL_GPIO_WritePin(GPIOB, GPIO_PIN_8, GPIO_PIN_RESET);
  86              		.loc 1 61 9 is_stmt 1 view .LVU17
  87 003c 174D     		ldr	r5, .L5+4
  88 003e 0022     		movs	r2, #0
  89 0040 4FF48071 		mov	r1, #256
  90 0044 2846     		mov	r0, r5
  91 0046 FFF7FEFF 		bl	HAL_GPIO_WritePin
  92              	.LVL4:
  62:Core/Src/bno055.c ****         delay_us(5);
  93              		.loc 1 62 9 view .LVU18
  94 004a 0520     		movs	r0, #5
  95 004c FFF7FEFF 		bl	delay_us
  96              	.LVL5:
  63:Core/Src/bno055.c ****         HAL_GPIO_WritePin(GPIOB, GPIO_PIN_8, GPIO_PIN_SET);
  97              		.loc 1 63 9 view .LVU19
  98 0050 0122     		movs	r2, #1
  99 0052 4FF48071 		mov	r1, #256
 100 0056 2846     		mov	r0, r5
 101 0058 FFF7FEFF 		bl	HAL_GPIO_WritePin
 102              	.LVL6:
  64:Core/Src/bno055.c ****         delay_us(5);
 103              		.loc 1 64 9 view .LVU20
 104 005c 0520     		movs	r0, #5
 105 005e FFF7FEFF 		bl	delay_us
 106              	.LVL7:
  59:Core/Src/bno055.c ****     {
 107              		.loc 1 59 29 discriminator 3 view .LVU21
ARM GAS  /tmp/ccoKluGf.s 			page 4


 108 0062 0134     		adds	r4, r4, #1
 109              	.LVL8:
 110              	.L2:
  59:Core/Src/bno055.c ****     {
 111              		.loc 1 59 23 discriminator 1 view .LVU22
 112 0064 082C     		cmp	r4, #8
 113 0066 E9DD     		ble	.L3
 114              	.LBE2:
  65:Core/Src/bno055.c ****     }
  66:Core/Src/bno055.c ****     HAL_GPIO_WritePin(GPIOB, GPIO_PIN_9, GPIO_PIN_RESET);    /* STOP ьб░ъ▒┤: SCL high ьГБэГЬьЧРьДЬ 
 115              		.loc 1 66 5 view .LVU23
 116 0068 0C4C     		ldr	r4, .L5+4
 117              	.LVL9:
 118              		.loc 1 66 5 is_stmt 0 view .LVU24
 119 006a 0022     		movs	r2, #0
 120 006c 4FF40071 		mov	r1, #512
 121 0070 2046     		mov	r0, r4
 122 0072 FFF7FEFF 		bl	HAL_GPIO_WritePin
 123              	.LVL10:
  67:Core/Src/bno055.c ****     delay_us(5);
 124              		.loc 1 67 5 is_stmt 1 view .LVU25
 125 0076 0520     		movs	r0, #5
 126 0078 FFF7FEFF 		bl	delay_us
 127              	.LVL11:
  68:Core/Src/bno055.c ****     HAL_GPIO_WritePin(GPIOB, GPIO_PIN_9, GPIO_PIN_SET);      /* SDA lowтЖТhigh */
 128              		.loc 1 68 5 view .LVU26
 129 007c 0122     		movs	r2, #1
 130 007e 4FF40071 		mov	r1, #512
 131 0082 2046     		mov	r0, r4
 132 0084 FFF7FEFF 		bl	HAL_GPIO_WritePin
 133              	.LVL12:
  69:Core/Src/bno055.c ****     delay_us(5);
 134              		.loc 1 69 5 view .LVU27
 135 0088 0520     		movs	r0, #5
 136 008a FFF7FEFF 		bl	delay_us
 137              	.LVL13:
  70:Core/Src/bno055.c **** 
  71:Core/Src/bno055.c ****     MX_I2C1_Init();                                          /* MspInitьЭ┤ AF_OD ы│╡ьЫР */
 138              		.loc 1 71 5 view .LVU28
 139 008e FFF7FEFF 		bl	MX_I2C1_Init
 140              	.LVL14:
  72:Core/Src/bno055.c **** }
 141              		.loc 1 72 1 is_stmt 0 view .LVU29
 142 0092 07B0     		add	sp, sp, #28
 143              	.LCFI2:
 144              		.cfi_def_cfa_offset 12
 145              		@ sp needed
 146 0094 30BD     		pop	{r4, r5, pc}
 147              	.L6:
 148 0096 00BF     		.align	2
 149              	.L5:
 150 0098 00000000 		.word	hi2c1
 151 009c 00040240 		.word	1073873920
 152              		.cfi_endproc
 153              	.LFE134:
 155              		.section	.text.bno_rd,"ax",%progbits
 156              		.align	1
ARM GAS  /tmp/ccoKluGf.s 			page 5


 157              		.syntax unified
 158              		.thumb
 159              		.thumb_func
 161              	bno_rd:
 162              	.LVL15:
 163              	.LFB135:
  73:Core/Src/bno055.c **** 
  74:Core/Src/bno055.c **** static HAL_StatusTypeDef bno_rd(uint8_t reg, uint8_t *buf, uint16_t n)
  75:Core/Src/bno055.c **** {
 164              		.loc 1 75 1 is_stmt 1 view -0
 165              		.cfi_startproc
 166              		@ args = 0, pretend = 0, frame = 0
 167              		@ frame_needed = 0, uses_anonymous_args = 0
 168              		.loc 1 75 1 is_stmt 0 view .LVU31
 169 0000 10B5     		push	{r4, lr}
 170              	.LCFI3:
 171              		.cfi_def_cfa_offset 8
 172              		.cfi_offset 4, -8
 173              		.cfi_offset 14, -4
 174 0002 84B0     		sub	sp, sp, #16
 175              	.LCFI4:
 176              		.cfi_def_cfa_offset 24
  76:Core/Src/bno055.c ****     HAL_StatusTypeDef st = HAL_I2C_Mem_Read(&hi2c1, BNO055_I2C_ADDR_8BIT, reg,
 177              		.loc 1 76 5 is_stmt 1 view .LVU32
 178              		.loc 1 76 28 is_stmt 0 view .LVU33
 179 0004 0A23     		movs	r3, #10
 180 0006 0293     		str	r3, [sp, #8]
 181 0008 0192     		str	r2, [sp, #4]
 182 000a 0091     		str	r1, [sp]
 183 000c 0123     		movs	r3, #1
 184 000e 0246     		mov	r2, r0
 185              	.LVL16:
 186              		.loc 1 76 28 view .LVU34
 187 0010 5021     		movs	r1, #80
 188              	.LVL17:
 189              		.loc 1 76 28 view .LVU35
 190 0012 0C48     		ldr	r0, .L11
 191              	.LVL18:
 192              		.loc 1 76 28 view .LVU36
 193 0014 FFF7FEFF 		bl	HAL_I2C_Mem_Read
 194              	.LVL19:
  77:Core/Src/bno055.c ****                                             I2C_MEMADD_SIZE_8BIT, buf, n, BNO_I2C_TIMEOUT);
  78:Core/Src/bno055.c ****     if (st == HAL_OK)
 195              		.loc 1 78 5 is_stmt 1 view .LVU37
 196              		.loc 1 78 8 is_stmt 0 view .LVU38
 197 0018 0446     		mov	r4, r0
 198 001a 28B9     		cbnz	r0, .L8
  79:Core/Src/bno055.c ****     {
  80:Core/Src/bno055.c ****         bno_fail_cnt = 0;
 199              		.loc 1 80 9 is_stmt 1 view .LVU39
 200              		.loc 1 80 22 is_stmt 0 view .LVU40
 201 001c 0A4B     		ldr	r3, .L11+4
 202 001e 0022     		movs	r2, #0
 203 0020 1A70     		strb	r2, [r3]
 204              	.LVL20:
 205              	.L9:
  81:Core/Src/bno055.c ****     }
ARM GAS  /tmp/ccoKluGf.s 			page 6


  82:Core/Src/bno055.c ****     else if (++bno_fail_cnt >= BNO_FAIL_RECOVER)
  83:Core/Src/bno055.c ****     {
  84:Core/Src/bno055.c ****         bno_bus_recover();
  85:Core/Src/bno055.c ****         bno_fail_cnt = 0;
  86:Core/Src/bno055.c ****     }
  87:Core/Src/bno055.c ****     return st;
 206              		.loc 1 87 5 is_stmt 1 view .LVU41
  88:Core/Src/bno055.c **** }
 207              		.loc 1 88 1 is_stmt 0 view .LVU42
 208 0022 2046     		mov	r0, r4
 209 0024 04B0     		add	sp, sp, #16
 210              	.LCFI5:
 211              		.cfi_remember_state
 212              		.cfi_def_cfa_offset 8
 213              		@ sp needed
 214 0026 10BD     		pop	{r4, pc}
 215              	.LVL21:
 216              	.L8:
 217              	.LCFI6:
 218              		.cfi_restore_state
  82:Core/Src/bno055.c ****     {
 219              		.loc 1 82 10 is_stmt 1 view .LVU43
  82:Core/Src/bno055.c ****     {
 220              		.loc 1 82 14 is_stmt 0 view .LVU44
 221 0028 074A     		ldr	r2, .L11+4
 222 002a 1378     		ldrb	r3, [r2]	@ zero_extendqisi2
 223 002c 0133     		adds	r3, r3, #1
 224 002e DBB2     		uxtb	r3, r3
  82:Core/Src/bno055.c ****     {
 225              		.loc 1 82 13 view .LVU45
 226 0030 1370     		strb	r3, [r2]
 227 0032 092B     		cmp	r3, #9
 228 0034 F5D9     		bls	.L9
  84:Core/Src/bno055.c ****         bno_fail_cnt = 0;
 229              		.loc 1 84 9 is_stmt 1 view .LVU46
 230 0036 FFF7FEFF 		bl	bno_bus_recover
 231              	.LVL22:
  85:Core/Src/bno055.c ****     }
 232              		.loc 1 85 9 view .LVU47
  85:Core/Src/bno055.c ****     }
 233              		.loc 1 85 22 is_stmt 0 view .LVU48
 234 003a 034B     		ldr	r3, .L11+4
 235 003c 0022     		movs	r2, #0
 236 003e 1A70     		strb	r2, [r3]
 237 0040 EFE7     		b	.L9
 238              	.L12:
 239 0042 00BF     		.align	2
 240              	.L11:
 241 0044 00000000 		.word	hi2c1
 242 0048 00000000 		.word	bno_fail_cnt
 243              		.cfi_endproc
 244              	.LFE135:
 246              		.section	.text.bno_wr8,"ax",%progbits
 247              		.align	1
 248              		.syntax unified
 249              		.thumb
 250              		.thumb_func
ARM GAS  /tmp/ccoKluGf.s 			page 7


 252              	bno_wr8:
 253              	.LVL23:
 254              	.LFB136:
  89:Core/Src/bno055.c **** 
  90:Core/Src/bno055.c **** static HAL_StatusTypeDef bno_wr8(uint8_t reg, uint8_t val)
  91:Core/Src/bno055.c **** {
 255              		.loc 1 91 1 is_stmt 1 view -0
 256              		.cfi_startproc
 257              		@ args = 0, pretend = 0, frame = 8
 258              		@ frame_needed = 0, uses_anonymous_args = 0
 259              		.loc 1 91 1 is_stmt 0 view .LVU50
 260 0000 00B5     		push	{lr}
 261              	.LCFI7:
 262              		.cfi_def_cfa_offset 4
 263              		.cfi_offset 14, -4
 264 0002 87B0     		sub	sp, sp, #28
 265              	.LCFI8:
 266              		.cfi_def_cfa_offset 32
 267 0004 0246     		mov	r2, r0
 268 0006 8DF81710 		strb	r1, [sp, #23]
  92:Core/Src/bno055.c ****     return HAL_I2C_Mem_Write(&hi2c1, BNO055_I2C_ADDR_8BIT, reg,
 269              		.loc 1 92 5 is_stmt 1 view .LVU51
 270              		.loc 1 92 12 is_stmt 0 view .LVU52
 271 000a 0A23     		movs	r3, #10
 272 000c 0293     		str	r3, [sp, #8]
 273 000e 0123     		movs	r3, #1
 274 0010 0193     		str	r3, [sp, #4]
 275 0012 0DF11701 		add	r1, sp, #23
 276              	.LVL24:
 277              		.loc 1 92 12 view .LVU53
 278 0016 0091     		str	r1, [sp]
 279 0018 5021     		movs	r1, #80
 280              	.LVL25:
 281              		.loc 1 92 12 view .LVU54
 282 001a 0348     		ldr	r0, .L15
 283              	.LVL26:
 284              		.loc 1 92 12 view .LVU55
 285 001c FFF7FEFF 		bl	HAL_I2C_Mem_Write
 286              	.LVL27:
  93:Core/Src/bno055.c ****                              I2C_MEMADD_SIZE_8BIT, &val, 1, BNO_I2C_TIMEOUT);
  94:Core/Src/bno055.c **** }
 287              		.loc 1 94 1 view .LVU56
 288 0020 07B0     		add	sp, sp, #28
 289              	.LCFI9:
 290              		.cfi_def_cfa_offset 4
 291              		@ sp needed
 292 0022 5DF804FB 		ldr	pc, [sp], #4
 293              	.L16:
 294 0026 00BF     		.align	2
 295              	.L15:
 296 0028 00000000 		.word	hi2c1
 297              		.cfi_endproc
 298              	.LFE136:
 300              		.section	.text.BNO055_HardReset,"ax",%progbits
 301              		.align	1
 302              		.global	BNO055_HardReset
 303              		.syntax unified
ARM GAS  /tmp/ccoKluGf.s 			page 8


 304              		.thumb
 305              		.thumb_func
 307              	BNO055_HardReset:
 308              	.LFB137:
  95:Core/Src/bno055.c **** 
  96:Core/Src/bno055.c **** void BNO055_HardReset(void)
  97:Core/Src/bno055.c **** {
 309              		.loc 1 97 1 is_stmt 1 view -0
 310              		.cfi_startproc
 311              		@ args = 0, pretend = 0, frame = 0
 312              		@ frame_needed = 0, uses_anonymous_args = 0
 313 0000 10B5     		push	{r4, lr}
 314              	.LCFI10:
 315              		.cfi_def_cfa_offset 8
 316              		.cfi_offset 4, -8
 317              		.cfi_offset 14, -4
  98:Core/Src/bno055.c ****     HAL_GPIO_WritePin(IMU_RST_GPIO_Port, IMU_RST_Pin, GPIO_PIN_RESET); /* active-low */
 318              		.loc 1 98 5 view .LVU58
 319 0002 094C     		ldr	r4, .L19
 320 0004 0022     		movs	r2, #0
 321 0006 0221     		movs	r1, #2
 322 0008 2046     		mov	r0, r4
 323 000a FFF7FEFF 		bl	HAL_GPIO_WritePin
 324              	.LVL28:
  99:Core/Src/bno055.c ****     HAL_Delay(1);
 325              		.loc 1 99 5 view .LVU59
 326 000e 0120     		movs	r0, #1
 327 0010 FFF7FEFF 		bl	HAL_Delay
 328              	.LVL29:
 100:Core/Src/bno055.c ****     HAL_GPIO_WritePin(IMU_RST_GPIO_Port, IMU_RST_Pin, GPIO_PIN_SET);
 329              		.loc 1 100 5 view .LVU60
 330 0014 0122     		movs	r2, #1
 331 0016 0221     		movs	r1, #2
 332 0018 2046     		mov	r0, r4
 333 001a FFF7FEFF 		bl	HAL_GPIO_WritePin
 334              	.LVL30:
 101:Core/Src/bno055.c ****     HAL_Delay(700);   /* POR ы╢АэМЕ ~650ms: ьЭ┤эЫДьЧРьХ╝ I2C ьЭСыЛ╡ */
 335              		.loc 1 101 5 view .LVU61
 336 001e 4FF42F70 		mov	r0, #700
 337 0022 FFF7FEFF 		bl	HAL_Delay
 338              	.LVL31:
 102:Core/Src/bno055.c **** }
 339              		.loc 1 102 1 is_stmt 0 view .LVU62
 340 0026 10BD     		pop	{r4, pc}
 341              	.L20:
 342              		.align	2
 343              	.L19:
 344 0028 00040240 		.word	1073873920
 345              		.cfi_endproc
 346              	.LFE137:
 348              		.section	.text.BNO055_Init,"ax",%progbits
 349              		.align	1
 350              		.global	BNO055_Init
 351              		.syntax unified
 352              		.thumb
 353              		.thumb_func
 355              	BNO055_Init:
ARM GAS  /tmp/ccoKluGf.s 			page 9


 356              	.LFB138:
 103:Core/Src/bno055.c **** 
 104:Core/Src/bno055.c **** bool BNO055_Init(void)
 105:Core/Src/bno055.c **** {
 357              		.loc 1 105 1 is_stmt 1 view -0
 358              		.cfi_startproc
 359              		@ args = 0, pretend = 0, frame = 8
 360              		@ frame_needed = 0, uses_anonymous_args = 0
 361 0000 10B5     		push	{r4, lr}
 362              	.LCFI11:
 363              		.cfi_def_cfa_offset 8
 364              		.cfi_offset 4, -8
 365              		.cfi_offset 14, -4
 366 0002 82B0     		sub	sp, sp, #8
 367              	.LCFI12:
 368              		.cfi_def_cfa_offset 16
 106:Core/Src/bno055.c ****     uint8_t id = 0;
 369              		.loc 1 106 5 view .LVU64
 370              		.loc 1 106 13 is_stmt 0 view .LVU65
 371 0004 0024     		movs	r4, #0
 372 0006 8DF80740 		strb	r4, [sp, #7]
 107:Core/Src/bno055.c **** 
 108:Core/Src/bno055.c ****     BNO055_HardReset();
 373              		.loc 1 108 5 is_stmt 1 view .LVU66
 374 000a FFF7FEFF 		bl	BNO055_HardReset
 375              	.LVL32:
 109:Core/Src/bno055.c **** 
 110:Core/Src/bno055.c ****     /* ы╢АэМЕ ьзБэЫД NACK ъ░АыКе тЖТ ьЮмьЛЬыПД */
 111:Core/Src/bno055.c ****     for (int i = 0; i < 10; i++)
 376              		.loc 1 111 5 view .LVU67
 377              	.LBB3:
 378              		.loc 1 111 10 view .LVU68
 379              		.loc 1 111 5 is_stmt 0 view .LVU69
 380 000e 03E0     		b	.L22
 381              	.LVL33:
 382              	.L23:
 112:Core/Src/bno055.c ****     {
 113:Core/Src/bno055.c ****         if (bno_rd(REG_CHIP_ID, &id, 1) == HAL_OK && id == CHIP_ID_VAL) break;
 114:Core/Src/bno055.c ****         HAL_Delay(10);
 383              		.loc 1 114 9 is_stmt 1 view .LVU70
 384 0010 0A20     		movs	r0, #10
 385 0012 FFF7FEFF 		bl	HAL_Delay
 386              	.LVL34:
 111:Core/Src/bno055.c ****     {
 387              		.loc 1 111 30 discriminator 2 view .LVU71
 388 0016 0134     		adds	r4, r4, #1
 389              	.LVL35:
 390              	.L22:
 111:Core/Src/bno055.c ****     {
 391              		.loc 1 111 23 discriminator 1 view .LVU72
 392 0018 092C     		cmp	r4, #9
 393 001a 0BDC     		bgt	.L24
 113:Core/Src/bno055.c ****         HAL_Delay(10);
 394              		.loc 1 113 9 view .LVU73
 113:Core/Src/bno055.c ****         HAL_Delay(10);
 395              		.loc 1 113 13 is_stmt 0 view .LVU74
 396 001c 0122     		movs	r2, #1
ARM GAS  /tmp/ccoKluGf.s 			page 10


 397 001e 0DF10701 		add	r1, sp, #7
 398 0022 0020     		movs	r0, #0
 399 0024 FFF7FEFF 		bl	bno_rd
 400              	.LVL36:
 113:Core/Src/bno055.c ****         HAL_Delay(10);
 401              		.loc 1 113 12 discriminator 1 view .LVU75
 402 0028 0028     		cmp	r0, #0
 403 002a F1D1     		bne	.L23
 113:Core/Src/bno055.c ****         HAL_Delay(10);
 404              		.loc 1 113 57 discriminator 1 view .LVU76
 405 002c 9DF80730 		ldrb	r3, [sp, #7]	@ zero_extendqisi2
 113:Core/Src/bno055.c ****         HAL_Delay(10);
 406              		.loc 1 113 51 discriminator 1 view .LVU77
 407 0030 A02B     		cmp	r3, #160
 408 0032 EDD1     		bne	.L23
 409              	.L24:
 410              	.LBE3:
 115:Core/Src/bno055.c ****     }
 116:Core/Src/bno055.c ****     if (id != CHIP_ID_VAL) return false;   /* эЖ╡ьЛа/ьг╝ьЖМ/ьаДьЫР ым╕ьаЬ */
 411              		.loc 1 116 5 is_stmt 1 view .LVU78
 412              		.loc 1 116 12 is_stmt 0 view .LVU79
 413 0034 9DF80730 		ldrb	r3, [sp, #7]	@ zero_extendqisi2
 414              		.loc 1 116 8 view .LVU80
 415 0038 A02B     		cmp	r3, #160
 416 003a 02D0     		beq	.L32
 417              		.loc 1 116 35 discriminator 1 view .LVU81
 418 003c 0020     		movs	r0, #0
 419              	.L26:
 117:Core/Src/bno055.c **** 
 118:Core/Src/bno055.c ****     /* CONFIG ыкиыУЬьЧРьДЬ ьДдьаХ */
 119:Core/Src/bno055.c ****     if (bno_wr8(REG_OPR_MODE, OPR_MODE_CONFIG) != HAL_OK) return false;
 120:Core/Src/bno055.c ****     HAL_Delay(20);
 121:Core/Src/bno055.c **** 
 122:Core/Src/bno055.c ****     bno_wr8(REG_PAGE_ID, 0x00);
 123:Core/Src/bno055.c ****     if (bno_wr8(REG_PWR_MODE, BNO_PWR_NORMAL) != HAL_OK) return false;
 124:Core/Src/bno055.c ****     HAL_Delay(10);
 125:Core/Src/bno055.c **** 
 126:Core/Src/bno055.c ****     /* CLK_SEL=0 тЖТ ыВ┤ы╢А ьШдьЛдыаИьЭ┤эД░(ыкиыУа ы│┤ыУЬ ьХИьаД).
 127:Core/Src/bno055.c ****      * ы│┤ыУЬьЧР 32.768kHz эБмыжмьКдэГИ ьЮИьЬ╝ый┤ 0x80(ьЩ╕ы╢А)ыбЬ ыСРый┤ ьЬ╡эХй ьаХэЩХыПДтЖС */
 128:Core/Src/bno055.c ****     bno_wr8(REG_SYS_TRIGGER, 0x00);
 129:Core/Src/bno055.c ****     HAL_Delay(10);
 130:Core/Src/bno055.c **** 
 131:Core/Src/bno055.c ****     bno_wr8(REG_UNIT_SEL, 0x00);   /* deg, m/s^2, dps, тДГ, Windows orientation */
 132:Core/Src/bno055.c **** 
 133:Core/Src/bno055.c ****     /* ьЬ╡эХй ьЛЬьЮС тАФ IMU ыкиыУЬ(gyro+accel, ьзАьЮРъ╕░ ьаЬьЩ╕). NDOFыКФ OPR_MODE_NDOFыбЬ ы│╡ъ╖А 
 134:Core/Src/bno055.c ****     if (bno_wr8(REG_OPR_MODE, OPR_MODE_IMU) != HAL_OK) return false;
 135:Core/Src/bno055.c ****     HAL_Delay(20);   /* CONFIGтЖТoperating ьаДэЩШ тЙе7ms */
 136:Core/Src/bno055.c **** 
 137:Core/Src/bno055.c ****     return true;
 138:Core/Src/bno055.c **** }
 420              		.loc 1 138 1 view .LVU82
 421 003e 02B0     		add	sp, sp, #8
 422              	.LCFI13:
 423              		.cfi_remember_state
 424              		.cfi_def_cfa_offset 8
 425              		@ sp needed
 426 0040 10BD     		pop	{r4, pc}
ARM GAS  /tmp/ccoKluGf.s 			page 11


 427              	.LVL37:
 428              	.L32:
 429              	.LCFI14:
 430              		.cfi_restore_state
 119:Core/Src/bno055.c ****     HAL_Delay(20);
 431              		.loc 1 119 5 is_stmt 1 view .LVU83
 119:Core/Src/bno055.c ****     HAL_Delay(20);
 432              		.loc 1 119 9 is_stmt 0 view .LVU84
 433 0042 0021     		movs	r1, #0
 434 0044 3D20     		movs	r0, #61
 435 0046 FFF7FEFF 		bl	bno_wr8
 436              	.LVL38:
 119:Core/Src/bno055.c ****     HAL_Delay(20);
 437              		.loc 1 119 8 discriminator 1 view .LVU85
 438 004a 08B1     		cbz	r0, .L33
 119:Core/Src/bno055.c ****     HAL_Delay(20);
 439              		.loc 1 119 66 discriminator 1 view .LVU86
 440 004c 0020     		movs	r0, #0
 441 004e F6E7     		b	.L26
 442              	.L33:
 120:Core/Src/bno055.c **** 
 443              		.loc 1 120 5 is_stmt 1 view .LVU87
 444 0050 1420     		movs	r0, #20
 445 0052 FFF7FEFF 		bl	HAL_Delay
 446              	.LVL39:
 122:Core/Src/bno055.c ****     if (bno_wr8(REG_PWR_MODE, BNO_PWR_NORMAL) != HAL_OK) return false;
 447              		.loc 1 122 5 view .LVU88
 448 0056 0021     		movs	r1, #0
 449 0058 0720     		movs	r0, #7
 450 005a FFF7FEFF 		bl	bno_wr8
 451              	.LVL40:
 123:Core/Src/bno055.c ****     HAL_Delay(10);
 452              		.loc 1 123 5 view .LVU89
 123:Core/Src/bno055.c ****     HAL_Delay(10);
 453              		.loc 1 123 9 is_stmt 0 view .LVU90
 454 005e 0021     		movs	r1, #0
 455 0060 3E20     		movs	r0, #62
 456 0062 FFF7FEFF 		bl	bno_wr8
 457              	.LVL41:
 123:Core/Src/bno055.c ****     HAL_Delay(10);
 458              		.loc 1 123 8 discriminator 1 view .LVU91
 459 0066 08B1     		cbz	r0, .L34
 123:Core/Src/bno055.c ****     HAL_Delay(10);
 460              		.loc 1 123 65 discriminator 1 view .LVU92
 461 0068 0020     		movs	r0, #0
 462 006a E8E7     		b	.L26
 463              	.L34:
 124:Core/Src/bno055.c **** 
 464              		.loc 1 124 5 is_stmt 1 view .LVU93
 465 006c 0A20     		movs	r0, #10
 466 006e FFF7FEFF 		bl	HAL_Delay
 467              	.LVL42:
 128:Core/Src/bno055.c ****     HAL_Delay(10);
 468              		.loc 1 128 5 view .LVU94
 469 0072 0021     		movs	r1, #0
 470 0074 3F20     		movs	r0, #63
 471 0076 FFF7FEFF 		bl	bno_wr8
ARM GAS  /tmp/ccoKluGf.s 			page 12


 472              	.LVL43:
 129:Core/Src/bno055.c **** 
 473              		.loc 1 129 5 view .LVU95
 474 007a 0A20     		movs	r0, #10
 475 007c FFF7FEFF 		bl	HAL_Delay
 476              	.LVL44:
 131:Core/Src/bno055.c **** 
 477              		.loc 1 131 5 view .LVU96
 478 0080 0021     		movs	r1, #0
 479 0082 3B20     		movs	r0, #59
 480 0084 FFF7FEFF 		bl	bno_wr8
 481              	.LVL45:
 134:Core/Src/bno055.c ****     HAL_Delay(20);   /* CONFIGтЖТoperating ьаДэЩШ тЙе7ms */
 482              		.loc 1 134 5 view .LVU97
 134:Core/Src/bno055.c ****     HAL_Delay(20);   /* CONFIGтЖТoperating ьаДэЩШ тЙе7ms */
 483              		.loc 1 134 9 is_stmt 0 view .LVU98
 484 0088 0821     		movs	r1, #8
 485 008a 3D20     		movs	r0, #61
 486 008c FFF7FEFF 		bl	bno_wr8
 487              	.LVL46:
 134:Core/Src/bno055.c ****     HAL_Delay(20);   /* CONFIGтЖТoperating ьаДэЩШ тЙе7ms */
 488              		.loc 1 134 8 discriminator 1 view .LVU99
 489 0090 08B1     		cbz	r0, .L35
 134:Core/Src/bno055.c ****     HAL_Delay(20);   /* CONFIGтЖТoperating ьаДэЩШ тЙе7ms */
 490              		.loc 1 134 63 discriminator 1 view .LVU100
 491 0092 0020     		movs	r0, #0
 492 0094 D3E7     		b	.L26
 493              	.L35:
 135:Core/Src/bno055.c **** 
 494              		.loc 1 135 5 is_stmt 1 view .LVU101
 495 0096 1420     		movs	r0, #20
 496 0098 FFF7FEFF 		bl	HAL_Delay
 497              	.LVL47:
 137:Core/Src/bno055.c **** }
 498              		.loc 1 137 5 view .LVU102
 137:Core/Src/bno055.c **** }
 499              		.loc 1 137 12 is_stmt 0 view .LVU103
 500 009c 0120     		movs	r0, #1
 501 009e CEE7     		b	.L26
 502              		.cfi_endproc
 503              	.LFE138:
 505              		.section	.text.BNO055_ReadEuler,"ax",%progbits
 506              		.align	1
 507              		.global	BNO055_ReadEuler
 508              		.syntax unified
 509              		.thumb
 510              		.thumb_func
 512              	BNO055_ReadEuler:
 513              	.LVL48:
 514              	.LFB139:
 139:Core/Src/bno055.c **** 
 140:Core/Src/bno055.c **** bool BNO055_ReadEuler(BNO055_Euler *e)
 141:Core/Src/bno055.c **** {
 515              		.loc 1 141 1 is_stmt 1 view -0
 516              		.cfi_startproc
 517              		@ args = 0, pretend = 0, frame = 8
 518              		@ frame_needed = 0, uses_anonymous_args = 0
ARM GAS  /tmp/ccoKluGf.s 			page 13


 519              		.loc 1 141 1 is_stmt 0 view .LVU105
 520 0000 10B5     		push	{r4, lr}
 521              	.LCFI15:
 522              		.cfi_def_cfa_offset 8
 523              		.cfi_offset 4, -8
 524              		.cfi_offset 14, -4
 525 0002 82B0     		sub	sp, sp, #8
 526              	.LCFI16:
 527              		.cfi_def_cfa_offset 16
 528 0004 0446     		mov	r4, r0
 142:Core/Src/bno055.c ****     uint8_t b[6];
 529              		.loc 1 142 5 is_stmt 1 view .LVU106
 143:Core/Src/bno055.c ****     if (bno_rd(REG_EUL_H_LSB, b, 6) != HAL_OK) return false;
 530              		.loc 1 143 5 view .LVU107
 531              		.loc 1 143 9 is_stmt 0 view .LVU108
 532 0006 0622     		movs	r2, #6
 533 0008 6946     		mov	r1, sp
 534 000a 1A20     		movs	r0, #26
 535              	.LVL49:
 536              		.loc 1 143 9 view .LVU109
 537 000c FFF7FEFF 		bl	bno_rd
 538              	.LVL50:
 539              		.loc 1 143 8 discriminator 1 view .LVU110
 540 0010 88BB     		cbnz	r0, .L38
 144:Core/Src/bno055.c **** 
 145:Core/Src/bno055.c ****     int16_t h = (int16_t)((uint16_t)b[1] << 8 | b[0]);
 541              		.loc 1 145 5 is_stmt 1 view .LVU111
 542              		.loc 1 145 38 is_stmt 0 view .LVU112
 543 0012 9DF80130 		ldrb	r3, [sp, #1]	@ zero_extendqisi2
 544              		.loc 1 145 17 view .LVU113
 545 0016 1B02     		lsls	r3, r3, #8
 546 0018 1BB2     		sxth	r3, r3
 547              		.loc 1 145 50 view .LVU114
 548 001a 9DF80020 		ldrb	r2, [sp]	@ zero_extendqisi2
 549              		.loc 1 145 13 view .LVU115
 550 001e 1343     		orrs	r3, r3, r2
 551 0020 06EE903A 		vmov	s13, r3	@ int
 552              	.LVL51:
 146:Core/Src/bno055.c ****     int16_t r = (int16_t)((uint16_t)b[3] << 8 | b[2]);
 553              		.loc 1 146 5 is_stmt 1 view .LVU116
 554              		.loc 1 146 38 is_stmt 0 view .LVU117
 555 0024 9DF80330 		ldrb	r3, [sp, #3]	@ zero_extendqisi2
 556              		.loc 1 146 17 view .LVU118
 557 0028 1B02     		lsls	r3, r3, #8
 558 002a 1BB2     		sxth	r3, r3
 559              		.loc 1 146 50 view .LVU119
 560 002c 9DF80220 		ldrb	r2, [sp, #2]	@ zero_extendqisi2
 561              		.loc 1 146 13 view .LVU120
 562 0030 1343     		orrs	r3, r3, r2
 563 0032 07EE103A 		vmov	s14, r3	@ int
 564              	.LVL52:
 147:Core/Src/bno055.c ****     int16_t p = (int16_t)((uint16_t)b[5] << 8 | b[4]);
 565              		.loc 1 147 5 is_stmt 1 view .LVU121
 566              		.loc 1 147 38 is_stmt 0 view .LVU122
 567 0036 9DF80530 		ldrb	r3, [sp, #5]	@ zero_extendqisi2
 568              		.loc 1 147 17 view .LVU123
 569 003a 1B02     		lsls	r3, r3, #8
ARM GAS  /tmp/ccoKluGf.s 			page 14


 570 003c 1BB2     		sxth	r3, r3
 571              		.loc 1 147 50 view .LVU124
 572 003e 9DF80420 		ldrb	r2, [sp, #4]	@ zero_extendqisi2
 573              		.loc 1 147 13 view .LVU125
 574 0042 1343     		orrs	r3, r3, r2
 575 0044 07EE903A 		vmov	s15, r3	@ int
 576              	.LVL53:
 148:Core/Src/bno055.c **** 
 149:Core/Src/bno055.c ****     e->heading = (float)h / EUL_LSB_PER_DEG;
 577              		.loc 1 149 5 is_stmt 1 view .LVU126
 578              		.loc 1 149 18 is_stmt 0 view .LVU127
 579 0048 F8EEE66A 		vcvt.f32.s32	s13, s13
 580              	.LVL54:
 581              		.loc 1 149 27 view .LVU128
 582 004c 9FED0B6A 		vldr.32	s12, .L40
 583 0050 66EE866A 		vmul.f32	s13, s13, s12
 584              		.loc 1 149 16 view .LVU129
 585 0054 C4ED006A 		vstr.32	s13, [r4]
 586              	.LVL55:
 150:Core/Src/bno055.c ****     e->roll    = (float)r / EUL_LSB_PER_DEG;
 587              		.loc 1 150 5 is_stmt 1 view .LVU130
 588              		.loc 1 150 18 is_stmt 0 view .LVU131
 589 0058 B8EEC77A 		vcvt.f32.s32	s14, s14
 590              	.LVL56:
 591              		.loc 1 150 27 view .LVU132
 592 005c 27EE067A 		vmul.f32	s14, s14, s12
 593              		.loc 1 150 16 view .LVU133
 594 0060 84ED017A 		vstr.32	s14, [r4, #4]
 151:Core/Src/bno055.c ****     e->pitch   = (float)p / EUL_LSB_PER_DEG;
 595              		.loc 1 151 5 is_stmt 1 view .LVU134
 596              		.loc 1 151 18 is_stmt 0 view .LVU135
 597 0064 F8EEE77A 		vcvt.f32.s32	s15, s15
 598              	.LVL57:
 599              		.loc 1 151 27 view .LVU136
 600 0068 67EE867A 		vmul.f32	s15, s15, s12
 601              		.loc 1 151 16 view .LVU137
 602 006c C4ED027A 		vstr.32	s15, [r4, #8]
 152:Core/Src/bno055.c ****     return true;
 603              		.loc 1 152 5 is_stmt 1 view .LVU138
 604              		.loc 1 152 12 is_stmt 0 view .LVU139
 605 0070 0120     		movs	r0, #1
 606              	.LVL58:
 607              	.L37:
 153:Core/Src/bno055.c **** }
 608              		.loc 1 153 1 view .LVU140
 609 0072 02B0     		add	sp, sp, #8
 610              	.LCFI17:
 611              		.cfi_remember_state
 612              		.cfi_def_cfa_offset 8
 613              		@ sp needed
 614 0074 10BD     		pop	{r4, pc}
 615              	.LVL59:
 616              	.L38:
 617              	.LCFI18:
 618              		.cfi_restore_state
 143:Core/Src/bno055.c **** 
 619              		.loc 1 143 55 discriminator 1 view .LVU141
ARM GAS  /tmp/ccoKluGf.s 			page 15


 620 0076 0020     		movs	r0, #0
 621 0078 FBE7     		b	.L37
 622              	.L41:
 623 007a 00BF     		.align	2
 624              	.L40:
 625 007c 0000803D 		.word	1031798784
 626              		.cfi_endproc
 627              	.LFE139:
 629              		.section	.text.BNO055_ReadCalibStatus,"ax",%progbits
 630              		.align	1
 631              		.global	BNO055_ReadCalibStatus
 632              		.syntax unified
 633              		.thumb
 634              		.thumb_func
 636              	BNO055_ReadCalibStatus:
 637              	.LFB140:
 154:Core/Src/bno055.c **** 
 155:Core/Src/bno055.c **** uint8_t BNO055_ReadCalibStatus(void)
 156:Core/Src/bno055.c **** {
 638              		.loc 1 156 1 is_stmt 1 view -0
 639              		.cfi_startproc
 640              		@ args = 0, pretend = 0, frame = 8
 641              		@ frame_needed = 0, uses_anonymous_args = 0
 642 0000 00B5     		push	{lr}
 643              	.LCFI19:
 644              		.cfi_def_cfa_offset 4
 645              		.cfi_offset 14, -4
 646 0002 83B0     		sub	sp, sp, #12
 647              	.LCFI20:
 648              		.cfi_def_cfa_offset 16
 157:Core/Src/bno055.c ****     uint8_t c = 0;
 649              		.loc 1 157 5 view .LVU143
 650              		.loc 1 157 13 is_stmt 0 view .LVU144
 651 0004 0023     		movs	r3, #0
 652 0006 8DF80730 		strb	r3, [sp, #7]
 158:Core/Src/bno055.c ****     (void)bno_rd(REG_CALIB_STAT, &c, 1);
 653              		.loc 1 158 5 is_stmt 1 view .LVU145
 654              		.loc 1 158 11 is_stmt 0 view .LVU146
 655 000a 0122     		movs	r2, #1
 656 000c 0DF10701 		add	r1, sp, #7
 657 0010 3520     		movs	r0, #53
 658 0012 FFF7FEFF 		bl	bno_rd
 659              	.LVL60:
 159:Core/Src/bno055.c ****     return c;
 660              		.loc 1 159 5 is_stmt 1 view .LVU147
 160:Core/Src/bno055.c **** }
 661              		.loc 1 160 1 is_stmt 0 view .LVU148
 662 0016 9DF80700 		ldrb	r0, [sp, #7]	@ zero_extendqisi2
 663 001a 03B0     		add	sp, sp, #12
 664              	.LCFI21:
 665              		.cfi_def_cfa_offset 4
 666              		@ sp needed
 667 001c 5DF804FB 		ldr	pc, [sp], #4
 668              		.cfi_endproc
 669              	.LFE140:
 671              		.section	.bss.bno_fail_cnt,"aw",%nobits
 674              	bno_fail_cnt:
ARM GAS  /tmp/ccoKluGf.s 			page 16


 675 0000 00       		.space	1
 676              		.text
 677              	.Letext0:
 678              		.file 2 "/usr/lib/gcc/arm-none-eabi/13.2.1/include/stdint.h"
 679              		.file 3 "Drivers/CMSIS/Device/ST/STM32F4xx/Include/stm32f411xe.h"
 680              		.file 4 "Drivers/STM32F4xx_HAL_Driver/Inc/stm32f4xx_hal_def.h"
 681              		.file 5 "Drivers/STM32F4xx_HAL_Driver/Inc/stm32f4xx_hal_gpio.h"
 682              		.file 6 "Drivers/STM32F4xx_HAL_Driver/Inc/stm32f4xx_hal_dma.h"
 683              		.file 7 "Drivers/STM32F4xx_HAL_Driver/Inc/stm32f4xx_hal_i2c.h"
 684              		.file 8 "Core/Inc/bno055.h"
 685              		.file 9 "Core/Inc/delay.h"
 686              		.file 10 "Drivers/STM32F4xx_HAL_Driver/Inc/stm32f4xx_hal.h"
 687              		.file 11 "Core/Inc/i2c.h"
ARM GAS  /tmp/ccoKluGf.s 			page 17

