ARM GAS  C:\Users\user\AppData\Local\Temp\ccEq0Nch.s 			page 1


   1              		.cpu cortex-m4
   2              		.arch armv7e-m
   3              		.fpu fpv4-sp-d16
   4              		.eabi_attribute 27, 1
   5              		.eabi_attribute 28, 1
   6              		.eabi_attribute 20, 1
   7              		.eabi_attribute 21, 1
   8              		.eabi_attribute 23, 3
   9              		.eabi_attribute 24, 1
  10              		.eabi_attribute 25, 1
  11              		.eabi_attribute 26, 1
  12              		.eabi_attribute 30, 1
  13              		.eabi_attribute 34, 1
  14              		.eabi_attribute 18, 4
  15              		.file	"drive.c"
  16              		.text
  17              	.Ltext0:
  18              		.cfi_sections	.debug_frame
  19              		.file 1 "Core/Src/drive.c"
  20              		.section	.text.wrap180,"ax",%progbits
  21              		.align	1
  22              		.syntax unified
  23              		.thumb
  24              		.thumb_func
  26              	wrap180:
  27              	.LVL0:
  28              	.LFB134:
   1:Core/Src/drive.c **** /* USER CODE BEGIN Header */
   2:Core/Src/drive.c **** /**
   3:Core/Src/drive.c ****   ******************************************************************************
   4:Core/Src/drive.c ****   * @file    drive.c
   5:Core/Src/drive.c ****   * @brief   ьг╝эЦЙ ьаЬьЦ┤ъ╕░ ъ╡мэШД тАФ ы╣Ды╕ФыбЬэВ╣ 5-ьГБэГЬ ыи╕ьЛа + ы│╡ыПД ьД╝эД░ызБ ьб░эЦе
   6:Core/Src/drive.c ****   *
   7:Core/Src/drive.c ****   *          ьДдъ│Д ьЫРь╣Щ (ы▓╜ ы░ХэЮШ ъ╖╝ьаИ):
   8:Core/Src/drive.c ****   *          - HAL_Delay ьЧЖьЭМ: ыкиыУа ьЬаьзАьЛЬъ░ДьЭА HAL_GetTick эГАьЮДьКдэГмэФД тЖТ ызд ыгиэФД 
   9:Core/Src/drive.c ****   *          - ь╜ФыДИ: ьаДьзДьД▒ ьХДэБм(DS_CORNER, Car_Arc*)ыбЬ ъ╡┤ыЯмьДЬ эЖ╡ъ│╝ тАФ ьвБьЭА ып╕ыбЬ 
  10:Core/Src/drive.c ****   *            ьаЬьЮРыжм эФ╝ы▓Ч(SPIN)ьЭА ьХДэБм ьЛдэМи/ызЙыЛдые╕ъ││ эП┤ы░▒ьЬ╝ыбЬызМ ьВмьЪй (ьаДьзД 
  11:Core/Src/drive.c ****   *          - ыкиыУа эЪМьаД/ьаХьзАьЧР эФ╝ыУЬы░▒: ыКеыПЩ ьаЬыПЩ(BRAKE), IMU эЪМьаДъ░Б эГИь╢Ь ъ▓МьЭ┤
  12:Core/Src/drive.c ****   *            ьКдэД▒ ъ░РьзА тАФ ьЛЬъ░Д├ЧыУАэЛ░ ъ░ЬыгиэФД ьЧЖьЭМ тЖТ ы░░эД░ыжм sag ый┤ьЧн
  13:Core/Src/drive.c ****   *          - IMU ьВмызЭ ьЛЬ ьаД ъ╕░ыКеьЭ┤ ъ▒░ыжм-onlyыбЬ ьЮРыПЩ ъ░ХыУ▒ (ьг╝эЦЙ ьдСыЛи ьЧЖьЭМ)
  14:Core/Src/drive.c ****   ******************************************************************************
  15:Core/Src/drive.c ****   */
  16:Core/Src/drive.c **** /* USER CODE END Header */
  17:Core/Src/drive.c **** 
  18:Core/Src/drive.c **** #include "drive.h"
  19:Core/Src/drive.c **** #include "motor.h"
  20:Core/Src/drive.c **** #include <math.h>
  21:Core/Src/drive.c **** 
  22:Core/Src/drive.c **** /* ---- ыФФы▓Дъ╖╕ ып╕ыЯм (SWD Live Expressions ыУ▒ыбЭ ыМАьГБ) ---- */
  23:Core/Src/drive.c **** volatile uint8_t dbg_state      = 0;     /* DriveState (0 CRUISE / 1 BRAKE / 2 SPIN / 3 REVERSE / 4
  24:Core/Src/drive.c ****                                             ъ╡м dbg_avoiding ыМАь▓┤: 0ьЭ┤ ьХДыЛИый┤ эЪМэФ╝/ь╜ФыДИ ъ
  25:Core/Src/drive.c **** volatile uint8_t dbg_steer_mode = 0;     /* 0 ьЦСы▓╜ьД╝эД░ызБ / 1 эХЬы▓╜(ьвМ) / 2 эХЬы▓╜(ьЪ░) / 3 h
  26:Core/Src/drive.c **** volatile float   dbg_steer      = 0.0f;  /* ьб░эЦеыЯЙ u [%duty], + = ьвМьб░эЦе */
  27:Core/Src/drive.c **** volatile int16_t dbg_duty_l     = 0;     /* CRUISE ьвМ/ьЪ░ ы░ФэА┤ ыУАэЛ░ (ыН░ыУЬы░┤ыУЬ (0,30) ь╣иы▓
  28:Core/Src/drive.c **** volatile int16_t dbg_duty_r     = 0;
  29:Core/Src/drive.c **** volatile float   dbg_hdg_err    = 0.0f;  /* heading-hold ьШдь░и [deg] */
  30:Core/Src/drive.c **** volatile float   dbg_yaw_rate   = 0.0f;  /* CRUISE yaw-rate [deg/s], CW(ьЪ░)=+. ьзБьзД ьЛЬ 0 ъ╖╝ь▓Ш
ARM GAS  C:\Users\user\AppData\Local\Temp\ccEq0Nch.s 			page 2


  31:Core/Src/drive.c **** volatile float   dbg_spin_deg   = 0.0f;  /* SPIN ьзДьЮЕ эЫД ыИДьаБ эЪМьаДъ░Б [deg] (TURN_MIN_DEG ъ▓
  32:Core/Src/drive.c **** volatile uint8_t dbg_turn_dir   = 0;     /* ыЮШь╣Ш эЪМьаД ы░йэЦе 0=ьвМ 1=ьЪ░ (ъ╡м main.c ып╕ыЯм ьК╣
  33:Core/Src/drive.c **** volatile uint8_t dbg_rev_cnt    = 0;     /* ьзБьзД ы│╡ъ╖А ьЧЖьЭ┤ ыИДьаБыРЬ эЫДьзД chunk ьИШ */
  34:Core/Src/drive.c **** volatile uint8_t dbg_reverse    = 0;     /* [IMU] ьЧньг╝эЦЙ ъ░РьзА: 1 = ы│╡ыПД ъ╕░ьдА ъ│╝эЪМьаД(ьЮШ
  35:Core/Src/drive.c **** volatile float   dbg_course_dev = 0.0f;  /* [IMU] heading тИТ course_heading эО╕ь░и [deg]. ь╜ФыДИ ~
  36:Core/Src/drive.c **** volatile uint8_t dbg_graze      = 0;     /* [req1] ьаДый┤ъ╖╝ьаС(f<TURN)ьЭ╝ ыХМ ъ╖╕ыаИьЭ┤ьзХ(ы╣Фъ░Дь
  37:Core/Src/drive.c **** volatile uint8_t dbg_front_near = 0;     /* [req1] ьзДьзЬ ьаХый┤ъ╖╝ьаС ьЧ░ьЖН ь╣┤ьЪ┤эК╕ (FRONT_CONF
  38:Core/Src/drive.c **** 
  39:Core/Src/drive.c **** /* ---- ьб░эЦе ыкиыУЬ ---- */
  40:Core/Src/drive.c **** #define SM_BOTH   0   /* ьЦСы▓╜ ьД╝эД░ызБ: u = KP_WALL ├Ч (l тИТ r) */
  41:Core/Src/drive.c **** #define SM_LEFT   1   /* ьвМы▓╜ызМ: ьзДьЮЕ ьЛЬ ъ▒░ыжм ыЮШь╣Ш эЫД ыУ▒ъ▒░ыжм ьЬаьзА */
  42:Core/Src/drive.c **** #define SM_RIGHT  2   /* ьЪ░ы▓╜ызМ */
  43:Core/Src/drive.c **** #define SM_HDG    3   /* ым┤ы▓╜: IMU heading-hold */
  44:Core/Src/drive.c **** #define SM_OPEN   4   /* ым┤ы▓╜ + IMU ьВмызЭ: open-loop ьзБьзД (ыаИъ▒░ьЛЬ ъ▒░ыПЩ) */
  45:Core/Src/drive.c **** #define SM_INIT   255 /* CRUISE ьзДьЮЕ ьзБэЫД тАФ ь▓л ыгиэФДьЧР ыкиыУЬ ыЮШь╣Ш ъ░ХьаЬ */
  46:Core/Src/drive.c **** 
  47:Core/Src/drive.c **** /* ---- Narrow-course centering control ---- */
  48:Core/Src/drive.c **** #define CENTER_MA_WIN              3U      /* Moving average window. 1тЖТ3: ъ│аьг╝эММ ыЕ╕ьЭ┤ьжИ(ь┤И
  49:Core/Src/drive.c ****                                               ьзБьзД ьЛЬ DэХньЧР raw ыЕ╕ьЭ┤ьжИ ьЬаьЮЕтЖТып╕ы╢ДьжЭэП
  50:Core/Src/drive.c **** #define CENTER_DEADZONE_CM         2.0f    /* ьдСьХЩ ы╢Иъ░РыМА ┬▒2.0cm(1.0тЖТ2.0: ь┤ИьЭМэММ ыЕ╕ьЭ┤ь
  51:Core/Src/drive.c **** #define CENTER_KP                  0.18f   /* Steering P gain [%duty/cm] = эПРыгиэФД ъ░ХьД▒(╧Й_n┬▓т
  52:Core/Src/drive.c **** #define CENTER_KD                  0.0f    /* Steering D gain [%duty/(cm/s)] (0.08тЖТ0: ь┤ИьЭМэММ ы
  53:Core/Src/drive.c ****                                               тЪаIMU ьВмызЭ эП┤ы░▒(imu_live=0)ыХР ыМРэХС 0 = P-only
  54:Core/Src/drive.c **** #define CENTER_STEER_MAX_PCT       10.0f   /* Max differential steering command (эФ╝ы▓Ч ьг╝эЦЙ: ьХД
  55:Core/Src/drive.c **** #define CENTER_STEER_SLEW_PCT      3.0f    /* тШЕьб░эЦе ы│АэЩФьЬи ьГБэХЬ [%duty/loop] (4.5тЖТ3.0: ь
  56:Core/Src/drive.c **** #define CENTER_BASE_SPEED_PCT      42.0f   /* тШЕьЛдьаЬ ьзБьзД ьЖНыПД [%duty] (50тЖТ42: ьвБьЭА ь╜Фь
  57:Core/Src/drive.c **** #define CENTER_MIN_SPEED_PCT       35.0f   /* ь╡ЬыМАьб░эЦе ьЛЬ ьЖНыПД эХШэХЬ (40тЖТ35: BASE эХШэЦеь
  58:Core/Src/drive.c **** #define CENTER_SENSOR_MAX_CM       80U     /* Clamp side sensor spikes */
  59:Core/Src/drive.c **** 
  60:Core/Src/drive.c **** /* ---- Corner anticipation эПРьзА ----
  61:Core/Src/drive.c ****  * ьвБьЭА ып╕ыбЬьЪй ьЮмьДдъ│Д: ьХДэБм(ъ╡┤ыЯмьДЬ эЖ╡ъ│╝) ь╜ФыДИ тЖТ ьаХьзА+ьаЬьЮРыжм эФ╝ы▓Ч(brakeтЖТ
  62:Core/Src/drive.c ****  * CORNER_NEAR_CM / CORNER_STEER_MAX_PCT(ьХДэБм ы╕ФыаМыУЬ ыЕ╕ы╕М) ьаЬъ▒░ тАФ ьД╝эД░ызБьЭА ьИЬьИШ ьз
  63:Core/Src/drive.c **** 
  64:Core/Src/drive.c **** /* ---- ыВ┤ы╢А ьГБэГЬ ---- */
  65:Core/Src/drive.c **** /* stызМ volatile: MotorTaskъ░А ьУ░ъ│а SensorTaskъ░А Drive_GetState()ыбЬ эБмыбЬьКд-эГЬьКдэБм ьЭ╜ъ╕░
  66:Core/Src/drive.c ****  * (ьДаьаЬ ьаЬыПЩ ъ▓МьЭ┤эК╕). ыЛиьЭ╝ ьЫМыУЬыЭ╝ ьЫРьЮРьаБ тАФ ъ░АьЛЬьД▒ызМ ы│┤ьЮеэХШый┤ ыРи */
  67:Core/Src/drive.c **** static volatile DriveState st = DS_CRUISE;
  68:Core/Src/drive.c **** static uint32_t   t_state  = 0;    /* эШДьЮм ьГБэГЬ ьзДьЮЕ ьЛЬъ░Б */
  69:Core/Src/drive.c **** static uint8_t    turn_dir = 0;    /* 0=ьвМ 1=ьЪ░ */
  70:Core/Src/drive.c **** static uint8_t    swap_cnt = 0;    /* ьЭ┤ы▓И SPINьЧРьДЬ ы░йэЦе flip эЪЯьИШ */
  71:Core/Src/drive.c **** static uint8_t    rev_cnt  = 0;    /* CRUISE ы│╡ъ╖А ьЧЖьЭ┤ ыИДьаБыРЬ эЫДьзД chunk (CRUISE ьзДьЮЕ ьЛ
  72:Core/Src/drive.c **** static uint8_t    clear_cnt = 0;   /* ьаХый┤ эК╕ьЮД ьЧ░ьЖН(ьЬаэЪи ь╕бьаХ) ь╣┤ьЪ┤эК╕ */
  73:Core/Src/drive.c **** static uint8_t    front_near_cnt = 0; /* [req1] ъ╖╕ыаИьЭ┤ьзХ ьХДыЛМ ьаХый┤ъ╖╝ьаС ьЧ░ьЖН ь╣┤ьЪ┤эК╕ т
  74:Core/Src/drive.c **** static float      h_entry  = 0.0f; /* SPIN ьзДьЮЕ heading (эЪМьаДъ░Б ъ▓МьЭ┤эК╕/ып╕ыЯм ъ╕░ьдА) */
  75:Core/Src/drive.c **** static float      h_ref    = 0.0f; /* heading-hold ъ╕░ьдА */
  76:Core/Src/drive.c **** static float      h_stuck  = 0.0f; /* ьКдэД▒ ъ░РьзА ьЬИыПД ьЛЬьЮС heading */
  77:Core/Src/drive.c **** static uint32_t   t_stuck  = 0;
  78:Core/Src/drive.c **** static float      steer_u  = 0.0f; /* slew ьЧ░ьЖНьД▒ьЪй ьзБьаД ьб░эЦеыЯЙ */
  79:Core/Src/drive.c **** static float      side_set = 0.0f; /* эХЬы▓╜ ыкиыУЬ ыкйэСЬъ▒░ыжм */
  80:Core/Src/drive.c **** static uint8_t    steer_mode = SM_INIT;
  81:Core/Src/drive.c **** static uint8_t    center_reset = 1U;
  82:Core/Src/drive.c **** static float      h_prev   = 0.0f; /* yaw-rate DэХн: ьзБьаД heading */
  83:Core/Src/drive.c **** static uint32_t   t_prev   = 0;    /* yaw-rate DэХн: ьзБьаД ьЛЬъ░Б */
  84:Core/Src/drive.c **** /* DS_CORNER(ьХДэБм) ы╢АэЩЬэХШыРШ ьГБэГЬыКФ ым┤ьГБэГЬ(h_entry/clear_cnt ьЮмьВмьЪй) тАФ ъ╡м ьЧньг╝эЦ
  85:Core/Src/drive.c ****  * (course_heading/course_valid/rev_latched/t_corner_exit)ыКФ ы╢ИьЪФыЭ╝ ып╕ы│╡ьЫР */
  86:Core/Src/drive.c **** 
  87:Core/Src/drive.c **** /* ьЮДьЭШ ъ░БыПДь░и тЖТ (-180, 180]. ьЮЕыаеьЭА 0~360 ъ░ТыУдьЭШ ь░иыЭ╝ ыгиэФДыКФ 1~2эЪМыбЬ ьвЕыгМ */
ARM GAS  C:\Users\user\AppData\Local\Temp\ccEq0Nch.s 			page 3


  88:Core/Src/drive.c **** static float wrap180(float a)
  89:Core/Src/drive.c **** {
  29              		.loc 1 89 1 view -0
  30              		.cfi_startproc
  31              		@ args = 0, pretend = 0, frame = 0
  32              		@ frame_needed = 0, uses_anonymous_args = 0
  33              		@ link register save eliminated.
  90:Core/Src/drive.c ****     while (a >   180.0f) a -= 360.0f;
  34              		.loc 1 90 5 view .LVU1
  35              		.loc 1 90 11 is_stmt 0 view .LVU2
  36 0000 03E0     		b	.L2
  37              	.L3:
  38              		.loc 1 90 26 is_stmt 1 discriminator 2 view .LVU3
  39              		.loc 1 90 28 is_stmt 0 discriminator 2 view .LVU4
  40 0002 DFED0C7A 		vldr.32	s15, .L6
  41 0006 30EE670A 		vsub.f32	s0, s0, s15
  42              	.LVL1:
  43              	.L2:
  44              		.loc 1 90 14 is_stmt 1 discriminator 1 view .LVU5
  45 000a DFED0B7A 		vldr.32	s15, .L6+4
  46 000e B4EEE70A 		vcmpe.f32	s0, s15
  47 0012 F1EE10FA 		vmrs	APSR_nzcv, FPSCR
  48 0016 F4DC     		bgt	.L3
  49 0018 03E0     		b	.L4
  50              	.L5:
  91:Core/Src/drive.c ****     while (a <= -180.0f) a += 360.0f;
  51              		.loc 1 91 26 discriminator 2 view .LVU6
  52              		.loc 1 91 28 is_stmt 0 discriminator 2 view .LVU7
  53 001a DFED067A 		vldr.32	s15, .L6
  54 001e 30EE270A 		vadd.f32	s0, s0, s15
  55              	.LVL2:
  56              	.L4:
  57              		.loc 1 91 14 is_stmt 1 discriminator 1 view .LVU8
  58 0022 DFED067A 		vldr.32	s15, .L6+8
  59 0026 B4EEE70A 		vcmpe.f32	s0, s15
  60 002a F1EE10FA 		vmrs	APSR_nzcv, FPSCR
  61 002e F4D9     		bls	.L5
  92:Core/Src/drive.c ****     return a;
  62              		.loc 1 92 5 view .LVU9
  93:Core/Src/drive.c **** }
  63              		.loc 1 93 1 is_stmt 0 view .LVU10
  64 0030 7047     		bx	lr
  65              	.L7:
  66 0032 00BF     		.align	2
  67              	.L6:
  68 0034 0000B443 		.word	1135869952
  69 0038 00003443 		.word	1127481344
  70 003c 000034C3 		.word	-1020002304
  71              		.cfi_endproc
  72              	.LFE134:
  74              		.section	.text.clampf,"ax",%progbits
  75              		.align	1
  76              		.syntax unified
  77              		.thumb
  78              		.thumb_func
  80              	clampf:
  81              	.LVL3:
ARM GAS  C:\Users\user\AppData\Local\Temp\ccEq0Nch.s 			page 4


  82              	.LFB135:
  94:Core/Src/drive.c **** 
  95:Core/Src/drive.c **** static float clampf(float v, float lo, float hi)
  96:Core/Src/drive.c **** {
  83              		.loc 1 96 1 is_stmt 1 view -0
  84              		.cfi_startproc
  85              		@ args = 0, pretend = 0, frame = 0
  86              		@ frame_needed = 0, uses_anonymous_args = 0
  87              		@ link register save eliminated.
  97:Core/Src/drive.c ****     if (v < lo) return lo;
  88              		.loc 1 97 5 view .LVU12
  89              		.loc 1 97 8 is_stmt 0 view .LVU13
  90 0000 B4EEE00A 		vcmpe.f32	s0, s1
  91 0004 F1EE10FA 		vmrs	APSR_nzcv, FPSCR
  92 0008 05D4     		bmi	.L10
  98:Core/Src/drive.c ****     if (v > hi) return hi;
  93              		.loc 1 98 5 is_stmt 1 view .LVU14
  94              		.loc 1 98 8 is_stmt 0 view .LVU15
  95 000a B4EEC10A 		vcmpe.f32	s0, s2
  96 000e F1EE10FA 		vmrs	APSR_nzcv, FPSCR
  97 0012 03DC     		bgt	.L11
  98 0014 7047     		bx	lr
  99              	.L10:
  97:Core/Src/drive.c ****     if (v < lo) return lo;
 100              		.loc 1 97 24 discriminator 1 view .LVU16
 101 0016 B0EE600A 		vmov.f32	s0, s1
 102              	.LVL4:
  97:Core/Src/drive.c ****     if (v < lo) return lo;
 103              		.loc 1 97 24 discriminator 1 view .LVU17
 104 001a 7047     		bx	lr
 105              	.LVL5:
 106              	.L11:
 107              		.loc 1 98 24 discriminator 1 view .LVU18
 108 001c B0EE410A 		vmov.f32	s0, s2
 109              	.LVL6:
  99:Core/Src/drive.c ****     return v;
 100:Core/Src/drive.c **** }
 110              		.loc 1 100 1 view .LVU19
 111 0020 7047     		bx	lr
 112              		.cfi_endproc
 113              	.LFE135:
 115              		.section	.text.center_sanitize_cm,"ax",%progbits
 116              		.align	1
 117              		.syntax unified
 118              		.thumb
 119              		.thumb_func
 121              	center_sanitize_cm:
 122              	.LVL7:
 123              	.LFB136:
 101:Core/Src/drive.c **** 
 102:Core/Src/drive.c **** static uint16_t center_sanitize_cm(uint16_t cm)
 103:Core/Src/drive.c **** {
 124              		.loc 1 103 1 is_stmt 1 view -0
 125              		.cfi_startproc
 126              		@ args = 0, pretend = 0, frame = 0
 127              		@ frame_needed = 0, uses_anonymous_args = 0
 128              		@ link register save eliminated.
ARM GAS  C:\Users\user\AppData\Local\Temp\ccEq0Nch.s 			page 5


 104:Core/Src/drive.c ****     if (cm == 0U) return CENTER_SENSOR_MAX_CM;
 129              		.loc 1 104 5 view .LVU21
 130              		.loc 1 104 8 is_stmt 0 view .LVU22
 131 0000 10B1     		cbz	r0, .L14
 105:Core/Src/drive.c ****     if (cm > CENTER_SENSOR_MAX_CM) return CENTER_SENSOR_MAX_CM;
 132              		.loc 1 105 5 is_stmt 1 view .LVU23
 133              		.loc 1 105 8 is_stmt 0 view .LVU24
 134 0002 5028     		cmp	r0, #80
 135 0004 02D8     		bhi	.L15
 136 0006 7047     		bx	lr
 137              	.L14:
 104:Core/Src/drive.c ****     if (cm == 0U) return CENTER_SENSOR_MAX_CM;
 138              		.loc 1 104 26 discriminator 1 view .LVU25
 139 0008 5020     		movs	r0, #80
 140              	.LVL8:
 104:Core/Src/drive.c ****     if (cm == 0U) return CENTER_SENSOR_MAX_CM;
 141              		.loc 1 104 26 discriminator 1 view .LVU26
 142 000a 7047     		bx	lr
 143              	.LVL9:
 144              	.L15:
 145              		.loc 1 105 43 discriminator 1 view .LVU27
 146 000c 5020     		movs	r0, #80
 147              	.LVL10:
 106:Core/Src/drive.c ****     return cm;
 107:Core/Src/drive.c **** }
 148              		.loc 1 107 1 view .LVU28
 149 000e 7047     		bx	lr
 150              		.cfi_endproc
 151              	.LFE136:
 153              		.section	.text.center_avg_u16,"ax",%progbits
 154              		.align	1
 155              		.syntax unified
 156              		.thumb
 157              		.thumb_func
 159              	center_avg_u16:
 160              	.LVL11:
 161              	.LFB137:
 108:Core/Src/drive.c **** 
 109:Core/Src/drive.c **** static float center_avg_u16(const uint16_t *buf, uint8_t n)
 110:Core/Src/drive.c **** {
 162              		.loc 1 110 1 is_stmt 1 view -0
 163              		.cfi_startproc
 164              		@ args = 0, pretend = 0, frame = 0
 165              		@ frame_needed = 0, uses_anonymous_args = 0
 166              		@ link register save eliminated.
 111:Core/Src/drive.c ****     uint32_t sum = 0U;
 167              		.loc 1 111 5 view .LVU30
 112:Core/Src/drive.c **** 
 113:Core/Src/drive.c ****     for (uint8_t i = 0U; i < n; i++)
 168              		.loc 1 113 5 view .LVU31
 169              	.LBB2:
 170              		.loc 1 113 10 view .LVU32
 171              		.loc 1 113 18 is_stmt 0 view .LVU33
 172 0000 0023     		movs	r3, #0
 173              	.LBE2:
 111:Core/Src/drive.c ****     uint32_t sum = 0U;
 174              		.loc 1 111 14 view .LVU34
ARM GAS  C:\Users\user\AppData\Local\Temp\ccEq0Nch.s 			page 6


 175 0002 1A46     		mov	r2, r3
 176              	.LBB3:
 177              		.loc 1 113 5 view .LVU35
 178 0004 04E0     		b	.L17
 179              	.LVL12:
 180              	.L18:
 114:Core/Src/drive.c ****         sum += buf[i];
 181              		.loc 1 114 9 is_stmt 1 view .LVU36
 182              		.loc 1 114 19 is_stmt 0 view .LVU37
 183 0006 30F813C0 		ldrh	ip, [r0, r3, lsl #1]
 184              		.loc 1 114 13 view .LVU38
 185 000a 6244     		add	r2, r2, ip
 186              	.LVL13:
 113:Core/Src/drive.c ****         sum += buf[i];
 187              		.loc 1 113 34 is_stmt 1 discriminator 3 view .LVU39
 188 000c 0133     		adds	r3, r3, #1
 189              	.LVL14:
 113:Core/Src/drive.c ****         sum += buf[i];
 190              		.loc 1 113 34 is_stmt 0 discriminator 3 view .LVU40
 191 000e DBB2     		uxtb	r3, r3
 192              	.LVL15:
 193              	.L17:
 113:Core/Src/drive.c ****         sum += buf[i];
 194              		.loc 1 113 28 is_stmt 1 discriminator 1 view .LVU41
 195 0010 8B42     		cmp	r3, r1
 196 0012 F8D3     		bcc	.L18
 197              	.LBE3:
 115:Core/Src/drive.c **** 
 116:Core/Src/drive.c ****     return (float)sum / (float)n;
 198              		.loc 1 116 5 view .LVU42
 199              		.loc 1 116 12 is_stmt 0 view .LVU43
 200 0014 07EE902A 		vmov	s15, r2	@ int
 201 0018 F8EE677A 		vcvt.f32.u32	s15, s15
 202              		.loc 1 116 25 view .LVU44
 203 001c 07EE101A 		vmov	s14, r1	@ int
 204 0020 B8EE470A 		vcvt.f32.u32	s0, s14
 117:Core/Src/drive.c **** }
 205              		.loc 1 117 1 view .LVU45
 206 0024 87EE800A 		vdiv.f32	s0, s15, s0
 207 0028 7047     		bx	lr
 208              		.cfi_endproc
 209              	.LFE137:
 211              		.section	.text.enter,"ax",%progbits
 212              		.align	1
 213              		.syntax unified
 214              		.thumb
 215              		.thumb_func
 217              	enter:
 218              	.LVL16:
 219              	.LFB139:
 118:Core/Src/drive.c **** 
 119:Core/Src/drive.c **** static void Drive_CenteringPD_Run(const DriveInputs *in)
 120:Core/Src/drive.c **** {
 121:Core/Src/drive.c ****     static uint16_t l_buf[CENTER_MA_WIN];
 122:Core/Src/drive.c ****     static uint16_t r_buf[CENTER_MA_WIN];
 123:Core/Src/drive.c ****     static uint8_t  idx = 0U;
 124:Core/Src/drive.c ****     static uint8_t  count = 0U;
ARM GAS  C:\Users\user\AppData\Local\Temp\ccEq0Nch.s 			page 7


 125:Core/Src/drive.c ****     static float    prev_error = 0.0f;
 126:Core/Src/drive.c ****     static uint32_t prev_ms = 0U;
 127:Core/Src/drive.c ****     static float    steer_prev = 0.0f;
 128:Core/Src/drive.c **** 
 129:Core/Src/drive.c ****     if (center_reset)
 130:Core/Src/drive.c ****     {
 131:Core/Src/drive.c ****         idx = 0U;
 132:Core/Src/drive.c ****         count = 0U;
 133:Core/Src/drive.c ****         prev_error = 0.0f;
 134:Core/Src/drive.c ****         prev_ms = 0U;
 135:Core/Src/drive.c ****         steer_prev = 0.0f;
 136:Core/Src/drive.c ****         h_ref = in->heading;
 137:Core/Src/drive.c ****         h_prev = in->heading;
 138:Core/Src/drive.c ****         center_reset = 0U;
 139:Core/Src/drive.c ****     }
 140:Core/Src/drive.c **** 
 141:Core/Src/drive.c ****     l_buf[idx] = center_sanitize_cm(in->l);
 142:Core/Src/drive.c ****     r_buf[idx] = center_sanitize_cm(in->r);
 143:Core/Src/drive.c **** 
 144:Core/Src/drive.c ****     idx = (uint8_t)((idx + 1U) % CENTER_MA_WIN);
 145:Core/Src/drive.c ****     if (count < CENTER_MA_WIN)
 146:Core/Src/drive.c ****         count++;
 147:Core/Src/drive.c **** 
 148:Core/Src/drive.c ****     float left_cm  = center_avg_u16(l_buf, count);
 149:Core/Src/drive.c ****     float right_cm = center_avg_u16(r_buf, count);
 150:Core/Src/drive.c ****     float error = left_cm - right_cm;
 151:Core/Src/drive.c **** 
 152:Core/Src/drive.c ****     /* ьХДэБм ы╕ФыаМыУЬ эПРьзА(эФ╝ы▓Ч ьг╝эЦЙ): ьб░эЦе ьГБэХЬ ъ│аьаХ = ьИЬьИШ ьД╝эД░ызБ. ь╜ФыДИыКФ c
 153:Core/Src/drive.c ****     float steer_max = CENTER_STEER_MAX_PCT;
 154:Core/Src/drive.c **** 
 155:Core/Src/drive.c ****     /* ---- ь┤ИьЭМэММ ь╕бьаХ ып╕ы╢Д: ыН░ыУЬьб┤ ым┤ъ┤А ызд ыгиэФД ьЧ░ьЖН ып╕ы╢Д (derivative-kick ь░и
 156:Core/Src/drive.c ****     float dt = 0.02f;
 157:Core/Src/drive.c ****     if (prev_ms != 0U && in->now > prev_ms)
 158:Core/Src/drive.c ****         dt = clampf((float)(in->now - prev_ms) / 1000.0f, 0.005f, 0.100f);
 159:Core/Src/drive.c **** 
 160:Core/Src/drive.c ****     float d_error = (prev_ms == 0U) ? 0.0f : (error - prev_error) / dt;  /* ь▓л ыгиэФД тЖТ 0 */
 161:Core/Src/drive.c **** 
 162:Core/Src/drive.c ****     /* ---- ь░иь▓┤ ъ░БьЖНыПД(IMU ьЮРьЭ┤ыбЬ ьаБы╢Дъ╕░ы░Ш): wrap180(heading-h_prev)/dt, CW(ьЪ░)=+ (db
 163:Core/Src/drive.c ****     float yaw_rate = (in->imu_live && prev_ms != 0U)
 164:Core/Src/drive.c ****                    ? wrap180(in->heading - h_prev) / dt
 165:Core/Src/drive.c ****                    : 0.0f;
 166:Core/Src/drive.c **** 
 167:Core/Src/drive.c ****     /* ьГБэГЬ ьЧ░ьЖН ъ░▒ьЛа (ып╕ы╢Д ьЧ░ьЖНьД▒) тАФ ыН░ыУЬьб┤/ыкиыУЬ ым┤ъ┤АэХШъ▓М эХньГБ */
 168:Core/Src/drive.c ****     prev_error = error;
 169:Core/Src/drive.c ****     prev_ms    = in->now;
 170:Core/Src/drive.c ****     h_prev     = in->heading;
 171:Core/Src/drive.c **** 
 172:Core/Src/drive.c ****     /* ---- ыкиыУЬ ьДаэГЭ: ьЦСы▓╜ ы│┤ьЭ┤ый┤ ьД╝эД░ызБ, эХЬьк╜ьЭ┤ыЭ╝ыПД ьГБьЛд(ым┤ьЧРь╜Ф=ьД╝эЛ░ыДм)ь
 173:Core/Src/drive.c ****        center_sanitize_cmъ░А ым┤ьЧРь╜Ф/ьКдэММьЭ┤эБм(0 ыШРыКФ >MAX)ые╝ MAXыбЬ эБ┤ыЮиэФД тЖТ 'MAX ып╕
 174:Core/Src/drive.c ****     uint8_t left_seen  = (left_cm  < (float)CENTER_SENSOR_MAX_CM);
 175:Core/Src/drive.c ****     uint8_t right_seen = (right_cm < (float)CENTER_SENSOR_MAX_CM);
 176:Core/Src/drive.c **** 
 177:Core/Src/drive.c ****     float   steer;
 178:Core/Src/drive.c ****     uint8_t mode;
 179:Core/Src/drive.c **** 
 180:Core/Src/drive.c ****     if (left_seen && right_seen)
 181:Core/Src/drive.c ****     {
ARM GAS  C:\Users\user\AppData\Local\Temp\ccEq0Nch.s 			page 8


 182:Core/Src/drive.c ****         /* ьЦСы▓╜ ьД╝эД░ызБ: ыН░ыУЬьб┤ьЭА ь╢ЬыаеыЛиьЧРьДЬызМ ъ▓МьЭ┤эК╕(P+D=0), ып╕ы╢Д ьЭ┤ыаеьЭА ьЬД
 183:Core/Src/drive.c ****         mode  = SM_BOTH;
 184:Core/Src/drive.c ****         steer = (fabsf(error) <= CENTER_DEADZONE_CM)
 185:Core/Src/drive.c ****               ? 0.0f
 186:Core/Src/drive.c ****               : (CENTER_KP * error) + (CENTER_KD * d_error);
 187:Core/Src/drive.c ****     }
 188:Core/Src/drive.c ****     else if (in->imu_live)
 189:Core/Src/drive.c ****     {
 190:Core/Src/drive.c ****         /* эХЬьк╜ ы▓╜ ьГБьЛд тЖТ ь┤ИьЭМэММ ьШдь░и ы▓Дыжмъ│а IMU heading-hold (ы▓╜ эКРьЧР ьЭШэХЬ ъ╕Й
 191:Core/Src/drive.c ****            ы╢АэШ╕: steer>0=ьвМ(CCW), heading=CW+ тЖТ heading>h_ref(ьЪ░ыбЬ ы░Аыж╝)ый┤ steer>0(ьвМыбЬ
 192:Core/Src/drive.c ****         mode  = SM_HDG;
 193:Core/Src/drive.c ****         steer = KP_HDG * wrap180(in->heading - h_ref);
 194:Core/Src/drive.c ****     }
 195:Core/Src/drive.c ****     else
 196:Core/Src/drive.c ****     {
 197:Core/Src/drive.c ****         /* ы▓╜ ьГБьЛд + IMU ьВмызЭ тЖТ ъ╕░ьдА ьЧЖьЭМ тЖТ open-loop ьзБьзД */
 198:Core/Src/drive.c ****         mode  = SM_OPEN;
 199:Core/Src/drive.c ****         steer = 0.0f;
 200:Core/Src/drive.c ****     }
 201:Core/Src/drive.c **** 
 202:Core/Src/drive.c ****     /* ---- Yaw-rate ыМРэХС (ьЭМьЭШ эФ╝ыУЬы░▒): ыкиыУЬ ым┤ъ┤А, imu_liveьЭ╝ ыХМызМ ----
 203:Core/Src/drive.c ****        steer>0=ьвМ(CCW)тЖТheading ъ░РьЖМ(CW+). ьЛдьаЬ эЪМьаД yaw_rate(CW+)ые╝ ьГБьЗДэХШыадый┤ ыПЩы╢
 204:Core/Src/drive.c ****        yaw_rate>0(ьЪ░ыбЬ эЪМьаД ьдС)тЖТ steer += (ьвМыбЬ ы│┤ьаХ). тИ┤ ьЭ┤ ыаИэПм ы╢АэШ╕ъ│ДьЧРьДа '+
 205:Core/Src/drive.c ****        ыЕ╕ьЭ┤ьжИ эБ░ ь┤ИьЭМэММ D(CENTER_KD) ы╣ДьдСтЖУ, ьЮРьЭ┤ыбЬъ░А ьжЙъ░Б ъ░РьЗа ыЛ┤ыЛ╣ */
 206:Core/Src/drive.c ****     if (in->imu_live)
 207:Core/Src/drive.c ****         steer += KD_YAW * yaw_rate;
 208:Core/Src/drive.c **** 
 209:Core/Src/drive.c ****     steer = clampf(steer, -steer_max, steer_max);
 210:Core/Src/drive.c **** 
 211:Core/Src/drive.c ****     /* ьб░эЦе ы│АэЩФьЬи ьаЬэХЬ(slew): ыгиэФДыЛ╣ ┬▒CENTER_STEER_SLEW_PCT ьЭ┤ыВ┤ыбЬызМ ы│АэХи тЖТ ьвМ
 212:Core/Src/drive.c ****        ыН░ыУЬы░┤ыУЬыбЬ 0ьЭ┤ ыРа ыХМыПД ъ╕Йъ░ХэХШ ыМАьЛа ьДЬьДЬэЮИ ы│╡ъ╖А тЖТ ьзБьзД/ьвБьЭАъ╕╕ ы╢АыУ
 213:Core/Src/drive.c ****     {
 214:Core/Src/drive.c ****         steer = clampf(steer, steer_prev - CENTER_STEER_SLEW_PCT, steer_prev + CENTER_STEER_SLEW_PC
 215:Core/Src/drive.c ****         steer_prev = steer;
 216:Core/Src/drive.c ****     }
 217:Core/Src/drive.c **** 
 218:Core/Src/drive.c ****     /* ьЖНыПД: ьб░эЦеыЯЙ ы╣ДыбА ъ░РьЖНызМ (ьаДы░йъ╖╝ьаС fc ъ░РьЖН эПРьзА тАФ ь╜ФыДИ ьаХьзАыКФ cruis
 219:Core/Src/drive.c ****     float steer_ratio = fabsf(steer) / steer_max;   /* steer_max=10>0 */
 220:Core/Src/drive.c ****     float base = CENTER_BASE_SPEED_PCT
 221:Core/Src/drive.c ****                - ((CENTER_BASE_SPEED_PCT - CENTER_MIN_SPEED_PCT) * steer_ratio);
 222:Core/Src/drive.c ****     base = clampf(base, CENTER_MIN_SPEED_PCT, CENTER_BASE_SPEED_PCT);
 223:Core/Src/drive.c **** 
 224:Core/Src/drive.c ****     float lt = clampf(base - steer + (float)MOTOR_TRIM_PCT, 0.0f, 100.0f);   /* ьХИьк╜ ы░ФыЛе 0 = ь
 225:Core/Src/drive.c ****     float rt = clampf(base + steer - (float)MOTOR_TRIM_PCT, 0.0f, 100.0f);
 226:Core/Src/drive.c **** 
 227:Core/Src/drive.c ****     Motor_Left((int8_t)(lt + 0.5f));
 228:Core/Src/drive.c ****     Motor_Right((int8_t)(rt + 0.5f));
 229:Core/Src/drive.c **** 
 230:Core/Src/drive.c ****     dbg_steer      = steer;
 231:Core/Src/drive.c ****     dbg_steer_mode = mode;
 232:Core/Src/drive.c ****     dbg_yaw_rate   = yaw_rate;
 233:Core/Src/drive.c ****     dbg_hdg_err    = wrap180(in->heading - h_ref);
 234:Core/Src/drive.c ****     dbg_duty_l     = (int16_t)(lt + 0.5f);
 235:Core/Src/drive.c ****     dbg_duty_r     = (int16_t)(rt + 0.5f);
 236:Core/Src/drive.c **** }
 237:Core/Src/drive.c **** 
 238:Core/Src/drive.c **** /* ---- ьГБэГЬ ьзДьЮЕ эЧмэН╝ (ьзДьЮЕ ьХбьЕШ + эГАьЮДьКдэГмэФД) ---- */
ARM GAS  C:\Users\user\AppData\Local\Temp\ccEq0Nch.s 			page 9


 239:Core/Src/drive.c **** 
 240:Core/Src/drive.c **** static void enter(DriveState s, uint32_t now)
 241:Core/Src/drive.c **** {
 220              		.loc 1 241 1 is_stmt 1 view -0
 221              		.cfi_startproc
 222              		@ args = 0, pretend = 0, frame = 0
 223              		@ frame_needed = 0, uses_anonymous_args = 0
 224              		@ link register save eliminated.
 242:Core/Src/drive.c ****     st = s;
 225              		.loc 1 242 5 view .LVU47
 226              		.loc 1 242 8 is_stmt 0 view .LVU48
 227 0000 024B     		ldr	r3, .L20
 228 0002 1870     		strb	r0, [r3]
 243:Core/Src/drive.c ****     t_state = now;
 229              		.loc 1 243 5 is_stmt 1 view .LVU49
 230              		.loc 1 243 13 is_stmt 0 view .LVU50
 231 0004 024B     		ldr	r3, .L20+4
 232 0006 1960     		str	r1, [r3]
 244:Core/Src/drive.c **** }
 233              		.loc 1 244 1 view .LVU51
 234 0008 7047     		bx	lr
 235              	.L21:
 236 000a 00BF     		.align	2
 237              	.L20:
 238 000c 00000000 		.word	st
 239 0010 00000000 		.word	t_state
 240              		.cfi_endproc
 241              	.LFE139:
 243              		.section	.text.cruise_enter,"ax",%progbits
 244              		.align	1
 245              		.syntax unified
 246              		.thumb
 247              		.thumb_func
 249              	cruise_enter:
 250              	.LVL17:
 251              	.LFB140:
 245:Core/Src/drive.c **** 
 246:Core/Src/drive.c **** static void cruise_enter(const DriveInputs *in)
 247:Core/Src/drive.c **** {
 252              		.loc 1 247 1 is_stmt 1 view -0
 253              		.cfi_startproc
 254              		@ args = 0, pretend = 0, frame = 0
 255              		@ frame_needed = 0, uses_anonymous_args = 0
 256              		.loc 1 247 1 is_stmt 0 view .LVU53
 257 0000 08B5     		push	{r3, lr}
 258              	.LCFI0:
 259              		.cfi_def_cfa_offset 8
 260              		.cfi_offset 3, -8
 261              		.cfi_offset 14, -4
 262 0002 0346     		mov	r3, r0
 248:Core/Src/drive.c ****     h_ref      = in->heading;   /* ым┤ы▓╜ ъ╡мъ░Д ьзБьзД ъ╕░ьдА тАФ эЪМэФ╝ ьзБэЫДьЭШ ьГИ ьзДэЦЙы░йэЦ
 263              		.loc 1 248 5 is_stmt 1 view .LVU54
 264              		.loc 1 248 20 is_stmt 0 view .LVU55
 265 0004 8268     		ldr	r2, [r0, #8]	@ float
 266              		.loc 1 248 16 view .LVU56
 267 0006 0C49     		ldr	r1, .L24
 268 0008 0A60     		str	r2, [r1]	@ float
ARM GAS  C:\Users\user\AppData\Local\Temp\ccEq0Nch.s 			page 10


 249:Core/Src/drive.c ****     steer_u    = 0.0f;
 269              		.loc 1 249 5 is_stmt 1 view .LVU57
 270              		.loc 1 249 16 is_stmt 0 view .LVU58
 271 000a 0C49     		ldr	r1, .L24+4
 272 000c 0020     		movs	r0, #0
 273              	.LVL18:
 274              		.loc 1 249 16 view .LVU59
 275 000e 0860     		str	r0, [r1]	@ float
 250:Core/Src/drive.c ****     steer_mode = SM_INIT;
 276              		.loc 1 250 5 is_stmt 1 view .LVU60
 277              		.loc 1 250 16 is_stmt 0 view .LVU61
 278 0010 0B49     		ldr	r1, .L24+8
 279 0012 FF20     		movs	r0, #255
 280 0014 0870     		strb	r0, [r1]
 251:Core/Src/drive.c ****     center_reset = 1U;
 281              		.loc 1 251 5 is_stmt 1 view .LVU62
 282              		.loc 1 251 18 is_stmt 0 view .LVU63
 283 0016 0B49     		ldr	r1, .L24+12
 284 0018 0120     		movs	r0, #1
 285 001a 0870     		strb	r0, [r1]
 252:Core/Src/drive.c ****     rev_cnt    = 0;
 286              		.loc 1 252 5 is_stmt 1 view .LVU64
 287              		.loc 1 252 16 is_stmt 0 view .LVU65
 288 001c 0020     		movs	r0, #0
 289 001e 0A49     		ldr	r1, .L24+16
 290 0020 0870     		strb	r0, [r1]
 253:Core/Src/drive.c ****     front_near_cnt = 0;
 291              		.loc 1 253 5 is_stmt 1 view .LVU66
 292              		.loc 1 253 20 is_stmt 0 view .LVU67
 293 0022 0A49     		ldr	r1, .L24+20
 294 0024 0870     		strb	r0, [r1]
 254:Core/Src/drive.c ****     h_prev     = in->heading;   /* yaw-rate ыжмьЕЛ: эЪМэФ╝ ы│╡ъ╖А ьзБэЫД stale headingь░иыбЬ ьКдэММ
 295              		.loc 1 254 5 is_stmt 1 view .LVU68
 296              		.loc 1 254 16 is_stmt 0 view .LVU69
 297 0026 0A49     		ldr	r1, .L24+24
 298 0028 0A60     		str	r2, [r1]	@ float
 255:Core/Src/drive.c ****     t_prev     = in->now;
 299              		.loc 1 255 5 is_stmt 1 view .LVU70
 300              		.loc 1 255 20 is_stmt 0 view .LVU71
 301 002a 1969     		ldr	r1, [r3, #16]
 302              		.loc 1 255 16 view .LVU72
 303 002c 094B     		ldr	r3, .L24+28
 304              	.LVL19:
 305              		.loc 1 255 16 view .LVU73
 306 002e 1960     		str	r1, [r3]
 256:Core/Src/drive.c ****     enter(DS_CRUISE, in->now);
 307              		.loc 1 256 5 is_stmt 1 view .LVU74
 308 0030 FFF7FEFF 		bl	enter
 309              	.LVL20:
 257:Core/Src/drive.c **** }
 310              		.loc 1 257 1 is_stmt 0 view .LVU75
 311 0034 08BD     		pop	{r3, pc}
 312              	.L25:
 313 0036 00BF     		.align	2
 314              	.L24:
 315 0038 00000000 		.word	h_ref
 316 003c 00000000 		.word	steer_u
ARM GAS  C:\Users\user\AppData\Local\Temp\ccEq0Nch.s 			page 11


 317 0040 00000000 		.word	steer_mode
 318 0044 00000000 		.word	center_reset
 319 0048 00000000 		.word	rev_cnt
 320 004c 00000000 		.word	front_near_cnt
 321 0050 00000000 		.word	h_prev
 322 0054 00000000 		.word	t_prev
 323              		.cfi_endproc
 324              	.LFE140:
 326              		.section	.text.spin_enter,"ax",%progbits
 327              		.align	1
 328              		.syntax unified
 329              		.thumb
 330              		.thumb_func
 332              	spin_enter:
 333              	.LVL21:
 334              	.LFB142:
 258:Core/Src/drive.c **** 
 259:Core/Src/drive.c **** static void brake_enter(const DriveInputs *in)
 260:Core/Src/drive.c **** {
 261:Core/Src/drive.c ****     if (BRAKE_MS > 0) Car_Brake();   /* BRAKE_MS=0 тЖТ ыаИъ▒░ьЛЬ ь╜ФьКдэК╕ эП┤ы░▒ */
 262:Core/Src/drive.c ****     else              Car_Stop();
 263:Core/Src/drive.c ****     enter(DS_BRAKE, in->now);
 264:Core/Src/drive.c **** }
 265:Core/Src/drive.c **** 
 266:Core/Src/drive.c **** /* tie_flip: ьвМьЪ░ ьЪ░ьЧ┤ьЭ┤ SIDE_HYST ып╕ызМ(ыПЩыеа)ьЭ╝ ыХМ ьзБьаД ы░йэЦе ьЬаьзА(0) vs ы░ШыМАыбЬ(
 267:Core/Src/drive.c ****  * эЫДьзДьЭД ъ▒░ь│Р ыУдьЦ┤ьШдый┤ ы░ШыМАьк╜ьЭД ьЛЬыПДэХШыКФ ъ▓М эПмь╝У эГИь╢ЬьЧР ьЬаыжм */
 268:Core/Src/drive.c **** static void spin_enter(const DriveInputs *in, uint8_t tie_flip)
 269:Core/Src/drive.c **** {
 335              		.loc 1 269 1 is_stmt 1 view -0
 336              		.cfi_startproc
 337              		@ args = 0, pretend = 0, frame = 0
 338              		@ frame_needed = 0, uses_anonymous_args = 0
 339              		.loc 1 269 1 is_stmt 0 view .LVU77
 340 0000 08B5     		push	{r3, lr}
 341              	.LCFI1:
 342              		.cfi_def_cfa_offset 8
 343              		.cfi_offset 3, -8
 344              		.cfi_offset 14, -4
 270:Core/Src/drive.c ****     if      (in->l > in->r + SIDE_HYST) turn_dir = 0;   /* ьЩ╝ьк╜ьЭ┤ ыНФ эК╕ьЮД тЖТ ьвМэЪМьаД */
 345              		.loc 1 270 5 is_stmt 1 view .LVU78
 346              		.loc 1 270 16 is_stmt 0 view .LVU79
 347 0002 4388     		ldrh	r3, [r0, #2]
 348              		.loc 1 270 24 view .LVU80
 349 0004 8288     		ldrh	r2, [r0, #4]
 350              		.loc 1 270 28 view .LVU81
 351 0006 02F1050C 		add	ip, r2, #5
 352              		.loc 1 270 13 view .LVU82
 353 000a 6345     		cmp	r3, ip
 354 000c 13DD     		ble	.L27
 355              		.loc 1 270 41 is_stmt 1 discriminator 1 view .LVU83
 356              		.loc 1 270 50 is_stmt 0 discriminator 1 view .LVU84
 357 000e 114B     		ldr	r3, .L31
 358 0010 0022     		movs	r2, #0
 359 0012 1A70     		strb	r2, [r3]
 360              	.L28:
 271:Core/Src/drive.c ****     else if (in->r > in->l + SIDE_HYST) turn_dir = 1;
 272:Core/Src/drive.c ****     else if (tie_flip)                  turn_dir ^= 1;
ARM GAS  C:\Users\user\AppData\Local\Temp\ccEq0Nch.s 			page 12


 273:Core/Src/drive.c ****     swap_cnt  = 0;
 361              		.loc 1 273 5 is_stmt 1 view .LVU85
 362              		.loc 1 273 15 is_stmt 0 view .LVU86
 363 0014 0023     		movs	r3, #0
 364 0016 104A     		ldr	r2, .L31+4
 365 0018 1370     		strb	r3, [r2]
 274:Core/Src/drive.c ****     clear_cnt = 0;
 366              		.loc 1 274 5 is_stmt 1 view .LVU87
 367              		.loc 1 274 15 is_stmt 0 view .LVU88
 368 001a 104A     		ldr	r2, .L31+8
 369 001c 1370     		strb	r3, [r2]
 275:Core/Src/drive.c ****     h_entry = in->heading;
 370              		.loc 1 275 5 is_stmt 1 view .LVU89
 371              		.loc 1 275 17 is_stmt 0 view .LVU90
 372 001e 8368     		ldr	r3, [r0, #8]	@ float
 373              		.loc 1 275 13 view .LVU91
 374 0020 0F4A     		ldr	r2, .L31+12
 375 0022 1360     		str	r3, [r2]	@ float
 276:Core/Src/drive.c ****     h_stuck = in->heading;
 376              		.loc 1 276 5 is_stmt 1 view .LVU92
 377              		.loc 1 276 13 is_stmt 0 view .LVU93
 378 0024 0F4A     		ldr	r2, .L31+16
 379 0026 1360     		str	r3, [r2]	@ float
 277:Core/Src/drive.c ****     t_stuck = in->now;
 380              		.loc 1 277 5 is_stmt 1 view .LVU94
 381              		.loc 1 277 17 is_stmt 0 view .LVU95
 382 0028 0169     		ldr	r1, [r0, #16]
 383              	.LVL22:
 384              		.loc 1 277 13 view .LVU96
 385 002a 0F4B     		ldr	r3, .L31+20
 386 002c 1960     		str	r1, [r3]
 278:Core/Src/drive.c ****     enter(DS_SPIN, in->now);
 387              		.loc 1 278 5 is_stmt 1 view .LVU97
 388 002e 0220     		movs	r0, #2
 389              	.LVL23:
 390              		.loc 1 278 5 is_stmt 0 view .LVU98
 391 0030 FFF7FEFF 		bl	enter
 392              	.LVL24:
 279:Core/Src/drive.c **** }
 393              		.loc 1 279 1 view .LVU99
 394 0034 08BD     		pop	{r3, pc}
 395              	.LVL25:
 396              	.L27:
 271:Core/Src/drive.c ****     else if (tie_flip)                  turn_dir ^= 1;
 397              		.loc 1 271 10 is_stmt 1 view .LVU100
 271:Core/Src/drive.c ****     else if (tie_flip)                  turn_dir ^= 1;
 398              		.loc 1 271 28 is_stmt 0 view .LVU101
 399 0036 0533     		adds	r3, r3, #5
 271:Core/Src/drive.c ****     else if (tie_flip)                  turn_dir ^= 1;
 400              		.loc 1 271 13 view .LVU102
 401 0038 9A42     		cmp	r2, r3
 402 003a 03DD     		ble	.L29
 271:Core/Src/drive.c ****     else if (tie_flip)                  turn_dir ^= 1;
 403              		.loc 1 271 41 is_stmt 1 discriminator 1 view .LVU103
 271:Core/Src/drive.c ****     else if (tie_flip)                  turn_dir ^= 1;
 404              		.loc 1 271 50 is_stmt 0 discriminator 1 view .LVU104
 405 003c 054B     		ldr	r3, .L31
ARM GAS  C:\Users\user\AppData\Local\Temp\ccEq0Nch.s 			page 13


 406 003e 0122     		movs	r2, #1
 407 0040 1A70     		strb	r2, [r3]
 408 0042 E7E7     		b	.L28
 409              	.L29:
 272:Core/Src/drive.c ****     swap_cnt  = 0;
 410              		.loc 1 272 10 is_stmt 1 view .LVU105
 272:Core/Src/drive.c ****     swap_cnt  = 0;
 411              		.loc 1 272 13 is_stmt 0 view .LVU106
 412 0044 0029     		cmp	r1, #0
 413 0046 E5D0     		beq	.L28
 272:Core/Src/drive.c ****     swap_cnt  = 0;
 414              		.loc 1 272 41 is_stmt 1 discriminator 1 view .LVU107
 272:Core/Src/drive.c ****     swap_cnt  = 0;
 415              		.loc 1 272 50 is_stmt 0 discriminator 1 view .LVU108
 416 0048 024A     		ldr	r2, .L31
 417 004a 1378     		ldrb	r3, [r2]	@ zero_extendqisi2
 418 004c 83F00103 		eor	r3, r3, #1
 419 0050 1370     		strb	r3, [r2]
 420 0052 DFE7     		b	.L28
 421              	.L32:
 422              		.align	2
 423              	.L31:
 424 0054 00000000 		.word	turn_dir
 425 0058 00000000 		.word	swap_cnt
 426 005c 00000000 		.word	clear_cnt
 427 0060 00000000 		.word	h_entry
 428 0064 00000000 		.word	h_stuck
 429 0068 00000000 		.word	t_stuck
 430              		.cfi_endproc
 431              	.LFE142:
 433              		.section	.text.side_avoid_enter,"ax",%progbits
 434              		.align	1
 435              		.syntax unified
 436              		.thumb
 437              		.thumb_func
 439              	side_avoid_enter:
 440              	.LVL26:
 441              	.LFB145:
 280:Core/Src/drive.c **** 
 281:Core/Src/drive.c **** /* (corner_enter ьВньаЬ тАФ ьХДэБм ь╜ФыДИ эПРьзА. ь╜ФыДИ эЪМьаД ы░йэЦе ыЮШь╣ШыКФ spin_enterъ░А ыЛ┤ы
 282:Core/Src/drive.c **** 
 283:Core/Src/drive.c **** static void reverse_enter(const DriveInputs *in)
 284:Core/Src/drive.c **** {
 285:Core/Src/drive.c ****     Car_Backward(DRIVE_SPEED);
 286:Core/Src/drive.c ****     if (rev_cnt < 255) rev_cnt++;
 287:Core/Src/drive.c ****     enter(DS_REVERSE, in->now);
 288:Core/Src/drive.c **** }
 289:Core/Src/drive.c **** 
 290:Core/Src/drive.c **** static void hold_enter(const DriveInputs *in)
 291:Core/Src/drive.c **** {
 292:Core/Src/drive.c ****     Car_Stop();   /* ьаХьзА ьГБэГЬ ьЬаьзАьЧФ ь╜ФьКдэК╕ыбЬ ь╢йы╢Д */
 293:Core/Src/drive.c ****     enter(DS_HOLD, in->now);
 294:Core/Src/drive.c **** }
 295:Core/Src/drive.c **** 
 296:Core/Src/drive.c **** /* ь╕бый┤ ы░Хъ╕░ьзБьаД: ыНФ ъ░Аъ╣МьЪ┤(ы░ХэЮМ) ьк╜ ы░ШыМАыбЬ эЪМьаДэХШыПДыбЭ ыЮШь╣Ш эЫД ьзДьЮЕ.
 297:Core/Src/drive.c ****  * l<r=ьвМы▓╜ ы░ХэЮШтЖТьЪ░эЪМьаД(turn_dir 1), r<l=ьЪ░ы▓╜ ы░ХэЮШтЖТьвМэЪМьаД(0), ыПЩыеа=ьзБьаД ьЬаьз
 298:Core/Src/drive.c **** static void side_avoid_enter(const DriveInputs *in)
ARM GAS  C:\Users\user\AppData\Local\Temp\ccEq0Nch.s 			page 14


 299:Core/Src/drive.c **** {
 442              		.loc 1 299 1 is_stmt 1 view -0
 443              		.cfi_startproc
 444              		@ args = 0, pretend = 0, frame = 0
 445              		@ frame_needed = 0, uses_anonymous_args = 0
 446              		.loc 1 299 1 is_stmt 0 view .LVU110
 447 0000 08B5     		push	{r3, lr}
 448              	.LCFI2:
 449              		.cfi_def_cfa_offset 8
 450              		.cfi_offset 3, -8
 451              		.cfi_offset 14, -4
 300:Core/Src/drive.c ****     if      (in->l < in->r) turn_dir = 1;   /* ьвМы▓╜ ъ░Аъ╣МьЫА тЖТ ьЪ░эЪМьаДьЬ╝ыбЬ ыйАьЦ┤ьзР */
 452              		.loc 1 300 5 is_stmt 1 view .LVU111
 453              		.loc 1 300 16 is_stmt 0 view .LVU112
 454 0002 4288     		ldrh	r2, [r0, #2]
 455              		.loc 1 300 24 view .LVU113
 456 0004 8388     		ldrh	r3, [r0, #4]
 457              		.loc 1 300 13 view .LVU114
 458 0006 9A42     		cmp	r2, r3
 459 0008 07D2     		bcs	.L34
 460              		.loc 1 300 29 is_stmt 1 discriminator 1 view .LVU115
 461              		.loc 1 300 38 is_stmt 0 discriminator 1 view .LVU116
 462 000a 074B     		ldr	r3, .L37
 463 000c 0122     		movs	r2, #1
 464 000e 1A70     		strb	r2, [r3]
 465              	.L35:
 301:Core/Src/drive.c ****     else if (in->r < in->l) turn_dir = 0;   /* ьЪ░ы▓╜ ъ░Аъ╣МьЫА тЖТ ьвМэЪМьаД */
 302:Core/Src/drive.c ****     enter(DS_SIDE_AVOID, in->now);
 466              		.loc 1 302 5 is_stmt 1 view .LVU117
 467 0010 0169     		ldr	r1, [r0, #16]
 468 0012 0520     		movs	r0, #5
 469              	.LVL27:
 470              		.loc 1 302 5 is_stmt 0 view .LVU118
 471 0014 FFF7FEFF 		bl	enter
 472              	.LVL28:
 303:Core/Src/drive.c **** }
 473              		.loc 1 303 1 view .LVU119
 474 0018 08BD     		pop	{r3, pc}
 475              	.LVL29:
 476              	.L34:
 301:Core/Src/drive.c ****     else if (in->r < in->l) turn_dir = 0;   /* ьЪ░ы▓╜ ъ░Аъ╣МьЫА тЖТ ьвМэЪМьаД */
 477              		.loc 1 301 10 is_stmt 1 view .LVU120
 301:Core/Src/drive.c ****     else if (in->r < in->l) turn_dir = 0;   /* ьЪ░ы▓╜ ъ░Аъ╣МьЫА тЖТ ьвМэЪМьаД */
 478              		.loc 1 301 13 is_stmt 0 view .LVU121
 479 001a 9A42     		cmp	r2, r3
 480 001c F8D9     		bls	.L35
 301:Core/Src/drive.c ****     else if (in->r < in->l) turn_dir = 0;   /* ьЪ░ы▓╜ ъ░Аъ╣МьЫА тЖТ ьвМэЪМьаД */
 481              		.loc 1 301 29 is_stmt 1 discriminator 1 view .LVU122
 301:Core/Src/drive.c ****     else if (in->r < in->l) turn_dir = 0;   /* ьЪ░ы▓╜ ъ░Аъ╣МьЫА тЖТ ьвМэЪМьаД */
 482              		.loc 1 301 38 is_stmt 0 discriminator 1 view .LVU123
 483 001e 024B     		ldr	r3, .L37
 484 0020 0022     		movs	r2, #0
 485 0022 1A70     		strb	r2, [r3]
 486 0024 F4E7     		b	.L35
 487              	.L38:
 488 0026 00BF     		.align	2
 489              	.L37:
ARM GAS  C:\Users\user\AppData\Local\Temp\ccEq0Nch.s 			page 15


 490 0028 00000000 		.word	turn_dir
 491              		.cfi_endproc
 492              	.LFE145:
 494              		.section	.text.front_graze_suspected,"ax",%progbits
 495              		.align	1
 496              		.syntax unified
 497              		.thumb
 498              		.thumb_func
 500              	front_graze_suspected:
 501              	.LVL30:
 502              	.LFB146:
 304:Core/Src/drive.c **** 
 305:Core/Src/drive.c **** /* [req1] ьаДый┤ ъ╖╝ьаСъ░Т(f<TURN)ьЭ┤ 'ь╕бы▓╜ ы╣Ф ъ╖╕ыаИьЭ┤ьзХ(ьвБьЭА ы│╡ыПД ы╣Ф ъ░ДьДн)'ьЬ╝ыбЬ ьДд
 306:Core/Src/drive.c ****  *
 307:Core/Src/drive.c ****  * ъ╕░эХШ ыкиыН╕: ьаДы░й ь┤ИьЭМэММ ы╣ФьЭА ы░Шъ░Б ╬╕_bьЭШ ьЫРы┐Ф. ь╕бы░йъ▒░ыжм w(=ь░иь▓┤ ьШЖ ы▓╜ъ╣Мь
 308:Core/Src/drive.c ****  * ь▓ШьЭМ ьЮбэЮИыКФ ьзАьаРьЭШ ьКмыЮЬэК╕(ы╣Чы│А) ъ▒░ыжмыКФ R_min = w / sin(╬╕_b) (ьаДы░йь╢Хъ▒░ыжм x=
 309:Core/Src/drive.c ****  * R=тИЪ(x┬▓+w┬▓)=w/sin╬╕_b). ьжЙ ь╕бы▓╜ ыЛиыПЕ ы░ШьВмыбЬыКФ R_min 'ьЭ┤ьГБ'ызМ ь╕бьаХ ъ░АыКе тЖТ
 310:Core/Src/drive.c ****  *   ┬╖ f тЙе w_near/sin(╬╕_b)  : ъ╖╝ьаС ь╕бы▓╜ ъ╖╕ыаИьЭ┤ьзХьЬ╝ыбЬ ьДдыкЕ ъ░АыКе = ъ░АьзЬ(ьаХый┤ы▓╜
 311:Core/Src/drive.c ****  *   ┬╖ f <  w_near/sin(╬╕_b) : ьЦ┤ыЦд ь╕бы▓╜ьЬ╝ыбЬыПД ык╗ ызМыУЬыКФ ыНФ ъ░Аъ╣МьЪ┤ ьЛдьаЬ эСЬьаБ = 
 312:Core/Src/drive.c ****  * ы╢АыПЩьЖМьИШ ыВШыИЧьЕИ эЪМэФ╝ ьЬДэХ┤ 'w_near тЙд f┬╖sin(╬╕_b)'ыбЬ ы│АэШХ(ыПЩь╣Ш).
 313:Core/Src/drive.c ****  *
 314:Core/Src/drive.c ****  * IMU ъ╡Рь░иъ▓АьжЭ: ь░иь▓┤ъ░А ы│╡ыПДь╢Х(h_ref)ьЧРьДЬ FRONT_OFFAXIS_DEG ыДШъ▓М эЛАьЦ┤ьзАый┤ ьаДы░йы
 315:Core/Src/drive.c ****  * ь╢ХьЭД ы▓ЧьЦ┤ыВШ ь╕бы▓╜ьЭД ьзБъ▓й тЖТ ъ╖╕ ьЮРь▓┤ыбЬ ъ╖╕ыаИьЭ┤ьзХ ьЭШьЛм(ъ╕░эХШ ъ▓МьЭ┤эК╕ ы│┤ьЩД)
 316:Core/Src/drive.c **** static uint8_t front_graze_suspected(const DriveInputs *in)
 317:Core/Src/drive.c **** {
 503              		.loc 1 317 1 is_stmt 1 view -0
 504              		.cfi_startproc
 505              		@ args = 0, pretend = 0, frame = 0
 506              		@ frame_needed = 0, uses_anonymous_args = 0
 318:Core/Src/drive.c ****     uint16_t w_near = (in->l < in->r) ? in->l : in->r;
 507              		.loc 1 318 5 view .LVU125
 508              		.loc 1 318 34 is_stmt 0 view .LVU126
 509 0000 8288     		ldrh	r2, [r0, #4]
 510              		.loc 1 318 26 view .LVU127
 511 0002 4188     		ldrh	r1, [r0, #2]
 512              		.loc 1 318 14 view .LVU128
 513 0004 8A42     		cmp	r2, r1
 514 0006 28BF     		it	cs
 515 0008 0A46     		movcs	r2, r1
 516              	.LVL31:
 319:Core/Src/drive.c **** 
 320:Core/Src/drive.c ****     /* ъ╕░эХШ ъ▓МьЭ┤эК╕: ъ╖╝ьаС ь╕бы▓╜ьЭ┤ эШДьЮм fые╝ ъ╖╕ыаИьЭ┤ьзХьЬ╝ыбЬ ызМыУд ьИШ ьЮИыКФ ъ▒░ыжмьЧ
 321:Core/Src/drive.c ****     if ((float)w_near <= (float)in->f * FRONT_BEAM_HALF_SIN)
 517              		.loc 1 321 5 is_stmt 1 view .LVU129
 518              		.loc 1 321 9 is_stmt 0 view .LVU130
 519 000a 07EE902A 		vmov	s15, r2	@ int
 520 000e B8EE677A 		vcvt.f32.u32	s14, s15
 521              		.loc 1 321 35 view .LVU131
 522 0012 0288     		ldrh	r2, [r0]
 523              	.LVL32:
 524              		.loc 1 321 35 view .LVU132
 525 0014 07EE902A 		vmov	s15, r2	@ int
 526              	.LVL33:
 527              		.loc 1 321 26 view .LVU133
 528 0018 F8EE677A 		vcvt.f32.u32	s15, s15
 529              		.loc 1 321 39 view .LVU134
 530 001c DFED126A 		vldr.32	s13, .L48
ARM GAS  C:\Users\user\AppData\Local\Temp\ccEq0Nch.s 			page 16


 531 0020 67EEA67A 		vmul.f32	s15, s15, s13
 532              		.loc 1 321 8 view .LVU135
 533 0024 B4EEE77A 		vcmpe.f32	s14, s15
 534 0028 F1EE10FA 		vmrs	APSR_nzcv, FPSCR
 535              	.LVL34:
 536              		.loc 1 321 8 view .LVU136
 537 002c 18D9     		bls	.L41
 317:Core/Src/drive.c ****     uint16_t w_near = (in->l < in->r) ? in->l : in->r;
 538              		.loc 1 317 1 view .LVU137
 539 002e 08B5     		push	{r3, lr}
 540              	.LCFI3:
 541              		.cfi_def_cfa_offset 8
 542              		.cfi_offset 3, -8
 543              		.cfi_offset 14, -4
 544 0030 0346     		mov	r3, r0
 322:Core/Src/drive.c ****         return 1U;
 323:Core/Src/drive.c **** 
 324:Core/Src/drive.c ****     /* IMU ъ▓МьЭ┤эК╕: ы│╡ыПДь╢Х ыМАы╣Д ъ│╝ыПД yaw тЖТ ьаДы░йы╣Ф ь╢ХьЭ┤эГИ тЖТ ь╕бы▓╜ ьзБъ▓й ьЭШьЛм 
 325:Core/Src/drive.c ****     if (in->imu_live && fabsf(wrap180(in->heading - h_ref)) > FRONT_OFFAXIS_DEG)
 545              		.loc 1 325 5 is_stmt 1 view .LVU138
 546              		.loc 1 325 11 is_stmt 0 view .LVU139
 547 0032 007B     		ldrb	r0, [r0, #12]	@ zero_extendqisi2
 548              	.LVL35:
 549              		.loc 1 325 8 view .LVU140
 550 0034 00B9     		cbnz	r0, .L47
 551              	.LVL36:
 552              	.L40:
 326:Core/Src/drive.c ****         return 1U;
 327:Core/Src/drive.c **** 
 328:Core/Src/drive.c ****     return 0U;   /* ыСР ъ▓МьЭ┤эК╕ ыкиыСР ы╢ИьД▒ыж╜ тЖТ ьзДьзЬ ьаХый┤ ьЮеьХаым╝ */
 329:Core/Src/drive.c **** }
 553              		.loc 1 329 1 view .LVU141
 554 0036 08BD     		pop	{r3, pc}
 555              	.LVL37:
 556              	.L47:
 325:Core/Src/drive.c ****         return 1U;
 557              		.loc 1 325 41 discriminator 1 view .LVU142
 558 0038 93ED020A 		vldr.32	s0, [r3, #8]
 325:Core/Src/drive.c ****         return 1U;
 559              		.loc 1 325 31 discriminator 1 view .LVU143
 560 003c 0B4B     		ldr	r3, .L48+4
 561              	.LVL38:
 325:Core/Src/drive.c ****         return 1U;
 562              		.loc 1 325 31 discriminator 1 view .LVU144
 563 003e D3ED007A 		vldr.32	s15, [r3]
 564 0042 30EE670A 		vsub.f32	s0, s0, s15
 565 0046 FFF7FEFF 		bl	wrap180
 566              	.LVL39:
 325:Core/Src/drive.c ****         return 1U;
 567              		.loc 1 325 25 discriminator 1 view .LVU145
 568 004a B0EEC00A 		vabs.f32	s0, s0
 325:Core/Src/drive.c ****         return 1U;
 569              		.loc 1 325 22 discriminator 1 view .LVU146
 570 004e F3EE097A 		vmov.f32	s15, #2.5e+1
 571 0052 B4EEE70A 		vcmpe.f32	s0, s15
 572 0056 F1EE10FA 		vmrs	APSR_nzcv, FPSCR
 573 005a 03DC     		bgt	.L42
ARM GAS  C:\Users\user\AppData\Local\Temp\ccEq0Nch.s 			page 17


 328:Core/Src/drive.c **** }
 574              		.loc 1 328 12 view .LVU147
 575 005c 0020     		movs	r0, #0
 576 005e EAE7     		b	.L40
 577              	.LVL40:
 578              	.L41:
 579              	.LCFI4:
 580              		.cfi_def_cfa_offset 0
 581              		.cfi_restore 3
 582              		.cfi_restore 14
 322:Core/Src/drive.c **** 
 583              		.loc 1 322 16 view .LVU148
 584 0060 0120     		movs	r0, #1
 585              	.LVL41:
 586              		.loc 1 329 1 view .LVU149
 587 0062 7047     		bx	lr
 588              	.LVL42:
 589              	.L42:
 590              	.LCFI5:
 591              		.cfi_def_cfa_offset 8
 592              		.cfi_offset 3, -8
 593              		.cfi_offset 14, -4
 326:Core/Src/drive.c **** 
 594              		.loc 1 326 16 view .LVU150
 595 0064 0120     		movs	r0, #1
 596 0066 E6E7     		b	.L40
 597              	.L49:
 598              		.align	2
 599              	.L48:
 600 0068 B81E853E 		.word	1048911544
 601 006c 00000000 		.word	h_ref
 602              		.cfi_endproc
 603              	.LFE146:
 605              		.section	.text.corner_enter,"ax",%progbits
 606              		.align	1
 607              		.syntax unified
 608              		.thumb
 609              		.thumb_func
 611              	corner_enter:
 612              	.LVL43:
 613              	.LFB147:
 330:Core/Src/drive.c **** 
 331:Core/Src/drive.c **** /* [req2] ьХДэБм ь╜ФыДИ ьзДьЮЕ: ьаХьзА ьЧЖьЭ┤ эК╕ьЭ╕ ьк╜ьЬ╝ыбЬ ы░йэЦе ыЮШь╣Ш + ьзДьЮЕ heading ъ╕░ыб
 332:Core/Src/drive.c **** static void corner_enter(const DriveInputs *in)
 333:Core/Src/drive.c **** {
 614              		.loc 1 333 1 is_stmt 1 view -0
 615              		.cfi_startproc
 616              		@ args = 0, pretend = 0, frame = 0
 617              		@ frame_needed = 0, uses_anonymous_args = 0
 618              		.loc 1 333 1 is_stmt 0 view .LVU152
 619 0000 08B5     		push	{r3, lr}
 620              	.LCFI6:
 621              		.cfi_def_cfa_offset 8
 622              		.cfi_offset 3, -8
 623              		.cfi_offset 14, -4
 334:Core/Src/drive.c ****     if      (in->l > in->r + SIDE_HYST) turn_dir = 0;   /* ьвМь╕бьЭ┤ ыНФ эК╕ьЮД тЖТ ьвМьХДэБм */
 624              		.loc 1 334 5 is_stmt 1 view .LVU153
ARM GAS  C:\Users\user\AppData\Local\Temp\ccEq0Nch.s 			page 18


 625              		.loc 1 334 16 is_stmt 0 view .LVU154
 626 0002 4388     		ldrh	r3, [r0, #2]
 627              		.loc 1 334 24 view .LVU155
 628 0004 8288     		ldrh	r2, [r0, #4]
 629              		.loc 1 334 28 view .LVU156
 630 0006 511D     		adds	r1, r2, #5
 631              		.loc 1 334 13 view .LVU157
 632 0008 8B42     		cmp	r3, r1
 633 000a 0DDD     		ble	.L51
 634              		.loc 1 334 41 is_stmt 1 discriminator 1 view .LVU158
 635              		.loc 1 334 50 is_stmt 0 discriminator 1 view .LVU159
 636 000c 0A4B     		ldr	r3, .L54
 637 000e 0022     		movs	r2, #0
 638 0010 1A70     		strb	r2, [r3]
 639              	.L52:
 335:Core/Src/drive.c ****     else if (in->r > in->l + SIDE_HYST) turn_dir = 1;   /* ьЪ░ь╕бьЭ┤ ыНФ эК╕ьЮД тЖТ ьЪ░ьХДэБм */
 336:Core/Src/drive.c ****     /* ыПЩыеа(ьЦСьк╜ эК╕ьЮД)ьЭ┤ый┤ ьзБьаД turn_dir ьЬаьзА */
 337:Core/Src/drive.c ****     clear_cnt = 0;
 640              		.loc 1 337 5 is_stmt 1 view .LVU160
 641              		.loc 1 337 15 is_stmt 0 view .LVU161
 642 0012 0A4B     		ldr	r3, .L54+4
 643 0014 0022     		movs	r2, #0
 644 0016 1A70     		strb	r2, [r3]
 338:Core/Src/drive.c ****     h_entry   = in->heading;
 645              		.loc 1 338 5 is_stmt 1 view .LVU162
 646              		.loc 1 338 19 is_stmt 0 view .LVU163
 647 0018 8268     		ldr	r2, [r0, #8]	@ float
 648              		.loc 1 338 15 view .LVU164
 649 001a 094B     		ldr	r3, .L54+8
 650 001c 1A60     		str	r2, [r3]	@ float
 339:Core/Src/drive.c ****     enter(DS_CORNER, in->now);
 651              		.loc 1 339 5 is_stmt 1 view .LVU165
 652 001e 0169     		ldr	r1, [r0, #16]
 653 0020 0620     		movs	r0, #6
 654              	.LVL44:
 655              		.loc 1 339 5 is_stmt 0 view .LVU166
 656 0022 FFF7FEFF 		bl	enter
 657              	.LVL45:
 340:Core/Src/drive.c **** }
 658              		.loc 1 340 1 view .LVU167
 659 0026 08BD     		pop	{r3, pc}
 660              	.LVL46:
 661              	.L51:
 335:Core/Src/drive.c ****     /* ыПЩыеа(ьЦСьк╜ эК╕ьЮД)ьЭ┤ый┤ ьзБьаД turn_dir ьЬаьзА */
 662              		.loc 1 335 10 is_stmt 1 view .LVU168
 335:Core/Src/drive.c ****     /* ыПЩыеа(ьЦСьк╜ эК╕ьЮД)ьЭ┤ый┤ ьзБьаД turn_dir ьЬаьзА */
 663              		.loc 1 335 28 is_stmt 0 view .LVU169
 664 0028 0533     		adds	r3, r3, #5
 335:Core/Src/drive.c ****     /* ыПЩыеа(ьЦСьк╜ эК╕ьЮД)ьЭ┤ый┤ ьзБьаД turn_dir ьЬаьзА */
 665              		.loc 1 335 13 view .LVU170
 666 002a 9A42     		cmp	r2, r3
 667 002c F1DD     		ble	.L52
 335:Core/Src/drive.c ****     /* ыПЩыеа(ьЦСьк╜ эК╕ьЮД)ьЭ┤ый┤ ьзБьаД turn_dir ьЬаьзА */
 668              		.loc 1 335 41 is_stmt 1 discriminator 1 view .LVU171
 335:Core/Src/drive.c ****     /* ыПЩыеа(ьЦСьк╜ эК╕ьЮД)ьЭ┤ый┤ ьзБьаД turn_dir ьЬаьзА */
 669              		.loc 1 335 50 is_stmt 0 discriminator 1 view .LVU172
 670 002e 024B     		ldr	r3, .L54
ARM GAS  C:\Users\user\AppData\Local\Temp\ccEq0Nch.s 			page 19


 671 0030 0122     		movs	r2, #1
 672 0032 1A70     		strb	r2, [r3]
 673 0034 EDE7     		b	.L52
 674              	.L55:
 675 0036 00BF     		.align	2
 676              	.L54:
 677 0038 00000000 		.word	turn_dir
 678 003c 00000000 		.word	clear_cnt
 679 0040 00000000 		.word	h_entry
 680              		.cfi_endproc
 681              	.LFE147:
 683              		.section	.text.hold_enter,"ax",%progbits
 684              		.align	1
 685              		.syntax unified
 686              		.thumb
 687              		.thumb_func
 689              	hold_enter:
 690              	.LVL47:
 691              	.LFB144:
 291:Core/Src/drive.c ****     Car_Stop();   /* ьаХьзА ьГБэГЬ ьЬаьзАьЧФ ь╜ФьКдэК╕ыбЬ ь╢йы╢Д */
 692              		.loc 1 291 1 is_stmt 1 view -0
 693              		.cfi_startproc
 694              		@ args = 0, pretend = 0, frame = 0
 695              		@ frame_needed = 0, uses_anonymous_args = 0
 291:Core/Src/drive.c ****     Car_Stop();   /* ьаХьзА ьГБэГЬ ьЬаьзАьЧФ ь╜ФьКдэК╕ыбЬ ь╢йы╢Д */
 696              		.loc 1 291 1 is_stmt 0 view .LVU174
 697 0000 10B5     		push	{r4, lr}
 698              	.LCFI7:
 699              		.cfi_def_cfa_offset 8
 700              		.cfi_offset 4, -8
 701              		.cfi_offset 14, -4
 702 0002 0446     		mov	r4, r0
 292:Core/Src/drive.c ****     enter(DS_HOLD, in->now);
 703              		.loc 1 292 5 is_stmt 1 view .LVU175
 704 0004 FFF7FEFF 		bl	Car_Stop
 705              	.LVL48:
 293:Core/Src/drive.c **** }
 706              		.loc 1 293 5 view .LVU176
 707 0008 2169     		ldr	r1, [r4, #16]
 708 000a 0420     		movs	r0, #4
 709 000c FFF7FEFF 		bl	enter
 710              	.LVL49:
 294:Core/Src/drive.c **** 
 711              		.loc 1 294 1 is_stmt 0 view .LVU177
 712 0010 10BD     		pop	{r4, pc}
 294:Core/Src/drive.c **** 
 713              		.loc 1 294 1 view .LVU178
 714              		.cfi_endproc
 715              	.LFE144:
 717              		.section	.text.brake_enter,"ax",%progbits
 718              		.align	1
 719              		.syntax unified
 720              		.thumb
 721              		.thumb_func
 723              	brake_enter:
 724              	.LVL50:
 725              	.LFB141:
ARM GAS  C:\Users\user\AppData\Local\Temp\ccEq0Nch.s 			page 20


 260:Core/Src/drive.c ****     if (BRAKE_MS > 0) Car_Brake();   /* BRAKE_MS=0 тЖТ ыаИъ▒░ьЛЬ ь╜ФьКдэК╕ эП┤ы░▒ */
 726              		.loc 1 260 1 is_stmt 1 view -0
 727              		.cfi_startproc
 728              		@ args = 0, pretend = 0, frame = 0
 729              		@ frame_needed = 0, uses_anonymous_args = 0
 260:Core/Src/drive.c ****     if (BRAKE_MS > 0) Car_Brake();   /* BRAKE_MS=0 тЖТ ыаИъ▒░ьЛЬ ь╜ФьКдэК╕ эП┤ы░▒ */
 730              		.loc 1 260 1 is_stmt 0 view .LVU180
 731 0000 10B5     		push	{r4, lr}
 732              	.LCFI8:
 733              		.cfi_def_cfa_offset 8
 734              		.cfi_offset 4, -8
 735              		.cfi_offset 14, -4
 736 0002 0446     		mov	r4, r0
 261:Core/Src/drive.c ****     else              Car_Stop();
 737              		.loc 1 261 5 is_stmt 1 view .LVU181
 261:Core/Src/drive.c ****     else              Car_Stop();
 738              		.loc 1 261 23 discriminator 1 view .LVU182
 739 0004 FFF7FEFF 		bl	Car_Brake
 740              	.LVL51:
 263:Core/Src/drive.c **** }
 741              		.loc 1 263 5 view .LVU183
 742 0008 2169     		ldr	r1, [r4, #16]
 743 000a 0120     		movs	r0, #1
 744 000c FFF7FEFF 		bl	enter
 745              	.LVL52:
 264:Core/Src/drive.c **** 
 746              		.loc 1 264 1 is_stmt 0 view .LVU184
 747 0010 10BD     		pop	{r4, pc}
 264:Core/Src/drive.c **** 
 748              		.loc 1 264 1 view .LVU185
 749              		.cfi_endproc
 750              	.LFE141:
 752              		.section	.text.hold_run,"ax",%progbits
 753              		.align	1
 754              		.syntax unified
 755              		.thumb
 756              		.thumb_func
 758              	hold_run:
 759              	.LVL53:
 760              	.LFB153:
 341:Core/Src/drive.c **** 
 342:Core/Src/drive.c **** /* ---- ьГБэГЬы│Д ьЛдэЦЙ ---- */
 343:Core/Src/drive.c **** 
 344:Core/Src/drive.c **** /* CRUISE: ьзБьзД ьД╝эД░ызБ ьг╝эЦЙ + ь╜ФыДИ/ьЮеьХаым╝ ьаДьЭ┤. ьЪ░ьДаьИЬьЬД(ьЬДтЖТьХДыЮШ):
 345:Core/Src/drive.c ****    1) ьаХый┤ ым┤ьЧРь╜Ф тЖТ HOLD
 346:Core/Src/drive.c ****    2) [req2] ь╜ФыДИ(ьаХый┤ ьвБьХДьзР + эХЬьк╜ эК╕ьЮД) тЖТ ьаДьзДьД▒ ьХДэБм(DS_CORNER) тАФ 'ъ╡┤ыЯмьД
 347:Core/Src/drive.c ****    3) [req1] ьаХый┤ ьЮеьХаым╝ тЖТ ъ╖╕ыаИьЭ┤ьзХ эХДэД░ эЖ╡ъ│╝ + NэЪМ эЩХьаХ ьЛЬьЧРызМ BRAKE(тЖТызЙыЛ
 348:Core/Src/drive.c ****    4) ь╕бы▓╜ ы░Хъ╕░ьзБьаД тЖТ SIDE_AVOID
 349:Core/Src/drive.c ****    5) ьД╝эД░ызБ PD */
 350:Core/Src/drive.c **** static void cruise_run(const DriveInputs *in)
 351:Core/Src/drive.c **** {
 352:Core/Src/drive.c ****     /* 1) fail-safe: ьаХый┤ ьЧ░ьЖН ым┤ьЧРь╜Ф тЖТ HOLD. CRUISEьЧРьДЬызМ тАФ SPIN/REVERSEыКФ ьаДы░й ы
 353:Core/Src/drive.c ****     if (in->front_miss >= FRONT_FAIL_LIMIT) { hold_enter(in); return; }
 354:Core/Src/drive.c **** 
 355:Core/Src/drive.c ****     /* 2) тШЕь╜ФыДИ ьзДьЮЕ(ьХДэБм ьЪ░ьДа): ьаХый┤ьЭ┤ ARC ъ▒░ыжмыбЬ ьвБэШАьзАъ│а эХЬьк╜ьЭ┤ эК╕ьЮД(эЪ
 356:Core/Src/drive.c ****           ьаХьзА/эФ╝ы▓Ч ыМАьЛа ьаДьзДьД▒ ьХДэБмыбЬ ъ╡┤ыЯмьДЬ эЖ╡ъ│╝. ьвБьЭА ып╕ыбЬьДЬ ьаЬьЮРыжм эФ╝
 357:Core/Src/drive.c ****     if (in->f < FRONT_ARC_CM && in->f_valid)
ARM GAS  C:\Users\user\AppData\Local\Temp\ccEq0Nch.s 			page 21


 358:Core/Src/drive.c ****     {
 359:Core/Src/drive.c ****         uint8_t left_open  = (in->l >= SIDE_OPEN_CM);
 360:Core/Src/drive.c ****         uint8_t right_open = (in->r >= SIDE_OPEN_CM);
 361:Core/Src/drive.c ****         if (left_open || right_open) { corner_enter(in); return; }
 362:Core/Src/drive.c ****         /* ьЦСь╕б ыЛд ы▓╜ = ь╜ФыДИ ьХДыЛШ(ызЙэЮШ/ьЛдэСЬьаБ) тЖТ ьХДыЮШ ьаХый┤ эЩХьаХ ъ▓МьЭ┤эК╕ыбЬ ь
 363:Core/Src/drive.c ****     }
 364:Core/Src/drive.c **** 
 365:Core/Src/drive.c ****     /* 3) тШЕ[req1] ьаХый┤ ьЮеьХаым╝ эЩХьаХ ъ▓МьЭ┤эК╕: f<TURNьЭ┤ыЭ╝ыПД 'ь╕бы▓╜ ы╣Ф ъ╖╕ыаИьЭ┤ьзХ/ь╢Х
 366:Core/Src/drive.c ****           ьаЬыПЩ ы│┤ыеШ(ьД╝эД░ызБьЭ┤ ъ╡РьаХ) тАФ ъ╖╕ыаИьЭ┤ьзХ ьХДыЛМ ьзДьзЬ ъ╖╝ьаСьЭ┤ FRONT_CONFIRM
 367:Core/Src/drive.c ****     if (in->f < FRONT_TURN_CM && in->f_valid)
 368:Core/Src/drive.c ****     {
 369:Core/Src/drive.c ****         uint8_t graze = front_graze_suspected(in);
 370:Core/Src/drive.c ****         dbg_graze = graze;
 371:Core/Src/drive.c ****         if (graze)
 372:Core/Src/drive.c ****         {
 373:Core/Src/drive.c ****             front_near_cnt = 0;   /* ъ░АьзЬ ьЭШьЛм тЖТ ь╣┤ьЪ┤эК╕ ыжмьЕЛ, ьД╝эД░ызБ/ь╕бый┤эЪМэФ╝ьЧР 
 374:Core/Src/drive.c ****         }
 375:Core/Src/drive.c ****         else if (front_near_cnt < 255 && ++front_near_cnt >= FRONT_CONFIRM_N)
 376:Core/Src/drive.c ****         {
 377:Core/Src/drive.c ****             dbg_front_near = front_near_cnt;
 378:Core/Src/drive.c ****             brake_enter(in);      /* ьзДьзЬ ьаХый┤ы▓╜ эЩХьаХ тЖТ ыКеыПЩ ьаЬыПЩ тЖТ brake_runьЭ┤ REV
 379:Core/Src/drive.c ****             return;
 380:Core/Src/drive.c ****         }
 381:Core/Src/drive.c ****     }
 382:Core/Src/drive.c ****     else
 383:Core/Src/drive.c ****     {
 384:Core/Src/drive.c ****         front_near_cnt = 0;       /* ьаХый┤ эК╕ьЮД ыШРыКФ ым┤эЪи ь╕бьаХ тЖТ ыжмьЕЛ */
 385:Core/Src/drive.c ****         dbg_graze = 0;
 386:Core/Src/drive.c ****     }
 387:Core/Src/drive.c ****     dbg_front_near = front_near_cnt;
 388:Core/Src/drive.c **** 
 389:Core/Src/drive.c ****     /* 4) ь╕бый┤ ы░Хъ╕░ьзБьаД тЖТ ы╣ДьГБ эЪМэФ╝(ыйИь╢д+эФ╝ы▓Ч). ьб░эЦеьЬ╝ыба ык╗ ызЙыКФ ь╕бы▓╜ ъ╕Бэ
 390:Core/Src/drive.c ****     uint16_t smin = (in->l < in->r) ? in->l : in->r;
 391:Core/Src/drive.c ****     if (smin < SIDE_AVOID_CM) { side_avoid_enter(in); return; }
 392:Core/Src/drive.c **** 
 393:Core/Src/drive.c ****     /* 5) ьД╝эД░ызБ PD ьзБьзД ьг╝эЦЙ */
 394:Core/Src/drive.c ****     Drive_CenteringPD_Run(in);
 395:Core/Src/drive.c ****     return;
 396:Core/Src/drive.c **** }
 397:Core/Src/drive.c **** 
 398:Core/Src/drive.c **** /* BRAKE: BRAKE_MS ыПЩьХИ ыЛиыЭ╜ ьаЬыПЩ ьЬаьзА тЖТ эХ┤ьаЬ эЫД ызЙыЛдые╕ъ││ьЭ┤ый┤ REVERSE, ьХДыЛИый┤
 399:Core/Src/drive.c **** static void brake_run(const DriveInputs *in)
 400:Core/Src/drive.c **** {
 401:Core/Src/drive.c ****     if ((in->now - t_state) < (uint32_t)BRAKE_MS) return;   /* ьаЬыПЩ ьЬаьзА ьдС */
 402:Core/Src/drive.c **** 
 403:Core/Src/drive.c ****     Car_Stop();   /* ыЛиыЭ╜ ьаЬыПЩ эХ┤ьаЬ */
 404:Core/Src/drive.c **** 
 405:Core/Src/drive.c ****     uint8_t dead_end = (in->f < FRONT_DANGER_CM &&
 406:Core/Src/drive.c ****                         in->l < SIDE_BLOCK_CM   &&
 407:Core/Src/drive.c ****                         in->r < SIDE_BLOCK_CM);
 408:Core/Src/drive.c ****     if (dead_end && rev_cnt < REV_MAX_CHUNKS)
 409:Core/Src/drive.c ****         reverse_enter(in);
 410:Core/Src/drive.c ****     else
 411:Core/Src/drive.c ****         spin_enter(in, (rev_cnt > 0));   /* эЫДьзДьЭД ъ▒░ь│дьЬ╝ый┤ ыПЩыеа ьЛЬ ы░ШыМАьк╜ ьЛЬыПД */
 412:Core/Src/drive.c **** }
 413:Core/Src/drive.c **** 
 414:Core/Src/drive.c **** /* SPIN: ьаЬьЮРыжм эЪМьаД(ьаДьзД ьЭ┤ыПЩ 0). ызд ыгиэФД ьД╝ьДЬ ъ░▒ьЛаэХШый░ эГИь╢Ьъ░Б/ьКдэД▒/эГАьЮДь
ARM GAS  C:\Users\user\AppData\Local\Temp\ccEq0Nch.s 			page 22


 415:Core/Src/drive.c **** static void spin_run(const DriveInputs *in)
 416:Core/Src/drive.c **** {
 417:Core/Src/drive.c ****     /* ызЙыЛдые╕ ъ││ тЖТ эЫДьзД (chunk ьШИьВ░ ыВ┤ьЧРьДЬызМ) */
 418:Core/Src/drive.c ****     if (in->f < FRONT_DANGER_CM && in->l < SIDE_BLOCK_CM && in->r < SIDE_BLOCK_CM
 419:Core/Src/drive.c ****         && rev_cnt < REV_MAX_CHUNKS)
 420:Core/Src/drive.c ****     {
 421:Core/Src/drive.c ****         reverse_enter(in);
 422:Core/Src/drive.c ****         return;
 423:Core/Src/drive.c ****     }
 424:Core/Src/drive.c **** 
 425:Core/Src/drive.c ****     if (in->imu_live)
 426:Core/Src/drive.c ****     {
 427:Core/Src/drive.c ****         dbg_spin_deg = wrap180(in->heading - h_entry);
 428:Core/Src/drive.c **** 
 429:Core/Src/drive.c ****         /* ьКдэД▒: ROT_STUCK_MS ьЬИыПД ыПЩьХИ эЪМьаД ыкЕыа╣ьЧРыПД heading ьаХь▓┤ тЖТ ы░ФэА┤ эЧЫыПО/
 430:Core/Src/drive.c ****         if ((in->now - t_stuck) >= (uint32_t)ROT_STUCK_MS)
 431:Core/Src/drive.c ****         {
 432:Core/Src/drive.c ****             if (fabsf(wrap180(in->heading - h_stuck)) < ROT_STUCK_DEG
 433:Core/Src/drive.c ****                 && rev_cnt < REV_MAX_CHUNKS)
 434:Core/Src/drive.c ****             {
 435:Core/Src/drive.c ****                 reverse_enter(in);
 436:Core/Src/drive.c ****                 return;
 437:Core/Src/drive.c ****             }
 438:Core/Src/drive.c ****             h_stuck = in->heading;
 439:Core/Src/drive.c ****             t_stuck = in->now;
 440:Core/Src/drive.c ****         }
 441:Core/Src/drive.c ****     }
 442:Core/Src/drive.c **** 
 443:Core/Src/drive.c ****     /* эГАьЮДьХДьЫГ ы░▒ьКдэЖ▒ (IMU ьВмызЭ ьЛЬ ьКдэД▒ ь╗ды▓Д): эЫДьзД ьШИьВ░ ьЮИьЬ╝ый┤ эЫДьзД, ьЧЖьЬ
 444:Core/Src/drive.c ****     if ((in->now - t_state) > (uint32_t)SPIN_MAX_MS)
 445:Core/Src/drive.c ****     {
 446:Core/Src/drive.c ****         if (rev_cnt < REV_MAX_CHUNKS) { reverse_enter(in); return; }
 447:Core/Src/drive.c ****         turn_dir ^= 1;
 448:Core/Src/drive.c ****         t_state = in->now;
 449:Core/Src/drive.c ****         h_entry = in->heading;
 450:Core/Src/drive.c ****     }
 451:Core/Src/drive.c **** 
 452:Core/Src/drive.c ****     /* ы░йэЦе ьЮмэПЙъ░А: ь╡ЬьЖМьЬаьзА(SPIN_COMMIT_MS) эЫД, ыЮШь╣Шьк╜ ызЙэЮШ && ы░ШыМАьк╜ SIDE_HYST 
 453:Core/Src/drive.c ****     if ((in->now - t_state) >= (uint32_t)SPIN_COMMIT_MS && swap_cnt < SWAP_LIMIT)
 454:Core/Src/drive.c ****     {
 455:Core/Src/drive.c ****         uint16_t latched = (turn_dir == 0) ? in->l : in->r;
 456:Core/Src/drive.c ****         uint16_t other   = (turn_dir == 0) ? in->r : in->l;
 457:Core/Src/drive.c ****         if (latched < SIDE_BLOCK_CM && other > (uint16_t)(latched + SIDE_HYST))
 458:Core/Src/drive.c ****         {
 459:Core/Src/drive.c ****             turn_dir ^= 1;
 460:Core/Src/drive.c ****             swap_cnt++;
 461:Core/Src/drive.c ****             t_state = in->now;
 462:Core/Src/drive.c ****             h_entry = in->heading;
 463:Core/Src/drive.c ****         }
 464:Core/Src/drive.c ****     }
 465:Core/Src/drive.c **** 
 466:Core/Src/drive.c ****     /* эГИь╢Ь тЖТ CRUISE: ьаХый┤ эК╕ьЮДьЭ┤ 'ьЬаэЪи ь╕бьаХьЬ╝ыбЬ' CLEAR_CONFIRMэЪМ ьЧ░ьЖН
 467:Core/Src/drive.c ****        + (IMU ьЛЬ) ьзДьЮЕ ыМАы╣Д TURN_MIN_DEG ьЭ┤ьГБ эЪМьаД тАФ ъ▓╜ьВмы▓╜ specular ъ░АьзЬ-эК╕ьЮД ьб
 468:Core/Src/drive.c ****     if (in->f >= FRONT_CLEAR_CM && in->f_valid)
 469:Core/Src/drive.c ****     {
 470:Core/Src/drive.c ****         if (clear_cnt < 255) clear_cnt++;
 471:Core/Src/drive.c ****         if (clear_cnt >= CLEAR_CONFIRM &&
ARM GAS  C:\Users\user\AppData\Local\Temp\ccEq0Nch.s 			page 23


 472:Core/Src/drive.c ****             (!in->imu_live || fabsf(wrap180(in->heading - h_entry)) >= TURN_MIN_DEG))
 473:Core/Src/drive.c ****         {
 474:Core/Src/drive.c ****             cruise_enter(in);
 475:Core/Src/drive.c ****             return;
 476:Core/Src/drive.c ****         }
 477:Core/Src/drive.c ****     }
 478:Core/Src/drive.c ****     else if (in->f < FRONT_CLEAR_CM)
 479:Core/Src/drive.c ****     {
 480:Core/Src/drive.c ****         clear_cnt = 0;   /* ым┤эЪи ь╕бьаХ(f_valid=0)ьЭА ыжмьЕЛыПД ъ░АьВ░ыПД ьХИ эХи тАФ ьзБьаД ь╣┤ь
 481:Core/Src/drive.c ****     }
 482:Core/Src/drive.c **** 
 483:Core/Src/drive.c ****     /* тШЕэФ╝ы▓Ч эЪМьаДъ░Б ьЩДыгМ эГИь╢Ь(ьззьЭА ып╕ыбЬ ы│╡ыПД ыМАьЭС): ьаХый┤ьЭ┤ FRONT_CLEARъ╣МьзА 
 484:Core/Src/drive.c ****        (~90┬░) ыПМьХШъ│а эШДьЮм ьаХый┤ьЭ┤ ы▓╜ьЭ┤ ьХДыЛШ(тЙеFRONT_TURN_CM)ьЭ┤ый┤ ьзДэЦЙ. ьвБьЭА ы░Хь
 485:Core/Src/drive.c ****        ьХИ эК╕ьЭ┤ыКФ ь╜ФыДИьЧРьДЬыПД эХЬ ы▓ИызМ ъ╣ФыБФэЮИ ъ║╛ъ│а ы╣аьа╕ыВШъ░Аъ▓М эХи(ъ│╝эЪМьаД/ьаЬь
 486:Core/Src/drive.c ****     if (in->imu_live && in->f_valid
 487:Core/Src/drive.c ****         && fabsf(wrap180(in->heading - h_entry)) >= TURN_TARGET_DEG
 488:Core/Src/drive.c ****         && in->f >= FRONT_TURN_CM)
 489:Core/Src/drive.c ****     {
 490:Core/Src/drive.c ****         cruise_enter(in);
 491:Core/Src/drive.c ****         return;
 492:Core/Src/drive.c ****     }
 493:Core/Src/drive.c **** 
 494:Core/Src/drive.c ****     /* эЪМьаД ыкЕыа╣ (ызд ыгиэФД ьЮмъ░А) */
 495:Core/Src/drive.c ****     if (turn_dir == 0) Car_PivotLeft(TURN_SPEED, TURN_INNER);
 496:Core/Src/drive.c ****     else               Car_PivotRight(TURN_SPEED, TURN_INNER);
 497:Core/Src/drive.c **** }
 498:Core/Src/drive.c **** 
 499:Core/Src/drive.c **** /* [req2] CORNER: ьаДьзДьД▒ ьХДэБмыбЬ ь╜ФыДИ эЖ╡ъ│╝ (ьаЬьЮРыжм эФ╝ы▓Ч ыМАьЛа). ызд ыгиэФД ьД╝ьДЬ ъ░
 500:Core/Src/drive.c ****    - ьХИьаД 1: ьХДэБмъ░А ы░Шъ▓╜ ьХИьЧРьДЬ ык╗ ыПМъ│а ьаХый┤ ьЬДъ╕Й(<STOP) тЖТ BRAKE тЖТ (brake_runь
 501:Core/Src/drive.c ****    - ьХИьаД 2: ызЙыЛдые╕ эПмь╝У(ьаХый┤ danger + ьЦСь╕б ызЙэЮШ) тЖТ BRAKE тЖТ REVERSE
 502:Core/Src/drive.c ****    - эГИь╢Ь A(IMU): ьзДьЮЕ ыМАы╣Д TURN_TARGET_DEG эЪМьаД + ьаХый┤ьЭ┤ ы▓╜ ьХДыЛШ(тЙеTURN) тЖТ CRUISE
 503:Core/Src/drive.c ****    - эГИь╢Ь B(эП┤ы░▒/IMUьВмызЭ): ьаХый┤ CLEARъ░А CLEAR_CONFIRMэЪМ ьЧ░ьЖН тЖТ CRUISE
 504:Core/Src/drive.c ****    - эГАьЮДьХДьЫГ: ARC_MAX_MS ь┤Иъ│╝(ъ░ЬэЩЬьзАьДЬ ым┤эХЬьХДэБм ы░йьзА) тЖТ BRAKE эП┤ы░▒ */
 505:Core/Src/drive.c **** static void corner_run(const DriveInputs *in)
 506:Core/Src/drive.c **** {
 507:Core/Src/drive.c ****     /* ьХИьаД 1: ьХДэБм ьЛдэМи(ьаХый┤ ьЬДъ╕Й) тЖТ ьаХьзА эЫД ьаЬьЮРыжм эФ╝ы▓ЧьЬ╝ыбЬ ызИым┤ыжм */
 508:Core/Src/drive.c ****     if (in->f < FRONT_STOP_CM && in->f_valid) { brake_enter(in); return; }
 509:Core/Src/drive.c **** 
 510:Core/Src/drive.c ****     /* ьХИьаД 2: ызЙыЛдые╕ эПмь╝У тЖТ ьаХьзАтЖТэЫДьзД(brake_runьЧРьДЬ dead_end ы╢Дъ╕░) */
 511:Core/Src/drive.c ****     if (in->f < FRONT_DANGER_CM && in->l < SIDE_BLOCK_CM && in->r < SIDE_BLOCK_CM)
 512:Core/Src/drive.c ****     {
 513:Core/Src/drive.c ****         brake_enter(in);
 514:Core/Src/drive.c ****         return;
 515:Core/Src/drive.c ****     }
 516:Core/Src/drive.c **** 
 517:Core/Src/drive.c ****     /* эГАьЮДьХДьЫГ ы░▒ьКдэЖ▒ (IMU ьВмызЭ + ьаХый┤ьЭ┤ CLEARъ╣МьзА ьХИ эК╕ьЭ┤ыКФ ъ░ЬэЩЬ ъ│бьДа): эФ╝
 518:Core/Src/drive.c ****     if ((in->now - t_state) > (uint32_t)ARC_MAX_MS) { brake_enter(in); return; }
 519:Core/Src/drive.c **** 
 520:Core/Src/drive.c ****     /* эГИь╢Ь A (IMU): ыкйэСЬъ░Б эЪМьаД ьЩДыгМ + ьаХый┤ ы▓╜ ьХДыЛШ тЖТ ьзБьзД ы│╡ъ╖А */
 521:Core/Src/drive.c ****     if (in->imu_live && in->f_valid
 522:Core/Src/drive.c ****         && fabsf(wrap180(in->heading - h_entry)) >= TURN_TARGET_DEG
 523:Core/Src/drive.c ****         && in->f >= FRONT_TURN_CM)
 524:Core/Src/drive.c ****     {
 525:Core/Src/drive.c ****         cruise_enter(in);
 526:Core/Src/drive.c ****         return;
 527:Core/Src/drive.c ****     }
 528:Core/Src/drive.c **** 
ARM GAS  C:\Users\user\AppData\Local\Temp\ccEq0Nch.s 			page 24


 529:Core/Src/drive.c ****     /* эГИь╢Ь B (эП┤ы░▒/IMU ьВмызЭ): ьаХый┤ эК╕ьЮДьЭ┤ ьЬаэЪи ь╕бьаХьЬ╝ыбЬ CLEAR_CONFIRMэЪМ ьЧ░ьЖН *
 530:Core/Src/drive.c ****     if (in->f >= FRONT_CLEAR_CM && in->f_valid)
 531:Core/Src/drive.c ****     {
 532:Core/Src/drive.c ****         if (clear_cnt < 255) clear_cnt++;
 533:Core/Src/drive.c ****         if (clear_cnt >= CLEAR_CONFIRM) { cruise_enter(in); return; }
 534:Core/Src/drive.c ****     }
 535:Core/Src/drive.c ****     else if (in->f < FRONT_CLEAR_CM)
 536:Core/Src/drive.c ****     {
 537:Core/Src/drive.c ****         clear_cnt = 0;   /* ым┤эЪи ь╕бьаХьЭА ьЬаьзА, ы▓╜ ьЮмъ╖╝ьаСызМ ыжмьЕЛ */
 538:Core/Src/drive.c ****     }
 539:Core/Src/drive.c **** 
 540:Core/Src/drive.c ****     /* ьХДэБм ыкЕыа╣ (ызд ыгиэФД ьЮмъ░А): ьЦСы░ФэА┤ ьаДьзД, эК╕ьЭ╕ ьк╜ьЬ╝ыбЬ ъ│бьДа (ьаДьзДьД▒ = ыМ
 541:Core/Src/drive.c ****     if (turn_dir == 0) Car_ArcLeft(ARC_OUTER, ARC_INNER);
 542:Core/Src/drive.c ****     else               Car_ArcRight(ARC_OUTER, ARC_INNER);
 543:Core/Src/drive.c **** }
 544:Core/Src/drive.c **** 
 545:Core/Src/drive.c **** /* REVERSE: эЫДьзД chunk 1эЪМ тЖТ ьаЬыПЩ тЖТ BRAKEъ░А ьЮмэПЙъ░А (ызЙыЛдые╕ъ││ ьзАьЖН=ь╢Фъ░А chunk, 
 546:Core/Src/drive.c **** static void reverse_run(const DriveInputs *in)
 547:Core/Src/drive.c **** {
 548:Core/Src/drive.c ****     if ((in->now - t_state) >= (uint32_t)BACK_CHUNK_MS)
 549:Core/Src/drive.c ****     {
 550:Core/Src/drive.c ****         brake_enter(in);
 551:Core/Src/drive.c ****         return;
 552:Core/Src/drive.c ****     }
 553:Core/Src/drive.c ****     Car_Backward(DRIVE_SPEED);
 554:Core/Src/drive.c **** }
 555:Core/Src/drive.c **** 
 556:Core/Src/drive.c **** /* HOLD: ьаХый┤ ьД╝ьДЬ ьГБьЛд ьХИьаДьаХьзА. ьЧРь╜Ф эЪМы│╡ тЖТ ьжЙьЛЬ ы│╡ъ╖А, ьЮеъ╕░эЩФ тЖТ SPINьЬ╝ы
 557:Core/Src/drive.c **** static void hold_run(const DriveInputs *in)
 558:Core/Src/drive.c **** {
 761              		.loc 1 558 1 is_stmt 1 view -0
 762              		.cfi_startproc
 763              		@ args = 0, pretend = 0, frame = 0
 764              		@ frame_needed = 0, uses_anonymous_args = 0
 765              		.loc 1 558 1 is_stmt 0 view .LVU187
 766 0000 08B5     		push	{r3, lr}
 767              	.LCFI9:
 768              		.cfi_def_cfa_offset 8
 769              		.cfi_offset 3, -8
 770              		.cfi_offset 14, -4
 559:Core/Src/drive.c ****     if (in->f_valid)
 771              		.loc 1 559 5 is_stmt 1 view .LVU188
 772              		.loc 1 559 11 is_stmt 0 view .LVU189
 773 0002 8379     		ldrb	r3, [r0, #6]	@ zero_extendqisi2
 774              		.loc 1 559 8 view .LVU190
 775 0004 53B9     		cbnz	r3, .L67
 560:Core/Src/drive.c ****     {
 561:Core/Src/drive.c ****         if (in->f < FRONT_STOP_CM) brake_enter(in);
 562:Core/Src/drive.c ****         else                       cruise_enter(in);
 563:Core/Src/drive.c ****         return;
 564:Core/Src/drive.c ****     }
 565:Core/Src/drive.c ****     if ((in->now - t_state) > (uint32_t)HOLD_MAX_MS)
 776              		.loc 1 565 5 is_stmt 1 view .LVU191
 777              		.loc 1 565 12 is_stmt 0 view .LVU192
 778 0006 0369     		ldr	r3, [r0, #16]
 779              		.loc 1 565 18 view .LVU193
 780 0008 0B4A     		ldr	r2, .L69
ARM GAS  C:\Users\user\AppData\Local\Temp\ccEq0Nch.s 			page 25


 781 000a 1268     		ldr	r2, [r2]
 782 000c 9B1A     		subs	r3, r3, r2
 783              		.loc 1 565 8 view .LVU194
 784 000e 40F2DC52 		movw	r2, #1500
 785 0012 9342     		cmp	r3, r2
 786 0014 0BD8     		bhi	.L68
 566:Core/Src/drive.c ****     {
 567:Core/Src/drive.c ****         spin_enter(in, 0);   /* эЪМьаДьЭА ым┤ьЭ┤ыПЩьЭ┤ыЭ╝ ьаХый┤ ы╕ФыЭ╝ьЭ╕ыУЬ ьГБэГЬыбЬыПД ьХИьаД *
 568:Core/Src/drive.c ****         return;
 569:Core/Src/drive.c ****     }
 570:Core/Src/drive.c ****     Car_Stop();
 787              		.loc 1 570 5 is_stmt 1 view .LVU195
 788 0016 FFF7FEFF 		bl	Car_Stop
 789              	.LVL54:
 790              	.L60:
 571:Core/Src/drive.c **** }
 791              		.loc 1 571 1 is_stmt 0 view .LVU196
 792 001a 08BD     		pop	{r3, pc}
 793              	.LVL55:
 794              	.L67:
 561:Core/Src/drive.c ****         else                       cruise_enter(in);
 795              		.loc 1 561 9 is_stmt 1 view .LVU197
 561:Core/Src/drive.c ****         else                       cruise_enter(in);
 796              		.loc 1 561 15 is_stmt 0 view .LVU198
 797 001c 0388     		ldrh	r3, [r0]
 561:Core/Src/drive.c ****         else                       cruise_enter(in);
 798              		.loc 1 561 12 view .LVU199
 799 001e 0E2B     		cmp	r3, #14
 800 0020 02D8     		bhi	.L62
 561:Core/Src/drive.c ****         else                       cruise_enter(in);
 801              		.loc 1 561 36 is_stmt 1 discriminator 1 view .LVU200
 802 0022 FFF7FEFF 		bl	brake_enter
 803              	.LVL56:
 561:Core/Src/drive.c ****         else                       cruise_enter(in);
 804              		.loc 1 561 36 is_stmt 0 discriminator 1 view .LVU201
 805 0026 F8E7     		b	.L60
 806              	.LVL57:
 807              	.L62:
 562:Core/Src/drive.c ****         return;
 808              		.loc 1 562 36 is_stmt 1 view .LVU202
 809 0028 FFF7FEFF 		bl	cruise_enter
 810              	.LVL58:
 563:Core/Src/drive.c ****     }
 811              		.loc 1 563 9 view .LVU203
 812 002c F5E7     		b	.L60
 813              	.LVL59:
 814              	.L68:
 567:Core/Src/drive.c ****         return;
 815              		.loc 1 567 9 view .LVU204
 816 002e 0021     		movs	r1, #0
 817 0030 FFF7FEFF 		bl	spin_enter
 818              	.LVL60:
 568:Core/Src/drive.c ****     }
 819              		.loc 1 568 9 view .LVU205
 820 0034 F1E7     		b	.L60
 821              	.L70:
 822 0036 00BF     		.align	2
ARM GAS  C:\Users\user\AppData\Local\Temp\ccEq0Nch.s 			page 26


 823              	.L69:
 824 0038 00000000 		.word	t_state
 825              		.cfi_endproc
 826              	.LFE153:
 828              		.section	.text.Drive_CenteringPD_Run,"ax",%progbits
 829              		.align	1
 830              		.syntax unified
 831              		.thumb
 832              		.thumb_func
 834              	Drive_CenteringPD_Run:
 835              	.LVL61:
 836              	.LFB138:
 120:Core/Src/drive.c ****     static uint16_t l_buf[CENTER_MA_WIN];
 837              		.loc 1 120 1 view -0
 838              		.cfi_startproc
 839              		@ args = 0, pretend = 0, frame = 8
 840              		@ frame_needed = 0, uses_anonymous_args = 0
 120:Core/Src/drive.c ****     static uint16_t l_buf[CENTER_MA_WIN];
 841              		.loc 1 120 1 is_stmt 0 view .LVU207
 842 0000 F0B5     		push	{r4, r5, r6, r7, lr}
 843              	.LCFI10:
 844              		.cfi_def_cfa_offset 20
 845              		.cfi_offset 4, -20
 846              		.cfi_offset 5, -16
 847              		.cfi_offset 6, -12
 848              		.cfi_offset 7, -8
 849              		.cfi_offset 14, -4
 850 0002 2DED068B 		vpush.64	{d8, d9, d10}
 851              	.LCFI11:
 852              		.cfi_def_cfa_offset 44
 853              		.cfi_offset 80, -44
 854              		.cfi_offset 81, -40
 855              		.cfi_offset 82, -36
 856              		.cfi_offset 83, -32
 857              		.cfi_offset 84, -28
 858              		.cfi_offset 85, -24
 859 0006 83B0     		sub	sp, sp, #12
 860              	.LCFI12:
 861              		.cfi_def_cfa_offset 56
 862 0008 0446     		mov	r4, r0
 121:Core/Src/drive.c ****     static uint16_t r_buf[CENTER_MA_WIN];
 863              		.loc 1 121 5 is_stmt 1 view .LVU208
 122:Core/Src/drive.c ****     static uint8_t  idx = 0U;
 864              		.loc 1 122 5 view .LVU209
 123:Core/Src/drive.c ****     static uint8_t  count = 0U;
 865              		.loc 1 123 5 view .LVU210
 124:Core/Src/drive.c ****     static float    prev_error = 0.0f;
 866              		.loc 1 124 5 view .LVU211
 125:Core/Src/drive.c ****     static uint32_t prev_ms = 0U;
 867              		.loc 1 125 5 view .LVU212
 126:Core/Src/drive.c ****     static float    steer_prev = 0.0f;
 868              		.loc 1 126 5 view .LVU213
 127:Core/Src/drive.c **** 
 869              		.loc 1 127 5 view .LVU214
 129:Core/Src/drive.c ****     {
 870              		.loc 1 129 5 view .LVU215
 129:Core/Src/drive.c ****     {
ARM GAS  C:\Users\user\AppData\Local\Temp\ccEq0Nch.s 			page 27


 871              		.loc 1 129 9 is_stmt 0 view .LVU216
 872 000a A24B     		ldr	r3, .L94
 873 000c 1B78     		ldrb	r3, [r3]	@ zero_extendqisi2
 129:Core/Src/drive.c ****     {
 874              		.loc 1 129 8 view .LVU217
 875 000e 93B1     		cbz	r3, .L72
 131:Core/Src/drive.c ****         count = 0U;
 876              		.loc 1 131 9 is_stmt 1 view .LVU218
 131:Core/Src/drive.c ****         count = 0U;
 877              		.loc 1 131 13 is_stmt 0 view .LVU219
 878 0010 0023     		movs	r3, #0
 879 0012 A14A     		ldr	r2, .L94+4
 880 0014 1370     		strb	r3, [r2]
 132:Core/Src/drive.c ****         prev_error = 0.0f;
 881              		.loc 1 132 9 is_stmt 1 view .LVU220
 132:Core/Src/drive.c ****         prev_error = 0.0f;
 882              		.loc 1 132 15 is_stmt 0 view .LVU221
 883 0016 A14A     		ldr	r2, .L94+8
 884 0018 1370     		strb	r3, [r2]
 133:Core/Src/drive.c ****         prev_ms = 0U;
 885              		.loc 1 133 9 is_stmt 1 view .LVU222
 133:Core/Src/drive.c ****         prev_ms = 0U;
 886              		.loc 1 133 20 is_stmt 0 view .LVU223
 887 001a 0022     		movs	r2, #0
 888 001c A049     		ldr	r1, .L94+12
 889 001e 0A60     		str	r2, [r1]	@ float
 134:Core/Src/drive.c ****         steer_prev = 0.0f;
 890              		.loc 1 134 9 is_stmt 1 view .LVU224
 134:Core/Src/drive.c ****         steer_prev = 0.0f;
 891              		.loc 1 134 17 is_stmt 0 view .LVU225
 892 0020 A049     		ldr	r1, .L94+16
 893 0022 0B60     		str	r3, [r1]
 135:Core/Src/drive.c ****         h_ref = in->heading;
 894              		.loc 1 135 9 is_stmt 1 view .LVU226
 135:Core/Src/drive.c ****         h_ref = in->heading;
 895              		.loc 1 135 20 is_stmt 0 view .LVU227
 896 0024 A049     		ldr	r1, .L94+20
 897 0026 0A60     		str	r2, [r1]	@ float
 136:Core/Src/drive.c ****         h_prev = in->heading;
 898              		.loc 1 136 9 is_stmt 1 view .LVU228
 136:Core/Src/drive.c ****         h_prev = in->heading;
 899              		.loc 1 136 19 is_stmt 0 view .LVU229
 900 0028 8268     		ldr	r2, [r0, #8]	@ float
 136:Core/Src/drive.c ****         h_prev = in->heading;
 901              		.loc 1 136 15 view .LVU230
 902 002a A049     		ldr	r1, .L94+24
 903 002c 0A60     		str	r2, [r1]	@ float
 137:Core/Src/drive.c ****         center_reset = 0U;
 904              		.loc 1 137 9 is_stmt 1 view .LVU231
 137:Core/Src/drive.c ****         center_reset = 0U;
 905              		.loc 1 137 16 is_stmt 0 view .LVU232
 906 002e A049     		ldr	r1, .L94+28
 907 0030 0A60     		str	r2, [r1]	@ float
 138:Core/Src/drive.c ****     }
 908              		.loc 1 138 9 is_stmt 1 view .LVU233
 138:Core/Src/drive.c ****     }
 909              		.loc 1 138 22 is_stmt 0 view .LVU234
ARM GAS  C:\Users\user\AppData\Local\Temp\ccEq0Nch.s 			page 28


 910 0032 984A     		ldr	r2, .L94
 911 0034 1370     		strb	r3, [r2]
 912              	.L72:
 141:Core/Src/drive.c ****     r_buf[idx] = center_sanitize_cm(in->r);
 913              		.loc 1 141 5 is_stmt 1 view .LVU235
 141:Core/Src/drive.c ****     r_buf[idx] = center_sanitize_cm(in->r);
 914              		.loc 1 141 10 is_stmt 0 view .LVU236
 915 0036 984E     		ldr	r6, .L94+4
 916 0038 3578     		ldrb	r5, [r6]	@ zero_extendqisi2
 141:Core/Src/drive.c ****     r_buf[idx] = center_sanitize_cm(in->r);
 917              		.loc 1 141 18 view .LVU237
 918 003a 6088     		ldrh	r0, [r4, #2]
 919              	.LVL62:
 141:Core/Src/drive.c ****     r_buf[idx] = center_sanitize_cm(in->r);
 920              		.loc 1 141 18 view .LVU238
 921 003c FFF7FEFF 		bl	center_sanitize_cm
 922              	.LVL63:
 141:Core/Src/drive.c ****     r_buf[idx] = center_sanitize_cm(in->r);
 923              		.loc 1 141 16 discriminator 1 view .LVU239
 924 0040 9C4B     		ldr	r3, .L94+32
 925 0042 23F81500 		strh	r0, [r3, r5, lsl #1]	@ movhi
 142:Core/Src/drive.c **** 
 926              		.loc 1 142 5 is_stmt 1 view .LVU240
 142:Core/Src/drive.c **** 
 927              		.loc 1 142 18 is_stmt 0 view .LVU241
 928 0046 A088     		ldrh	r0, [r4, #4]
 929 0048 FFF7FEFF 		bl	center_sanitize_cm
 930              	.LVL64:
 142:Core/Src/drive.c **** 
 931              		.loc 1 142 16 discriminator 1 view .LVU242
 932 004c 9A4B     		ldr	r3, .L94+36
 933 004e 23F81500 		strh	r0, [r3, r5, lsl #1]	@ movhi
 144:Core/Src/drive.c ****     if (count < CENTER_MA_WIN)
 934              		.loc 1 144 5 is_stmt 1 view .LVU243
 144:Core/Src/drive.c ****     if (count < CENTER_MA_WIN)
 935              		.loc 1 144 26 is_stmt 0 view .LVU244
 936 0052 0135     		adds	r5, r5, #1
 144:Core/Src/drive.c ****     if (count < CENTER_MA_WIN)
 937              		.loc 1 144 32 view .LVU245
 938 0054 994B     		ldr	r3, .L94+40
 939 0056 A3FB0523 		umull	r2, r3, r3, r5
 940 005a 03F4FF72 		and	r2, r3, #510
 941 005e 02EB5303 		add	r3, r2, r3, lsr #1
 942 0062 ED1A     		subs	r5, r5, r3
 144:Core/Src/drive.c ****     if (count < CENTER_MA_WIN)
 943              		.loc 1 144 9 view .LVU246
 944 0064 3570     		strb	r5, [r6]
 145:Core/Src/drive.c ****         count++;
 945              		.loc 1 145 5 is_stmt 1 view .LVU247
 145:Core/Src/drive.c ****         count++;
 946              		.loc 1 145 15 is_stmt 0 view .LVU248
 947 0066 8D4B     		ldr	r3, .L94+8
 948 0068 1B78     		ldrb	r3, [r3]	@ zero_extendqisi2
 145:Core/Src/drive.c ****         count++;
 949              		.loc 1 145 8 view .LVU249
 950 006a 022B     		cmp	r3, #2
 951 006c 02D8     		bhi	.L73
ARM GAS  C:\Users\user\AppData\Local\Temp\ccEq0Nch.s 			page 29


 146:Core/Src/drive.c **** 
 952              		.loc 1 146 9 is_stmt 1 view .LVU250
 146:Core/Src/drive.c **** 
 953              		.loc 1 146 14 is_stmt 0 view .LVU251
 954 006e 0133     		adds	r3, r3, #1
 955 0070 8A4A     		ldr	r2, .L94+8
 956 0072 1370     		strb	r3, [r2]
 957              	.L73:
 148:Core/Src/drive.c ****     float right_cm = center_avg_u16(r_buf, count);
 958              		.loc 1 148 5 is_stmt 1 view .LVU252
 148:Core/Src/drive.c ****     float right_cm = center_avg_u16(r_buf, count);
 959              		.loc 1 148 22 is_stmt 0 view .LVU253
 960 0074 894B     		ldr	r3, .L94+8
 961 0076 1D78     		ldrb	r5, [r3]	@ zero_extendqisi2
 962 0078 2946     		mov	r1, r5
 963 007a 8E48     		ldr	r0, .L94+32
 964 007c FFF7FEFF 		bl	center_avg_u16
 965              	.LVL65:
 966 0080 F0EE408A 		vmov.f32	s17, s0
 967              	.LVL66:
 149:Core/Src/drive.c ****     float error = left_cm - right_cm;
 968              		.loc 1 149 5 is_stmt 1 view .LVU254
 149:Core/Src/drive.c ****     float error = left_cm - right_cm;
 969              		.loc 1 149 22 is_stmt 0 view .LVU255
 970 0084 2946     		mov	r1, r5
 971 0086 8C48     		ldr	r0, .L94+36
 972 0088 FFF7FEFF 		bl	center_avg_u16
 973              	.LVL67:
 149:Core/Src/drive.c ****     float error = left_cm - right_cm;
 974              		.loc 1 149 22 view .LVU256
 975 008c B0EE409A 		vmov.f32	s18, s0
 976              	.LVL68:
 150:Core/Src/drive.c **** 
 977              		.loc 1 150 5 is_stmt 1 view .LVU257
 150:Core/Src/drive.c **** 
 978              		.loc 1 150 11 is_stmt 0 view .LVU258
 979 0090 38EEC08A 		vsub.f32	s16, s17, s0
 980              	.LVL69:
 153:Core/Src/drive.c **** 
 981              		.loc 1 153 5 is_stmt 1 view .LVU259
 156:Core/Src/drive.c ****     if (prev_ms != 0U && in->now > prev_ms)
 982              		.loc 1 156 5 view .LVU260
 157:Core/Src/drive.c ****         dt = clampf((float)(in->now - prev_ms) / 1000.0f, 0.005f, 0.100f);
 983              		.loc 1 157 5 view .LVU261
 157:Core/Src/drive.c ****         dt = clampf((float)(in->now - prev_ms) / 1000.0f, 0.005f, 0.100f);
 984              		.loc 1 157 17 is_stmt 0 view .LVU262
 985 0094 834B     		ldr	r3, .L94+16
 986 0096 1D68     		ldr	r5, [r3]
 157:Core/Src/drive.c ****         dt = clampf((float)(in->now - prev_ms) / 1000.0f, 0.005f, 0.100f);
 987              		.loc 1 157 8 view .LVU263
 988 0098 A5B1     		cbz	r5, .L82
 157:Core/Src/drive.c ****         dt = clampf((float)(in->now - prev_ms) / 1000.0f, 0.005f, 0.100f);
 989              		.loc 1 157 28 discriminator 1 view .LVU264
 990 009a 2369     		ldr	r3, [r4, #16]
 157:Core/Src/drive.c ****         dt = clampf((float)(in->now - prev_ms) / 1000.0f, 0.005f, 0.100f);
 991              		.loc 1 157 23 discriminator 1 view .LVU265
 992 009c 9D42     		cmp	r5, r3
ARM GAS  C:\Users\user\AppData\Local\Temp\ccEq0Nch.s 			page 30


 993 009e 21D2     		bcs	.L83
 158:Core/Src/drive.c **** 
 994              		.loc 1 158 9 is_stmt 1 view .LVU266
 158:Core/Src/drive.c **** 
 995              		.loc 1 158 37 is_stmt 0 view .LVU267
 996 00a0 5B1B     		subs	r3, r3, r5
 997 00a2 00EE103A 		vmov	s0, r3	@ int
 998              	.LVL70:
 158:Core/Src/drive.c **** 
 999              		.loc 1 158 21 view .LVU268
 1000 00a6 B8EE400A 		vcvt.f32.u32	s0, s0
 158:Core/Src/drive.c **** 
 1001              		.loc 1 158 14 view .LVU269
 1002 00aa 9FED851A 		vldr.32	s2, .L94+44
 1003 00ae DFED850A 		vldr.32	s1, .L94+48
 1004 00b2 DFED857A 		vldr.32	s15, .L94+52
 1005 00b6 80EE270A 		vdiv.f32	s0, s0, s15
 1006 00ba FFF7FEFF 		bl	clampf
 1007              	.LVL71:
 1008 00be B0EE40AA 		vmov.f32	s20, s0
 1009              	.LVL72:
 158:Core/Src/drive.c **** 
 1010              		.loc 1 158 14 view .LVU270
 1011 00c2 01E0     		b	.L74
 1012              	.LVL73:
 1013              	.L82:
 156:Core/Src/drive.c ****     if (prev_ms != 0U && in->now > prev_ms)
 1014              		.loc 1 156 11 view .LVU271
 1015 00c4 9FED81AA 		vldr.32	s20, .L94+56
 1016              	.LVL74:
 1017              	.L74:
 160:Core/Src/drive.c **** 
 1018              		.loc 1 160 5 is_stmt 1 view .LVU272
 160:Core/Src/drive.c **** 
 1019              		.loc 1 160 44 is_stmt 0 view .LVU273
 1020 00c8 7DB1     		cbz	r5, .L84
 160:Core/Src/drive.c **** 
 1021              		.loc 1 160 53 discriminator 1 view .LVU274
 1022 00ca 754B     		ldr	r3, .L94+12
 1023 00cc D3ED007A 		vldr.32	s15, [r3]
 1024 00d0 78EE677A 		vsub.f32	s15, s16, s15
 160:Core/Src/drive.c **** 
 1025              		.loc 1 160 44 discriminator 1 view .LVU275
 1026 00d4 C7EE8AAA 		vdiv.f32	s21, s15, s20
 1027              	.L75:
 1028              	.LVL75:
 163:Core/Src/drive.c ****                    ? wrap180(in->heading - h_prev) / dt
 1029              		.loc 1 163 5 is_stmt 1 view .LVU276
 163:Core/Src/drive.c ****                    ? wrap180(in->heading - h_prev) / dt
 1030              		.loc 1 163 25 is_stmt 0 view .LVU277
 1031 00d8 267B     		ldrb	r6, [r4, #12]	@ zero_extendqisi2
 165:Core/Src/drive.c **** 
 1032              		.loc 1 165 20 view .LVU278
 1033 00da AEB1     		cbz	r6, .L85
 163:Core/Src/drive.c ****                    ? wrap180(in->heading - h_prev) / dt
 1034              		.loc 1 163 36 view .LVU279
 1035 00dc 45B9     		cbnz	r5, .L92
ARM GAS  C:\Users\user\AppData\Local\Temp\ccEq0Nch.s 			page 31


 165:Core/Src/drive.c **** 
 1036              		.loc 1 165 20 discriminator 1 view .LVU280
 1037 00de DFED7C9A 		vldr.32	s19, .L94+60
 1038 00e2 13E0     		b	.L76
 1039              	.LVL76:
 1040              	.L83:
 156:Core/Src/drive.c ****     if (prev_ms != 0U && in->now > prev_ms)
 1041              		.loc 1 156 11 view .LVU281
 1042 00e4 9FED79AA 		vldr.32	s20, .L94+56
 1043 00e8 EEE7     		b	.L74
 1044              	.LVL77:
 1045              	.L84:
 160:Core/Src/drive.c **** 
 1046              		.loc 1 160 44 discriminator 2 view .LVU282
 1047 00ea DFED79AA 		vldr.32	s21, .L94+60
 1048 00ee F3E7     		b	.L75
 1049              	.LVL78:
 1050              	.L92:
 164:Core/Src/drive.c ****                    : 0.0f;
 1051              		.loc 1 164 32 view .LVU283
 1052 00f0 94ED020A 		vldr.32	s0, [r4, #8]
 164:Core/Src/drive.c ****                    : 0.0f;
 1053              		.loc 1 164 22 view .LVU284
 1054 00f4 6E4B     		ldr	r3, .L94+28
 1055 00f6 D3ED007A 		vldr.32	s15, [r3]
 1056 00fa 30EE670A 		vsub.f32	s0, s0, s15
 1057 00fe FFF7FEFF 		bl	wrap180
 1058              	.LVL79:
 165:Core/Src/drive.c **** 
 1059              		.loc 1 165 20 view .LVU285
 1060 0102 C0EE0A9A 		vdiv.f32	s19, s0, s20
 1061 0106 01E0     		b	.L76
 1062              	.L85:
 165:Core/Src/drive.c **** 
 1063              		.loc 1 165 20 discriminator 1 view .LVU286
 1064 0108 DFED719A 		vldr.32	s19, .L94+60
 1065              	.L76:
 1066              	.LVL80:
 168:Core/Src/drive.c ****     prev_ms    = in->now;
 1067              		.loc 1 168 5 is_stmt 1 view .LVU287
 168:Core/Src/drive.c ****     prev_ms    = in->now;
 1068              		.loc 1 168 16 is_stmt 0 view .LVU288
 1069 010c 644B     		ldr	r3, .L94+12
 1070 010e 83ED008A 		vstr.32	s16, [r3]
 169:Core/Src/drive.c ****     h_prev     = in->heading;
 1071              		.loc 1 169 5 is_stmt 1 view .LVU289
 169:Core/Src/drive.c ****     h_prev     = in->heading;
 1072              		.loc 1 169 20 is_stmt 0 view .LVU290
 1073 0112 2269     		ldr	r2, [r4, #16]
 169:Core/Src/drive.c ****     h_prev     = in->heading;
 1074              		.loc 1 169 16 view .LVU291
 1075 0114 634B     		ldr	r3, .L94+16
 1076 0116 1A60     		str	r2, [r3]
 170:Core/Src/drive.c **** 
 1077              		.loc 1 170 5 is_stmt 1 view .LVU292
 170:Core/Src/drive.c **** 
 1078              		.loc 1 170 20 is_stmt 0 view .LVU293
ARM GAS  C:\Users\user\AppData\Local\Temp\ccEq0Nch.s 			page 32


 1079 0118 D4ED027A 		vldr.32	s15, [r4, #8]
 170:Core/Src/drive.c **** 
 1080              		.loc 1 170 16 view .LVU294
 1081 011c 644B     		ldr	r3, .L94+28
 1082 011e C3ED007A 		vstr.32	s15, [r3]
 174:Core/Src/drive.c ****     uint8_t right_seen = (right_cm < (float)CENTER_SENSOR_MAX_CM);
 1083              		.loc 1 174 5 is_stmt 1 view .LVU295
 1084              	.LVL81:
 175:Core/Src/drive.c **** 
 1085              		.loc 1 175 5 view .LVU296
 177:Core/Src/drive.c ****     uint8_t mode;
 1086              		.loc 1 177 5 view .LVU297
 178:Core/Src/drive.c **** 
 1087              		.loc 1 178 5 view .LVU298
 180:Core/Src/drive.c ****     {
 1088              		.loc 1 180 5 view .LVU299
 180:Core/Src/drive.c ****     {
 1089              		.loc 1 180 8 is_stmt 0 view .LVU300
 1090 0122 9FED6C7A 		vldr.32	s14, .L94+64
 1091 0126 F4EEC78A 		vcmpe.f32	s17, s14
 1092 012a F1EE10FA 		vmrs	APSR_nzcv, FPSCR
 1093 012e 1AD5     		bpl	.L77
 180:Core/Src/drive.c ****     {
 1094              		.loc 1 180 19 discriminator 1 view .LVU301
 1095 0130 B4EEC79A 		vcmpe.f32	s18, s14
 1096 0134 F1EE10FA 		vmrs	APSR_nzcv, FPSCR
 1097 0138 15D5     		bpl	.L77
 183:Core/Src/drive.c ****         steer = (fabsf(error) <= CENTER_DEADZONE_CM)
 1098              		.loc 1 183 9 is_stmt 1 view .LVU302
 1099              	.LVL82:
 184:Core/Src/drive.c ****               ? 0.0f
 1100              		.loc 1 184 9 view .LVU303
 184:Core/Src/drive.c ****               ? 0.0f
 1101              		.loc 1 184 18 is_stmt 0 view .LVU304
 1102 013a F0EEC87A 		vabs.f32	s15, s16
 186:Core/Src/drive.c ****     }
 1103              		.loc 1 186 15 view .LVU305
 1104 013e B0EE007A 		vmov.f32	s14, #2.0e+0
 1105 0142 F4EEC77A 		vcmpe.f32	s15, s14
 1106 0146 F1EE10FA 		vmrs	APSR_nzcv, FPSCR
 1107 014a 40F29F80 		bls	.L87
 186:Core/Src/drive.c ****     }
 1108              		.loc 1 186 28 discriminator 2 view .LVU306
 1109 014e DFED627A 		vldr.32	s15, .L94+68
 1110 0152 28EE270A 		vmul.f32	s0, s16, s15
 186:Core/Src/drive.c ****     }
 1111              		.loc 1 186 50 discriminator 2 view .LVU307
 1112 0156 DFED5E7A 		vldr.32	s15, .L94+60
 1113 015a 6AEEA7AA 		vmul.f32	s21, s21, s15
 1114              	.LVL83:
 186:Core/Src/drive.c ****     }
 1115              		.loc 1 186 15 discriminator 2 view .LVU308
 1116 015e 30EE2A0A 		vadd.f32	s0, s0, s21
 183:Core/Src/drive.c ****         steer = (fabsf(error) <= CENTER_DEADZONE_CM)
 1117              		.loc 1 183 15 view .LVU309
 1118 0162 0027     		movs	r7, #0
 1119 0164 05E0     		b	.L80
ARM GAS  C:\Users\user\AppData\Local\Temp\ccEq0Nch.s 			page 33


 1120              	.LVL84:
 1121              	.L77:
 188:Core/Src/drive.c ****     {
 1122              		.loc 1 188 10 is_stmt 1 view .LVU310
 188:Core/Src/drive.c ****     {
 1123              		.loc 1 188 13 is_stmt 0 view .LVU311
 1124 0166 002E     		cmp	r6, #0
 1125 0168 40F08380 		bne	.L93
 198:Core/Src/drive.c ****         steer = 0.0f;
 1126              		.loc 1 198 15 view .LVU312
 1127 016c 0427     		movs	r7, #4
 199:Core/Src/drive.c ****     }
 1128              		.loc 1 199 15 view .LVU313
 1129 016e 9FED580A 		vldr.32	s0, .L94+60
 1130              	.LVL85:
 1131              	.L80:
 206:Core/Src/drive.c ****         steer += KD_YAW * yaw_rate;
 1132              		.loc 1 206 5 is_stmt 1 view .LVU314
 206:Core/Src/drive.c ****         steer += KD_YAW * yaw_rate;
 1133              		.loc 1 206 8 is_stmt 0 view .LVU315
 1134 0172 2EB1     		cbz	r6, .L81
 207:Core/Src/drive.c **** 
 1135              		.loc 1 207 9 is_stmt 1 view .LVU316
 207:Core/Src/drive.c **** 
 1136              		.loc 1 207 25 is_stmt 0 view .LVU317
 1137 0174 DFED597A 		vldr.32	s15, .L94+72
 1138 0178 69EEA77A 		vmul.f32	s15, s19, s15
 207:Core/Src/drive.c **** 
 1139              		.loc 1 207 15 view .LVU318
 1140 017c 30EE270A 		vadd.f32	s0, s0, s15
 1141              	.LVL86:
 1142              	.L81:
 209:Core/Src/drive.c **** 
 1143              		.loc 1 209 5 is_stmt 1 view .LVU319
 209:Core/Src/drive.c **** 
 1144              		.loc 1 209 13 is_stmt 0 view .LVU320
 1145 0180 B2EE041A 		vmov.f32	s2, #1.0e+1
 1146 0184 FAEE040A 		vmov.f32	s1, #-1.0e+1
 1147 0188 FFF7FEFF 		bl	clampf
 1148              	.LVL87:
 214:Core/Src/drive.c ****         steer_prev = steer;
 1149              		.loc 1 214 9 is_stmt 1 view .LVU321
 214:Core/Src/drive.c ****         steer_prev = steer;
 1150              		.loc 1 214 17 is_stmt 0 view .LVU322
 1151 018c 464D     		ldr	r5, .L94+20
 1152 018e D5ED000A 		vldr.32	s1, [r5]
 1153 0192 F0EE087A 		vmov.f32	s15, #3.0e+0
 1154 0196 30EEA71A 		vadd.f32	s2, s1, s15
 1155 019a 70EEE70A 		vsub.f32	s1, s1, s15
 1156 019e FFF7FEFF 		bl	clampf
 1157              	.LVL88:
 214:Core/Src/drive.c ****         steer_prev = steer;
 1158              		.loc 1 214 17 view .LVU323
 1159 01a2 B0EE408A 		vmov.f32	s16, s0
 1160              	.LVL89:
 215:Core/Src/drive.c ****     }
 1161              		.loc 1 215 9 is_stmt 1 view .LVU324
ARM GAS  C:\Users\user\AppData\Local\Temp\ccEq0Nch.s 			page 34


 215:Core/Src/drive.c ****     }
 1162              		.loc 1 215 20 is_stmt 0 view .LVU325
 1163 01a6 85ED000A 		vstr.32	s0, [r5]
 219:Core/Src/drive.c ****     float base = CENTER_BASE_SPEED_PCT
 1164              		.loc 1 219 5 is_stmt 1 view .LVU326
 219:Core/Src/drive.c ****     float base = CENTER_BASE_SPEED_PCT
 1165              		.loc 1 219 25 is_stmt 0 view .LVU327
 1166 01aa F0EEC06A 		vabs.f32	s13, s0
 219:Core/Src/drive.c ****     float base = CENTER_BASE_SPEED_PCT
 1167              		.loc 1 219 11 view .LVU328
 1168 01ae B2EE047A 		vmov.f32	s14, #1.0e+1
 1169 01b2 C6EE877A 		vdiv.f32	s15, s13, s14
 1170              	.LVL90:
 220:Core/Src/drive.c ****                - ((CENTER_BASE_SPEED_PCT - CENTER_MIN_SPEED_PCT) * steer_ratio);
 1171              		.loc 1 220 5 is_stmt 1 view .LVU329
 221:Core/Src/drive.c ****     base = clampf(base, CENTER_MIN_SPEED_PCT, CENTER_BASE_SPEED_PCT);
 1172              		.loc 1 221 66 is_stmt 0 view .LVU330
 1173 01b6 B1EE0C7A 		vmov.f32	s14, #7.0e+0
 1174 01ba 67EE877A 		vmul.f32	s15, s15, s14
 1175              	.LVL91:
 220:Core/Src/drive.c ****                - ((CENTER_BASE_SPEED_PCT - CENTER_MIN_SPEED_PCT) * steer_ratio);
 1176              		.loc 1 220 11 view .LVU331
 1177 01be 9FED481A 		vldr.32	s2, .L94+76
 1178              	.LVL92:
 222:Core/Src/drive.c **** 
 1179              		.loc 1 222 5 is_stmt 1 view .LVU332
 222:Core/Src/drive.c **** 
 1180              		.loc 1 222 12 is_stmt 0 view .LVU333
 1181 01c2 DFED480A 		vldr.32	s1, .L94+80
 1182 01c6 31EE670A 		vsub.f32	s0, s2, s15
 1183              	.LVL93:
 222:Core/Src/drive.c **** 
 1184              		.loc 1 222 12 view .LVU334
 1185 01ca FFF7FEFF 		bl	clampf
 1186              	.LVL94:
 222:Core/Src/drive.c **** 
 1187              		.loc 1 222 12 view .LVU335
 1188 01ce F0EE408A 		vmov.f32	s17, s0
 1189              	.LVL95:
 224:Core/Src/drive.c ****     float rt = clampf(base + steer - (float)MOTOR_TRIM_PCT, 0.0f, 100.0f);
 1190              		.loc 1 224 5 is_stmt 1 view .LVU336
 224:Core/Src/drive.c ****     float rt = clampf(base + steer - (float)MOTOR_TRIM_PCT, 0.0f, 100.0f);
 1191              		.loc 1 224 28 is_stmt 0 view .LVU337
 1192 01d2 30EE480A 		vsub.f32	s0, s0, s16
 1193              	.LVL96:
 224:Core/Src/drive.c ****     float rt = clampf(base + steer - (float)MOTOR_TRIM_PCT, 0.0f, 100.0f);
 1194              		.loc 1 224 16 view .LVU338
 1195 01d6 DFED44AA 		vldr.32	s21, .L94+84
 1196 01da 9FED3DAA 		vldr.32	s20, .L94+60
 1197              	.LVL97:
 224:Core/Src/drive.c ****     float rt = clampf(base + steer - (float)MOTOR_TRIM_PCT, 0.0f, 100.0f);
 1198              		.loc 1 224 16 view .LVU339
 1199 01de B0EE6A1A 		vmov.f32	s2, s21
 1200 01e2 F0EE4A0A 		vmov.f32	s1, s20
 1201 01e6 30EE0A0A 		vadd.f32	s0, s0, s20
 1202 01ea FFF7FEFF 		bl	clampf
 1203              	.LVL98:
ARM GAS  C:\Users\user\AppData\Local\Temp\ccEq0Nch.s 			page 35


 1204 01ee B0EE409A 		vmov.f32	s18, s0
 1205              	.LVL99:
 225:Core/Src/drive.c **** 
 1206              		.loc 1 225 5 is_stmt 1 view .LVU340
 225:Core/Src/drive.c **** 
 1207              		.loc 1 225 16 is_stmt 0 view .LVU341
 1208 01f2 B0EE6A1A 		vmov.f32	s2, s21
 1209 01f6 F0EE4A0A 		vmov.f32	s1, s20
 1210 01fa 38EE280A 		vadd.f32	s0, s16, s17
 1211              	.LVL100:
 225:Core/Src/drive.c **** 
 1212              		.loc 1 225 16 view .LVU342
 1213 01fe FFF7FEFF 		bl	clampf
 1214              	.LVL101:
 1215 0202 F0EE408A 		vmov.f32	s17, s0
 1216              	.LVL102:
 227:Core/Src/drive.c ****     Motor_Right((int8_t)(rt + 0.5f));
 1217              		.loc 1 227 5 is_stmt 1 view .LVU343
 227:Core/Src/drive.c ****     Motor_Right((int8_t)(rt + 0.5f));
 1218              		.loc 1 227 28 is_stmt 0 view .LVU344
 1219 0206 B6EE00AA 		vmov.f32	s20, #5.0e-1
 1220 020a 39EE0A9A 		vadd.f32	s18, s18, s20
 1221              	.LVL103:
 227:Core/Src/drive.c ****     Motor_Right((int8_t)(rt + 0.5f));
 1222              		.loc 1 227 16 view .LVU345
 1223 020e FDEEC97A 		vcvt.s32.f32	s15, s18
 1224 0212 CDED007A 		vstr.32	s15, [sp]	@ int
 227:Core/Src/drive.c ****     Motor_Right((int8_t)(rt + 0.5f));
 1225              		.loc 1 227 5 view .LVU346
 1226 0216 9DF90000 		ldrsb	r0, [sp]
 1227 021a FFF7FEFF 		bl	Motor_Left
 1228              	.LVL104:
 228:Core/Src/drive.c **** 
 1229              		.loc 1 228 5 is_stmt 1 view .LVU347
 228:Core/Src/drive.c **** 
 1230              		.loc 1 228 29 is_stmt 0 view .LVU348
 1231 021e 78EE8A8A 		vadd.f32	s17, s17, s20
 1232              	.LVL105:
 228:Core/Src/drive.c **** 
 1233              		.loc 1 228 17 view .LVU349
 1234 0222 FDEEE87A 		vcvt.s32.f32	s15, s17
 1235 0226 CDED017A 		vstr.32	s15, [sp, #4]	@ int
 228:Core/Src/drive.c **** 
 1236              		.loc 1 228 5 view .LVU350
 1237 022a 9DF90400 		ldrsb	r0, [sp, #4]
 1238 022e FFF7FEFF 		bl	Motor_Right
 1239              	.LVL106:
 230:Core/Src/drive.c ****     dbg_steer_mode = mode;
 1240              		.loc 1 230 5 is_stmt 1 view .LVU351
 230:Core/Src/drive.c ****     dbg_steer_mode = mode;
 1241              		.loc 1 230 20 is_stmt 0 view .LVU352
 1242 0232 2E4B     		ldr	r3, .L94+88
 1243 0234 83ED008A 		vstr.32	s16, [r3]
 231:Core/Src/drive.c ****     dbg_yaw_rate   = yaw_rate;
 1244              		.loc 1 231 5 is_stmt 1 view .LVU353
 231:Core/Src/drive.c ****     dbg_yaw_rate   = yaw_rate;
 1245              		.loc 1 231 20 is_stmt 0 view .LVU354
ARM GAS  C:\Users\user\AppData\Local\Temp\ccEq0Nch.s 			page 36


 1246 0238 2D4B     		ldr	r3, .L94+92
 1247 023a 1F70     		strb	r7, [r3]
 232:Core/Src/drive.c ****     dbg_hdg_err    = wrap180(in->heading - h_ref);
 1248              		.loc 1 232 5 is_stmt 1 view .LVU355
 232:Core/Src/drive.c ****     dbg_hdg_err    = wrap180(in->heading - h_ref);
 1249              		.loc 1 232 20 is_stmt 0 view .LVU356
 1250 023c 2D4B     		ldr	r3, .L94+96
 1251 023e C3ED009A 		vstr.32	s19, [r3]
 233:Core/Src/drive.c ****     dbg_duty_l     = (int16_t)(lt + 0.5f);
 1252              		.loc 1 233 5 is_stmt 1 view .LVU357
 233:Core/Src/drive.c ****     dbg_duty_l     = (int16_t)(lt + 0.5f);
 1253              		.loc 1 233 32 is_stmt 0 view .LVU358
 1254 0242 94ED020A 		vldr.32	s0, [r4, #8]
 233:Core/Src/drive.c ****     dbg_duty_l     = (int16_t)(lt + 0.5f);
 1255              		.loc 1 233 22 view .LVU359
 1256 0246 194B     		ldr	r3, .L94+24
 1257 0248 D3ED007A 		vldr.32	s15, [r3]
 1258 024c 30EE670A 		vsub.f32	s0, s0, s15
 1259 0250 FFF7FEFF 		bl	wrap180
 1260              	.LVL107:
 233:Core/Src/drive.c ****     dbg_duty_l     = (int16_t)(lt + 0.5f);
 1261              		.loc 1 233 20 discriminator 1 view .LVU360
 1262 0254 284B     		ldr	r3, .L94+100
 1263 0256 83ED000A 		vstr.32	s0, [r3]
 234:Core/Src/drive.c ****     dbg_duty_r     = (int16_t)(rt + 0.5f);
 1264              		.loc 1 234 5 is_stmt 1 view .LVU361
 234:Core/Src/drive.c ****     dbg_duty_r     = (int16_t)(rt + 0.5f);
 1265              		.loc 1 234 22 is_stmt 0 view .LVU362
 1266 025a BDF90030 		ldrsh	r3, [sp]
 234:Core/Src/drive.c ****     dbg_duty_r     = (int16_t)(rt + 0.5f);
 1267              		.loc 1 234 20 view .LVU363
 1268 025e 274A     		ldr	r2, .L94+104
 1269 0260 1380     		strh	r3, [r2]	@ movhi
 235:Core/Src/drive.c **** }
 1270              		.loc 1 235 5 is_stmt 1 view .LVU364
 235:Core/Src/drive.c **** }
 1271              		.loc 1 235 22 is_stmt 0 view .LVU365
 1272 0262 BDF90430 		ldrsh	r3, [sp, #4]
 235:Core/Src/drive.c **** }
 1273              		.loc 1 235 20 view .LVU366
 1274 0266 264A     		ldr	r2, .L94+108
 1275 0268 1380     		strh	r3, [r2]	@ movhi
 236:Core/Src/drive.c **** 
 1276              		.loc 1 236 1 view .LVU367
 1277 026a 03B0     		add	sp, sp, #12
 1278              	.LCFI13:
 1279              		.cfi_remember_state
 1280              		.cfi_def_cfa_offset 44
 1281              		@ sp needed
 1282 026c BDEC068B 		vldm	sp!, {d8-d10}
 1283              	.LCFI14:
 1284              		.cfi_restore 84
 1285              		.cfi_restore 85
 1286              		.cfi_restore 82
 1287              		.cfi_restore 83
 1288              		.cfi_restore 80
 1289              		.cfi_restore 81
ARM GAS  C:\Users\user\AppData\Local\Temp\ccEq0Nch.s 			page 37


 1290              		.cfi_def_cfa_offset 20
 1291              	.LVL108:
 236:Core/Src/drive.c **** 
 1292              		.loc 1 236 1 view .LVU368
 1293 0270 F0BD     		pop	{r4, r5, r6, r7, pc}
 1294              	.LVL109:
 1295              	.L93:
 1296              	.LCFI15:
 1297              		.cfi_restore_state
 192:Core/Src/drive.c ****         steer = KP_HDG * wrap180(in->heading - h_ref);
 1298              		.loc 1 192 9 is_stmt 1 view .LVU369
 193:Core/Src/drive.c ****     }
 1299              		.loc 1 193 9 view .LVU370
 193:Core/Src/drive.c ****     }
 1300              		.loc 1 193 26 is_stmt 0 view .LVU371
 1301 0272 0E4B     		ldr	r3, .L94+24
 1302 0274 93ED000A 		vldr.32	s0, [r3]
 1303 0278 37EEC00A 		vsub.f32	s0, s15, s0
 1304 027c FFF7FEFF 		bl	wrap180
 1305              	.LVL110:
 193:Core/Src/drive.c ****     }
 1306              		.loc 1 193 15 discriminator 1 view .LVU372
 1307 0280 DFED207A 		vldr.32	s15, .L94+112
 1308 0284 20EE270A 		vmul.f32	s0, s0, s15
 1309              	.LVL111:
 192:Core/Src/drive.c ****         steer = KP_HDG * wrap180(in->heading - h_ref);
 1310              		.loc 1 192 15 view .LVU373
 1311 0288 0327     		movs	r7, #3
 1312 028a 72E7     		b	.L80
 1313              	.LVL112:
 1314              	.L87:
 183:Core/Src/drive.c ****         steer = (fabsf(error) <= CENTER_DEADZONE_CM)
 1315              		.loc 1 183 15 view .LVU374
 1316 028c 0027     		movs	r7, #0
 186:Core/Src/drive.c ****     }
 1317              		.loc 1 186 15 discriminator 1 view .LVU375
 1318 028e 9FED100A 		vldr.32	s0, .L94+60
 1319 0292 6EE7     		b	.L80
 1320              	.L95:
 1321              		.align	2
 1322              	.L94:
 1323 0294 00000000 		.word	center_reset
 1324 0298 00000000 		.word	idx.6
 1325 029c 00000000 		.word	count.5
 1326 02a0 00000000 		.word	prev_error.4
 1327 02a4 00000000 		.word	prev_ms.3
 1328 02a8 00000000 		.word	steer_prev.2
 1329 02ac 00000000 		.word	h_ref
 1330 02b0 00000000 		.word	h_prev
 1331 02b4 00000000 		.word	l_buf.1
 1332 02b8 00000000 		.word	r_buf.0
 1333 02bc ABAAAAAA 		.word	-1431655765
 1334 02c0 CDCCCC3D 		.word	1036831949
 1335 02c4 0AD7A33B 		.word	1000593162
 1336 02c8 00007A44 		.word	1148846080
 1337 02cc 0AD7A33C 		.word	1017370378
 1338 02d0 00000000 		.word	0
ARM GAS  C:\Users\user\AppData\Local\Temp\ccEq0Nch.s 			page 38


 1339 02d4 0000A042 		.word	1117782016
 1340 02d8 EC51383E 		.word	1043878380
 1341 02dc 9A99193E 		.word	1041865114
 1342 02e0 00002842 		.word	1109917696
 1343 02e4 00000C42 		.word	1108082688
 1344 02e8 0000C842 		.word	1120403456
 1345 02ec 00000000 		.word	dbg_steer
 1346 02f0 00000000 		.word	dbg_steer_mode
 1347 02f4 00000000 		.word	dbg_yaw_rate
 1348 02f8 00000000 		.word	dbg_hdg_err
 1349 02fc 00000000 		.word	dbg_duty_l
 1350 0300 00000000 		.word	dbg_duty_r
 1351 0304 CDCC4C3F 		.word	1061997773
 1352              		.cfi_endproc
 1353              	.LFE138:
 1355              		.section	.text.cruise_run,"ax",%progbits
 1356              		.align	1
 1357              		.syntax unified
 1358              		.thumb
 1359              		.thumb_func
 1361              	cruise_run:
 1362              	.LVL113:
 1363              	.LFB148:
 351:Core/Src/drive.c ****     /* 1) fail-safe: ьаХый┤ ьЧ░ьЖН ым┤ьЧРь╜Ф тЖТ HOLD. CRUISEьЧРьДЬызМ тАФ SPIN/REVERSEыКФ ьаДы░й ы
 1364              		.loc 1 351 1 is_stmt 1 view -0
 1365              		.cfi_startproc
 1366              		@ args = 0, pretend = 0, frame = 0
 1367              		@ frame_needed = 0, uses_anonymous_args = 0
 351:Core/Src/drive.c ****     /* 1) fail-safe: ьаХый┤ ьЧ░ьЖН ым┤ьЧРь╜Ф тЖТ HOLD. CRUISEьЧРьДЬызМ тАФ SPIN/REVERSEыКФ ьаДы░й ы
 1368              		.loc 1 351 1 is_stmt 0 view .LVU377
 1369 0000 10B5     		push	{r4, lr}
 1370              	.LCFI16:
 1371              		.cfi_def_cfa_offset 8
 1372              		.cfi_offset 4, -8
 1373              		.cfi_offset 14, -4
 1374 0002 0446     		mov	r4, r0
 353:Core/Src/drive.c **** 
 1375              		.loc 1 353 5 is_stmt 1 view .LVU378
 353:Core/Src/drive.c **** 
 1376              		.loc 1 353 11 is_stmt 0 view .LVU379
 1377 0004 C379     		ldrb	r3, [r0, #7]	@ zero_extendqisi2
 353:Core/Src/drive.c **** 
 1378              		.loc 1 353 8 view .LVU380
 1379 0006 042B     		cmp	r3, #4
 1380 0008 22D8     		bhi	.L106
 357:Core/Src/drive.c ****     {
 1381              		.loc 1 357 5 is_stmt 1 view .LVU381
 357:Core/Src/drive.c ****     {
 1382              		.loc 1 357 11 is_stmt 0 view .LVU382
 1383 000a 0388     		ldrh	r3, [r0]
 357:Core/Src/drive.c ****     {
 1384              		.loc 1 357 8 view .LVU383
 1385 000c 2C2B     		cmp	r3, #44
 1386 000e 07D8     		bhi	.L99
 357:Core/Src/drive.c ****     {
 1387              		.loc 1 357 35 discriminator 1 view .LVU384
 1388 0010 8279     		ldrb	r2, [r0, #6]	@ zero_extendqisi2
ARM GAS  C:\Users\user\AppData\Local\Temp\ccEq0Nch.s 			page 39


 357:Core/Src/drive.c ****     {
 1389              		.loc 1 357 30 discriminator 1 view .LVU385
 1390 0012 2AB1     		cbz	r2, .L99
 1391              	.LBB4:
 359:Core/Src/drive.c ****         uint8_t right_open = (in->r >= SIDE_OPEN_CM);
 1392              		.loc 1 359 9 is_stmt 1 view .LVU386
 359:Core/Src/drive.c ****         uint8_t right_open = (in->r >= SIDE_OPEN_CM);
 1393              		.loc 1 359 33 is_stmt 0 view .LVU387
 1394 0014 4288     		ldrh	r2, [r0, #2]
 1395              	.LVL114:
 360:Core/Src/drive.c ****         if (left_open || right_open) { corner_enter(in); return; }
 1396              		.loc 1 360 9 is_stmt 1 view .LVU388
 360:Core/Src/drive.c ****         if (left_open || right_open) { corner_enter(in); return; }
 1397              		.loc 1 360 33 is_stmt 0 view .LVU389
 1398 0016 8188     		ldrh	r1, [r0, #4]
 1399              	.LVL115:
 361:Core/Src/drive.c ****         /* ьЦСь╕б ыЛд ы▓╜ = ь╜ФыДИ ьХДыЛШ(ызЙэЮШ/ьЛдэСЬьаБ) тЖТ ьХДыЮШ ьаХый┤ эЩХьаХ ъ▓МьЭ┤эК╕ыбЬ ь
 1400              		.loc 1 361 9 is_stmt 1 view .LVU390
 361:Core/Src/drive.c ****         /* ьЦСь╕б ыЛд ы▓╜ = ь╜ФыДИ ьХДыЛШ(ызЙэЮШ/ьЛдэСЬьаБ) тЖТ ьХДыЮШ ьаХый┤ эЩХьаХ ъ▓МьЭ┤эК╕ыбЬ ь
 1401              		.loc 1 361 12 is_stmt 0 view .LVU391
 1402 0018 1D2A     		cmp	r2, #29
 1403 001a 1CD8     		bhi	.L100
 361:Core/Src/drive.c ****         /* ьЦСь╕б ыЛд ы▓╜ = ь╜ФыДИ ьХДыЛШ(ызЙэЮШ/ьЛдэСЬьаБ) тЖТ ьХДыЮШ ьаХый┤ эЩХьаХ ъ▓МьЭ┤эК╕ыбЬ ь
 1404              		.loc 1 361 23 discriminator 2 view .LVU392
 1405 001c 1D29     		cmp	r1, #29
 1406 001e 1AD8     		bhi	.L100
 1407              	.LVL116:
 1408              	.L99:
 361:Core/Src/drive.c ****         /* ьЦСь╕б ыЛд ы▓╜ = ь╜ФыДИ ьХДыЛШ(ызЙэЮШ/ьЛдэСЬьаБ) тЖТ ьХДыЮШ ьаХый┤ эЩХьаХ ъ▓МьЭ┤эК╕ыбЬ ь
 1409              		.loc 1 361 23 discriminator 2 view .LVU393
 1410              	.LBE4:
 367:Core/Src/drive.c ****     {
 1411              		.loc 1 367 5 is_stmt 1 view .LVU394
 367:Core/Src/drive.c ****     {
 1412              		.loc 1 367 8 is_stmt 0 view .LVU395
 1413 0020 152B     		cmp	r3, #21
 1414 0022 01D8     		bhi	.L101
 367:Core/Src/drive.c ****     {
 1415              		.loc 1 367 36 discriminator 1 view .LVU396
 1416 0024 A379     		ldrb	r3, [r4, #6]	@ zero_extendqisi2
 367:Core/Src/drive.c ****     {
 1417              		.loc 1 367 31 discriminator 1 view .LVU397
 1418 0026 D3B9     		cbnz	r3, .L107
 1419              	.L101:
 384:Core/Src/drive.c ****         dbg_graze = 0;
 1420              		.loc 1 384 9 is_stmt 1 view .LVU398
 384:Core/Src/drive.c ****         dbg_graze = 0;
 1421              		.loc 1 384 24 is_stmt 0 view .LVU399
 1422 0028 0023     		movs	r3, #0
 1423 002a 1C4A     		ldr	r2, .L109
 1424 002c 1370     		strb	r3, [r2]
 385:Core/Src/drive.c ****     }
 1425              		.loc 1 385 9 is_stmt 1 view .LVU400
 385:Core/Src/drive.c ****     }
 1426              		.loc 1 385 19 is_stmt 0 view .LVU401
 1427 002e 1C4A     		ldr	r2, .L109+4
 1428 0030 1370     		strb	r3, [r2]
ARM GAS  C:\Users\user\AppData\Local\Temp\ccEq0Nch.s 			page 40


 1429              	.LVL117:
 1430              	.L103:
 387:Core/Src/drive.c **** 
 1431              		.loc 1 387 5 is_stmt 1 view .LVU402
 387:Core/Src/drive.c **** 
 1432              		.loc 1 387 20 is_stmt 0 view .LVU403
 1433 0032 1A4B     		ldr	r3, .L109
 1434 0034 1A78     		ldrb	r2, [r3]	@ zero_extendqisi2
 1435 0036 1B4B     		ldr	r3, .L109+8
 1436 0038 1A70     		strb	r2, [r3]
 390:Core/Src/drive.c ****     if (smin < SIDE_AVOID_CM) { side_avoid_enter(in); return; }
 1437              		.loc 1 390 5 is_stmt 1 view .LVU404
 390:Core/Src/drive.c ****     if (smin < SIDE_AVOID_CM) { side_avoid_enter(in); return; }
 1438              		.loc 1 390 32 is_stmt 0 view .LVU405
 1439 003a A388     		ldrh	r3, [r4, #4]
 390:Core/Src/drive.c ****     if (smin < SIDE_AVOID_CM) { side_avoid_enter(in); return; }
 1440              		.loc 1 390 24 view .LVU406
 1441 003c 6288     		ldrh	r2, [r4, #2]
 390:Core/Src/drive.c ****     if (smin < SIDE_AVOID_CM) { side_avoid_enter(in); return; }
 1442              		.loc 1 390 14 view .LVU407
 1443 003e 9342     		cmp	r3, r2
 1444 0040 28BF     		it	cs
 1445 0042 1346     		movcs	r3, r2
 1446              	.LVL118:
 391:Core/Src/drive.c **** 
 1447              		.loc 1 391 5 is_stmt 1 view .LVU408
 391:Core/Src/drive.c **** 
 1448              		.loc 1 391 8 is_stmt 0 view .LVU409
 1449 0044 032B     		cmp	r3, #3
 1450 0046 24D9     		bls	.L108
 394:Core/Src/drive.c ****     return;
 1451              		.loc 1 394 5 is_stmt 1 view .LVU410
 1452 0048 2046     		mov	r0, r4
 1453 004a FFF7FEFF 		bl	Drive_CenteringPD_Run
 1454              	.LVL119:
 395:Core/Src/drive.c **** }
 1455              		.loc 1 395 5 view .LVU411
 1456              	.L96:
 396:Core/Src/drive.c **** 
 1457              		.loc 1 396 1 is_stmt 0 view .LVU412
 1458 004e 10BD     		pop	{r4, pc}
 1459              	.LVL120:
 1460              	.L106:
 353:Core/Src/drive.c **** 
 1461              		.loc 1 353 47 is_stmt 1 discriminator 1 view .LVU413
 1462 0050 FFF7FEFF 		bl	hold_enter
 1463              	.LVL121:
 353:Core/Src/drive.c **** 
 1464              		.loc 1 353 63 discriminator 1 view .LVU414
 353:Core/Src/drive.c **** 
 1465              		.loc 1 353 63 is_stmt 0 view .LVU415
 1466 0054 FBE7     		b	.L96
 1467              	.LVL122:
 1468              	.L100:
 1469              	.LBB5:
 361:Core/Src/drive.c ****         /* ьЦСь╕б ыЛд ы▓╜ = ь╜ФыДИ ьХДыЛШ(ызЙэЮШ/ьЛдэСЬьаБ) тЖТ ьХДыЮШ ьаХый┤ эЩХьаХ ъ▓МьЭ┤эК╕ыбЬ ь
 1470              		.loc 1 361 40 is_stmt 1 discriminator 3 view .LVU416
ARM GAS  C:\Users\user\AppData\Local\Temp\ccEq0Nch.s 			page 41


 1471 0056 2046     		mov	r0, r4
 1472              	.LVL123:
 361:Core/Src/drive.c ****         /* ьЦСь╕б ыЛд ы▓╜ = ь╜ФыДИ ьХДыЛШ(ызЙэЮШ/ьЛдэСЬьаБ) тЖТ ьХДыЮШ ьаХый┤ эЩХьаХ ъ▓МьЭ┤эК╕ыбЬ ь
 1473              		.loc 1 361 40 is_stmt 0 discriminator 3 view .LVU417
 1474 0058 FFF7FEFF 		bl	corner_enter
 1475              	.LVL124:
 361:Core/Src/drive.c ****         /* ьЦСь╕б ыЛд ы▓╜ = ь╜ФыДИ ьХДыЛШ(ызЙэЮШ/ьЛдэСЬьаБ) тЖТ ьХДыЮШ ьаХый┤ эЩХьаХ ъ▓МьЭ┤эК╕ыбЬ ь
 1476              		.loc 1 361 58 is_stmt 1 discriminator 1 view .LVU418
 361:Core/Src/drive.c ****         /* ьЦСь╕б ыЛд ы▓╜ = ь╜ФыДИ ьХДыЛШ(ызЙэЮШ/ьЛдэСЬьаБ) тЖТ ьХДыЮШ ьаХый┤ эЩХьаХ ъ▓МьЭ┤эК╕ыбЬ ь
 1477              		.loc 1 361 58 is_stmt 0 view .LVU419
 1478 005c F7E7     		b	.L96
 1479              	.LVL125:
 1480              	.L107:
 361:Core/Src/drive.c ****         /* ьЦСь╕б ыЛд ы▓╜ = ь╜ФыДИ ьХДыЛШ(ызЙэЮШ/ьЛдэСЬьаБ) тЖТ ьХДыЮШ ьаХый┤ эЩХьаХ ъ▓МьЭ┤эК╕ыбЬ ь
 1481              		.loc 1 361 58 view .LVU420
 1482              	.LBE5:
 1483              	.LBB6:
 369:Core/Src/drive.c ****         dbg_graze = graze;
 1484              		.loc 1 369 9 is_stmt 1 view .LVU421
 369:Core/Src/drive.c ****         dbg_graze = graze;
 1485              		.loc 1 369 25 is_stmt 0 view .LVU422
 1486 005e 2046     		mov	r0, r4
 1487              	.LVL126:
 369:Core/Src/drive.c ****         dbg_graze = graze;
 1488              		.loc 1 369 25 view .LVU423
 1489 0060 FFF7FEFF 		bl	front_graze_suspected
 1490              	.LVL127:
 370:Core/Src/drive.c ****         if (graze)
 1491              		.loc 1 370 9 is_stmt 1 view .LVU424
 370:Core/Src/drive.c ****         if (graze)
 1492              		.loc 1 370 19 is_stmt 0 view .LVU425
 1493 0064 0E4B     		ldr	r3, .L109+4
 1494 0066 1870     		strb	r0, [r3]
 371:Core/Src/drive.c ****         {
 1495              		.loc 1 371 9 is_stmt 1 view .LVU426
 371:Core/Src/drive.c ****         {
 1496              		.loc 1 371 12 is_stmt 0 view .LVU427
 1497 0068 18B1     		cbz	r0, .L102
 373:Core/Src/drive.c ****         }
 1498              		.loc 1 373 13 is_stmt 1 view .LVU428
 373:Core/Src/drive.c ****         }
 1499              		.loc 1 373 28 is_stmt 0 view .LVU429
 1500 006a 0C4B     		ldr	r3, .L109
 1501 006c 0022     		movs	r2, #0
 1502 006e 1A70     		strb	r2, [r3]
 1503 0070 DFE7     		b	.L103
 1504              	.L102:
 375:Core/Src/drive.c ****         {
 1505              		.loc 1 375 14 is_stmt 1 view .LVU430
 375:Core/Src/drive.c ****         {
 1506              		.loc 1 375 33 is_stmt 0 view .LVU431
 1507 0072 0A4B     		ldr	r3, .L109
 1508 0074 1B78     		ldrb	r3, [r3]	@ zero_extendqisi2
 375:Core/Src/drive.c ****         {
 1509              		.loc 1 375 17 view .LVU432
 1510 0076 FF2B     		cmp	r3, #255
 1511 0078 DBD0     		beq	.L103
ARM GAS  C:\Users\user\AppData\Local\Temp\ccEq0Nch.s 			page 42


 375:Core/Src/drive.c ****         {
 1512              		.loc 1 375 42 discriminator 1 view .LVU433
 1513 007a 0133     		adds	r3, r3, #1
 1514 007c DBB2     		uxtb	r3, r3
 375:Core/Src/drive.c ****         {
 1515              		.loc 1 375 39 discriminator 1 view .LVU434
 1516 007e 074A     		ldr	r2, .L109
 1517 0080 1370     		strb	r3, [r2]
 1518 0082 022B     		cmp	r3, #2
 1519 0084 D5D9     		bls	.L103
 377:Core/Src/drive.c ****             brake_enter(in);      /* ьзДьзЬ ьаХый┤ы▓╜ эЩХьаХ тЖТ ыКеыПЩ ьаЬыПЩ тЖТ brake_runьЭ┤ REV
 1520              		.loc 1 377 13 is_stmt 1 view .LVU435
 377:Core/Src/drive.c ****             brake_enter(in);      /* ьзДьзЬ ьаХый┤ы▓╜ эЩХьаХ тЖТ ыКеыПЩ ьаЬыПЩ тЖТ brake_runьЭ┤ REV
 1521              		.loc 1 377 28 is_stmt 0 view .LVU436
 1522 0086 074A     		ldr	r2, .L109+8
 1523 0088 1370     		strb	r3, [r2]
 378:Core/Src/drive.c ****             return;
 1524              		.loc 1 378 13 is_stmt 1 view .LVU437
 1525 008a 2046     		mov	r0, r4
 1526              	.LVL128:
 378:Core/Src/drive.c ****             return;
 1527              		.loc 1 378 13 is_stmt 0 view .LVU438
 1528 008c FFF7FEFF 		bl	brake_enter
 1529              	.LVL129:
 379:Core/Src/drive.c ****         }
 1530              		.loc 1 379 13 is_stmt 1 view .LVU439
 1531 0090 DDE7     		b	.L96
 1532              	.LVL130:
 1533              	.L108:
 379:Core/Src/drive.c ****         }
 1534              		.loc 1 379 13 is_stmt 0 view .LVU440
 1535              	.LBE6:
 391:Core/Src/drive.c **** 
 1536              		.loc 1 391 33 is_stmt 1 discriminator 1 view .LVU441
 1537 0092 2046     		mov	r0, r4
 1538 0094 FFF7FEFF 		bl	side_avoid_enter
 1539              	.LVL131:
 391:Core/Src/drive.c **** 
 1540              		.loc 1 391 55 discriminator 1 view .LVU442
 391:Core/Src/drive.c **** 
 1541              		.loc 1 391 55 is_stmt 0 view .LVU443
 1542 0098 D9E7     		b	.L96
 1543              	.L110:
 1544 009a 00BF     		.align	2
 1545              	.L109:
 1546 009c 00000000 		.word	front_near_cnt
 1547 00a0 00000000 		.word	dbg_graze
 1548 00a4 00000000 		.word	dbg_front_near
 1549              		.cfi_endproc
 1550              	.LFE148:
 1552              		.section	.text.reverse_enter,"ax",%progbits
 1553              		.align	1
 1554              		.syntax unified
 1555              		.thumb
 1556              		.thumb_func
 1558              	reverse_enter:
 1559              	.LVL132:
ARM GAS  C:\Users\user\AppData\Local\Temp\ccEq0Nch.s 			page 43


 1560              	.LFB143:
 284:Core/Src/drive.c ****     Car_Backward(DRIVE_SPEED);
 1561              		.loc 1 284 1 is_stmt 1 view -0
 1562              		.cfi_startproc
 1563              		@ args = 0, pretend = 0, frame = 0
 1564              		@ frame_needed = 0, uses_anonymous_args = 0
 284:Core/Src/drive.c ****     Car_Backward(DRIVE_SPEED);
 1565              		.loc 1 284 1 is_stmt 0 view .LVU445
 1566 0000 10B5     		push	{r4, lr}
 1567              	.LCFI17:
 1568              		.cfi_def_cfa_offset 8
 1569              		.cfi_offset 4, -8
 1570              		.cfi_offset 14, -4
 1571 0002 0446     		mov	r4, r0
 285:Core/Src/drive.c ****     if (rev_cnt < 255) rev_cnt++;
 1572              		.loc 1 285 5 is_stmt 1 view .LVU446
 1573 0004 2820     		movs	r0, #40
 1574              	.LVL133:
 285:Core/Src/drive.c ****     if (rev_cnt < 255) rev_cnt++;
 1575              		.loc 1 285 5 is_stmt 0 view .LVU447
 1576 0006 FFF7FEFF 		bl	Car_Backward
 1577              	.LVL134:
 286:Core/Src/drive.c ****     enter(DS_REVERSE, in->now);
 1578              		.loc 1 286 5 is_stmt 1 view .LVU448
 286:Core/Src/drive.c ****     enter(DS_REVERSE, in->now);
 1579              		.loc 1 286 17 is_stmt 0 view .LVU449
 1580 000a 064B     		ldr	r3, .L114
 1581 000c 1B78     		ldrb	r3, [r3]	@ zero_extendqisi2
 286:Core/Src/drive.c ****     enter(DS_REVERSE, in->now);
 1582              		.loc 1 286 8 view .LVU450
 1583 000e FF2B     		cmp	r3, #255
 1584 0010 02D0     		beq	.L112
 286:Core/Src/drive.c ****     enter(DS_REVERSE, in->now);
 1585              		.loc 1 286 24 is_stmt 1 discriminator 1 view .LVU451
 286:Core/Src/drive.c ****     enter(DS_REVERSE, in->now);
 1586              		.loc 1 286 31 is_stmt 0 discriminator 1 view .LVU452
 1587 0012 0133     		adds	r3, r3, #1
 1588 0014 034A     		ldr	r2, .L114
 1589 0016 1370     		strb	r3, [r2]
 1590              	.L112:
 287:Core/Src/drive.c **** }
 1591              		.loc 1 287 5 is_stmt 1 view .LVU453
 1592 0018 2169     		ldr	r1, [r4, #16]
 1593 001a 0320     		movs	r0, #3
 1594 001c FFF7FEFF 		bl	enter
 1595              	.LVL135:
 288:Core/Src/drive.c **** 
 1596              		.loc 1 288 1 is_stmt 0 view .LVU454
 1597 0020 10BD     		pop	{r4, pc}
 1598              	.LVL136:
 1599              	.L115:
 288:Core/Src/drive.c **** 
 1600              		.loc 1 288 1 view .LVU455
 1601 0022 00BF     		.align	2
 1602              	.L114:
 1603 0024 00000000 		.word	rev_cnt
 1604              		.cfi_endproc
ARM GAS  C:\Users\user\AppData\Local\Temp\ccEq0Nch.s 			page 44


 1605              	.LFE143:
 1607              		.section	.text.brake_run,"ax",%progbits
 1608              		.align	1
 1609              		.syntax unified
 1610              		.thumb
 1611              		.thumb_func
 1613              	brake_run:
 1614              	.LVL137:
 1615              	.LFB149:
 400:Core/Src/drive.c ****     if ((in->now - t_state) < (uint32_t)BRAKE_MS) return;   /* ьаЬыПЩ ьЬаьзА ьдС */
 1616              		.loc 1 400 1 is_stmt 1 view -0
 1617              		.cfi_startproc
 1618              		@ args = 0, pretend = 0, frame = 0
 1619              		@ frame_needed = 0, uses_anonymous_args = 0
 401:Core/Src/drive.c **** 
 1620              		.loc 1 401 5 view .LVU457
 401:Core/Src/drive.c **** 
 1621              		.loc 1 401 12 is_stmt 0 view .LVU458
 1622 0000 0369     		ldr	r3, [r0, #16]
 401:Core/Src/drive.c **** 
 1623              		.loc 1 401 18 view .LVU459
 1624 0002 124A     		ldr	r2, .L125
 1625 0004 1268     		ldr	r2, [r2]
 1626 0006 9B1A     		subs	r3, r3, r2
 401:Core/Src/drive.c **** 
 1627              		.loc 1 401 8 view .LVU460
 1628 0008 772B     		cmp	r3, #119
 1629 000a 00D8     		bhi	.L123
 1630 000c 7047     		bx	lr
 1631              	.L123:
 400:Core/Src/drive.c ****     if ((in->now - t_state) < (uint32_t)BRAKE_MS) return;   /* ьаЬыПЩ ьЬаьзА ьдС */
 1632              		.loc 1 400 1 view .LVU461
 1633 000e 10B5     		push	{r4, lr}
 1634              	.LCFI18:
 1635              		.cfi_def_cfa_offset 8
 1636              		.cfi_offset 4, -8
 1637              		.cfi_offset 14, -4
 1638 0010 0446     		mov	r4, r0
 403:Core/Src/drive.c **** 
 1639              		.loc 1 403 5 is_stmt 1 view .LVU462
 1640 0012 FFF7FEFF 		bl	Car_Stop
 1641              	.LVL138:
 405:Core/Src/drive.c ****                         in->l < SIDE_BLOCK_CM   &&
 1642              		.loc 1 405 5 view .LVU463
 405:Core/Src/drive.c ****                         in->l < SIDE_BLOCK_CM   &&
 1643              		.loc 1 405 27 is_stmt 0 view .LVU464
 1644 0016 2388     		ldrh	r3, [r4]
 406:Core/Src/drive.c ****                         in->r < SIDE_BLOCK_CM);
 1645              		.loc 1 406 49 view .LVU465
 1646 0018 072B     		cmp	r3, #7
 1647 001a 09D8     		bhi	.L118
 406:Core/Src/drive.c ****                         in->r < SIDE_BLOCK_CM);
 1648              		.loc 1 406 27 discriminator 1 view .LVU466
 1649 001c 6388     		ldrh	r3, [r4, #2]
 405:Core/Src/drive.c ****                         in->l < SIDE_BLOCK_CM   &&
 1650              		.loc 1 405 49 view .LVU467
 1651 001e 032B     		cmp	r3, #3
ARM GAS  C:\Users\user\AppData\Local\Temp\ccEq0Nch.s 			page 45


 1652 0020 06D8     		bhi	.L118
 407:Core/Src/drive.c ****     if (dead_end && rev_cnt < REV_MAX_CHUNKS)
 1653              		.loc 1 407 27 view .LVU468
 1654 0022 A388     		ldrh	r3, [r4, #4]
 406:Core/Src/drive.c ****                         in->r < SIDE_BLOCK_CM);
 1655              		.loc 1 406 49 discriminator 4 view .LVU469
 1656 0024 032B     		cmp	r3, #3
 1657 0026 03D8     		bhi	.L118
 1658              	.LVL139:
 408:Core/Src/drive.c ****         reverse_enter(in);
 1659              		.loc 1 408 5 is_stmt 1 view .LVU470
 408:Core/Src/drive.c ****         reverse_enter(in);
 1660              		.loc 1 408 29 is_stmt 0 discriminator 1 view .LVU471
 1661 0028 094B     		ldr	r3, .L125+4
 1662 002a 1B78     		ldrb	r3, [r3]	@ zero_extendqisi2
 408:Core/Src/drive.c ****         reverse_enter(in);
 1663              		.loc 1 408 18 discriminator 1 view .LVU472
 1664 002c 022B     		cmp	r3, #2
 1665 002e 08D9     		bls	.L124
 1666              	.LVL140:
 1667              	.L118:
 411:Core/Src/drive.c **** }
 1668              		.loc 1 411 9 is_stmt 1 view .LVU473
 1669 0030 074B     		ldr	r3, .L125+4
 1670 0032 1978     		ldrb	r1, [r3]	@ zero_extendqisi2
 1671 0034 0039     		subs	r1, r1, #0
 1672 0036 18BF     		it	ne
 1673 0038 0121     		movne	r1, #1
 1674 003a 2046     		mov	r0, r4
 1675 003c FFF7FEFF 		bl	spin_enter
 1676              	.LVL141:
 1677              	.L116:
 412:Core/Src/drive.c **** 
 1678              		.loc 1 412 1 is_stmt 0 view .LVU474
 1679 0040 10BD     		pop	{r4, pc}
 1680              	.LVL142:
 1681              	.L124:
 409:Core/Src/drive.c ****     else
 1682              		.loc 1 409 9 is_stmt 1 view .LVU475
 1683 0042 2046     		mov	r0, r4
 1684 0044 FFF7FEFF 		bl	reverse_enter
 1685              	.LVL143:
 1686 0048 FAE7     		b	.L116
 1687              	.L126:
 1688 004a 00BF     		.align	2
 1689              	.L125:
 1690 004c 00000000 		.word	t_state
 1691 0050 00000000 		.word	rev_cnt
 1692              		.cfi_endproc
 1693              	.LFE149:
 1695              		.section	.text.reverse_run,"ax",%progbits
 1696              		.align	1
 1697              		.syntax unified
 1698              		.thumb
 1699              		.thumb_func
 1701              	reverse_run:
 1702              	.LVL144:
ARM GAS  C:\Users\user\AppData\Local\Temp\ccEq0Nch.s 			page 46


 1703              	.LFB152:
 547:Core/Src/drive.c ****     if ((in->now - t_state) >= (uint32_t)BACK_CHUNK_MS)
 1704              		.loc 1 547 1 view -0
 1705              		.cfi_startproc
 1706              		@ args = 0, pretend = 0, frame = 0
 1707              		@ frame_needed = 0, uses_anonymous_args = 0
 547:Core/Src/drive.c ****     if ((in->now - t_state) >= (uint32_t)BACK_CHUNK_MS)
 1708              		.loc 1 547 1 is_stmt 0 view .LVU477
 1709 0000 08B5     		push	{r3, lr}
 1710              	.LCFI19:
 1711              		.cfi_def_cfa_offset 8
 1712              		.cfi_offset 3, -8
 1713              		.cfi_offset 14, -4
 548:Core/Src/drive.c ****     {
 1714              		.loc 1 548 5 is_stmt 1 view .LVU478
 548:Core/Src/drive.c ****     {
 1715              		.loc 1 548 12 is_stmt 0 view .LVU479
 1716 0002 0369     		ldr	r3, [r0, #16]
 548:Core/Src/drive.c ****     {
 1717              		.loc 1 548 18 view .LVU480
 1718 0004 064A     		ldr	r2, .L132
 1719 0006 1268     		ldr	r2, [r2]
 1720 0008 9B1A     		subs	r3, r3, r2
 548:Core/Src/drive.c ****     {
 1721              		.loc 1 548 8 view .LVU481
 1722 000a B3F5AF7F 		cmp	r3, #350
 1723 000e 03D2     		bcs	.L131
 553:Core/Src/drive.c **** }
 1724              		.loc 1 553 5 is_stmt 1 view .LVU482
 1725 0010 2820     		movs	r0, #40
 1726              	.LVL145:
 553:Core/Src/drive.c **** }
 1727              		.loc 1 553 5 is_stmt 0 view .LVU483
 1728 0012 FFF7FEFF 		bl	Car_Backward
 1729              	.LVL146:
 1730              	.L127:
 554:Core/Src/drive.c **** 
 1731              		.loc 1 554 1 view .LVU484
 1732 0016 08BD     		pop	{r3, pc}
 1733              	.LVL147:
 1734              	.L131:
 550:Core/Src/drive.c ****         return;
 1735              		.loc 1 550 9 is_stmt 1 view .LVU485
 1736 0018 FFF7FEFF 		bl	brake_enter
 1737              	.LVL148:
 551:Core/Src/drive.c ****     }
 1738              		.loc 1 551 9 view .LVU486
 1739 001c FBE7     		b	.L127
 1740              	.L133:
 1741 001e 00BF     		.align	2
 1742              	.L132:
 1743 0020 00000000 		.word	t_state
 1744              		.cfi_endproc
 1745              	.LFE152:
 1747              		.section	.text.spin_run,"ax",%progbits
 1748              		.align	1
 1749              		.syntax unified
ARM GAS  C:\Users\user\AppData\Local\Temp\ccEq0Nch.s 			page 47


 1750              		.thumb
 1751              		.thumb_func
 1753              	spin_run:
 1754              	.LVL149:
 1755              	.LFB150:
 416:Core/Src/drive.c ****     /* ызЙыЛдые╕ ъ││ тЖТ эЫДьзД (chunk ьШИьВ░ ыВ┤ьЧРьДЬызМ) */
 1756              		.loc 1 416 1 view -0
 1757              		.cfi_startproc
 1758              		@ args = 0, pretend = 0, frame = 0
 1759              		@ frame_needed = 0, uses_anonymous_args = 0
 416:Core/Src/drive.c ****     /* ызЙыЛдые╕ ъ││ тЖТ эЫДьзД (chunk ьШИьВ░ ыВ┤ьЧРьДЬызМ) */
 1760              		.loc 1 416 1 is_stmt 0 view .LVU488
 1761 0000 70B5     		push	{r4, r5, r6, lr}
 1762              	.LCFI20:
 1763              		.cfi_def_cfa_offset 16
 1764              		.cfi_offset 4, -16
 1765              		.cfi_offset 5, -12
 1766              		.cfi_offset 6, -8
 1767              		.cfi_offset 14, -4
 1768 0002 2DED028B 		vpush.64	{d8}
 1769              	.LCFI21:
 1770              		.cfi_def_cfa_offset 24
 1771              		.cfi_offset 80, -24
 1772              		.cfi_offset 81, -20
 1773 0006 0446     		mov	r4, r0
 418:Core/Src/drive.c ****         && rev_cnt < REV_MAX_CHUNKS)
 1774              		.loc 1 418 5 is_stmt 1 view .LVU489
 418:Core/Src/drive.c ****         && rev_cnt < REV_MAX_CHUNKS)
 1775              		.loc 1 418 11 is_stmt 0 view .LVU490
 1776 0008 0388     		ldrh	r3, [r0]
 418:Core/Src/drive.c ****         && rev_cnt < REV_MAX_CHUNKS)
 1777              		.loc 1 418 8 view .LVU491
 1778 000a 072B     		cmp	r3, #7
 1779 000c 09D8     		bhi	.L135
 418:Core/Src/drive.c ****         && rev_cnt < REV_MAX_CHUNKS)
 1780              		.loc 1 418 38 discriminator 1 view .LVU492
 1781 000e 4388     		ldrh	r3, [r0, #2]
 418:Core/Src/drive.c ****         && rev_cnt < REV_MAX_CHUNKS)
 1782              		.loc 1 418 33 discriminator 1 view .LVU493
 1783 0010 032B     		cmp	r3, #3
 1784 0012 06D8     		bhi	.L135
 418:Core/Src/drive.c ****         && rev_cnt < REV_MAX_CHUNKS)
 1785              		.loc 1 418 63 discriminator 2 view .LVU494
 1786 0014 8388     		ldrh	r3, [r0, #4]
 418:Core/Src/drive.c ****         && rev_cnt < REV_MAX_CHUNKS)
 1787              		.loc 1 418 58 discriminator 2 view .LVU495
 1788 0016 032B     		cmp	r3, #3
 1789 0018 03D8     		bhi	.L135
 419:Core/Src/drive.c ****     {
 1790              		.loc 1 419 20 view .LVU496
 1791 001a 694B     		ldr	r3, .L163
 1792 001c 1B78     		ldrb	r3, [r3]	@ zero_extendqisi2
 419:Core/Src/drive.c ****     {
 1793              		.loc 1 419 9 view .LVU497
 1794 001e 022B     		cmp	r3, #2
 1795 0020 63D9     		bls	.L158
 1796              	.L135:
ARM GAS  C:\Users\user\AppData\Local\Temp\ccEq0Nch.s 			page 48


 425:Core/Src/drive.c ****     {
 1797              		.loc 1 425 5 is_stmt 1 view .LVU498
 425:Core/Src/drive.c ****     {
 1798              		.loc 1 425 11 is_stmt 0 view .LVU499
 1799 0022 257B     		ldrb	r5, [r4, #12]	@ zero_extendqisi2
 425:Core/Src/drive.c ****     {
 1800              		.loc 1 425 8 view .LVU500
 1801 0024 002D     		cmp	r5, #0
 1802 0026 63D1     		bne	.L159
 1803              	.LVL150:
 1804              	.L137:
 444:Core/Src/drive.c ****     {
 1805              		.loc 1 444 5 is_stmt 1 view .LVU501
 444:Core/Src/drive.c ****     {
 1806              		.loc 1 444 12 is_stmt 0 view .LVU502
 1807 0028 2269     		ldr	r2, [r4, #16]
 444:Core/Src/drive.c ****     {
 1808              		.loc 1 444 18 view .LVU503
 1809 002a 664B     		ldr	r3, .L163+4
 1810 002c 1B68     		ldr	r3, [r3]
 1811 002e D31A     		subs	r3, r2, r3
 444:Core/Src/drive.c ****     {
 1812              		.loc 1 444 8 view .LVU504
 1813 0030 40F6C411 		movw	r1, #2500
 1814 0034 8B42     		cmp	r3, r1
 1815 0036 0ED9     		bls	.L140
 446:Core/Src/drive.c ****         turn_dir ^= 1;
 1816              		.loc 1 446 9 is_stmt 1 view .LVU505
 446:Core/Src/drive.c ****         turn_dir ^= 1;
 1817              		.loc 1 446 21 is_stmt 0 view .LVU506
 1818 0038 614B     		ldr	r3, .L163
 1819 003a 1B78     		ldrb	r3, [r3]	@ zero_extendqisi2
 446:Core/Src/drive.c ****         turn_dir ^= 1;
 1820              		.loc 1 446 12 view .LVU507
 1821 003c 022B     		cmp	r3, #2
 1822 003e 40F28880 		bls	.L160
 447:Core/Src/drive.c ****         t_state = in->now;
 1823              		.loc 1 447 9 is_stmt 1 view .LVU508
 447:Core/Src/drive.c ****         t_state = in->now;
 1824              		.loc 1 447 18 is_stmt 0 view .LVU509
 1825 0042 6149     		ldr	r1, .L163+8
 1826 0044 0B78     		ldrb	r3, [r1]	@ zero_extendqisi2
 1827 0046 83F00103 		eor	r3, r3, #1
 1828 004a 0B70     		strb	r3, [r1]
 448:Core/Src/drive.c ****         h_entry = in->heading;
 1829              		.loc 1 448 9 is_stmt 1 view .LVU510
 448:Core/Src/drive.c ****         h_entry = in->heading;
 1830              		.loc 1 448 17 is_stmt 0 view .LVU511
 1831 004c 5D4B     		ldr	r3, .L163+4
 1832 004e 1A60     		str	r2, [r3]
 449:Core/Src/drive.c ****     }
 1833              		.loc 1 449 9 is_stmt 1 view .LVU512
 449:Core/Src/drive.c ****     }
 1834              		.loc 1 449 21 is_stmt 0 view .LVU513
 1835 0050 A168     		ldr	r1, [r4, #8]	@ float
 449:Core/Src/drive.c ****     }
 1836              		.loc 1 449 17 view .LVU514
ARM GAS  C:\Users\user\AppData\Local\Temp\ccEq0Nch.s 			page 49


 1837 0052 5E4B     		ldr	r3, .L163+12
 1838 0054 1960     		str	r1, [r3]	@ float
 1839              	.L140:
 453:Core/Src/drive.c ****     {
 1840              		.loc 1 453 5 is_stmt 1 view .LVU515
 453:Core/Src/drive.c ****     {
 1841              		.loc 1 453 18 is_stmt 0 view .LVU516
 1842 0056 5B4B     		ldr	r3, .L163+4
 1843 0058 1B68     		ldr	r3, [r3]
 1844 005a D31A     		subs	r3, r2, r3
 453:Core/Src/drive.c ****     {
 1845              		.loc 1 453 8 view .LVU517
 1846 005c 952B     		cmp	r3, #149
 1847 005e 1CD9     		bls	.L142
 453:Core/Src/drive.c ****     {
 1848              		.loc 1 453 69 discriminator 1 view .LVU518
 1849 0060 5B4B     		ldr	r3, .L163+16
 1850 0062 1B78     		ldrb	r3, [r3]	@ zero_extendqisi2
 453:Core/Src/drive.c ****     {
 1851              		.loc 1 453 57 discriminator 1 view .LVU519
 1852 0064 CBB9     		cbnz	r3, .L142
 1853              	.LBB7:
 455:Core/Src/drive.c ****         uint16_t other   = (turn_dir == 0) ? in->r : in->l;
 1854              		.loc 1 455 9 is_stmt 1 view .LVU520
 455:Core/Src/drive.c ****         uint16_t other   = (turn_dir == 0) ? in->r : in->l;
 1855              		.loc 1 455 38 is_stmt 0 view .LVU521
 1856 0066 5849     		ldr	r1, .L163+8
 1857 0068 0878     		ldrb	r0, [r1]	@ zero_extendqisi2
 455:Core/Src/drive.c ****         uint16_t other   = (turn_dir == 0) ? in->r : in->l;
 1858              		.loc 1 455 18 view .LVU522
 1859 006a 0028     		cmp	r0, #0
 1860 006c 75D1     		bne	.L143
 455:Core/Src/drive.c ****         uint16_t other   = (turn_dir == 0) ? in->r : in->l;
 1861              		.loc 1 455 18 discriminator 1 view .LVU523
 1862 006e 6188     		ldrh	r1, [r4, #2]
 1863              	.L144:
 1864              	.LVL151:
 456:Core/Src/drive.c ****         if (latched < SIDE_BLOCK_CM && other > (uint16_t)(latched + SIDE_HYST))
 1865              		.loc 1 456 9 is_stmt 1 view .LVU524
 456:Core/Src/drive.c ****         if (latched < SIDE_BLOCK_CM && other > (uint16_t)(latched + SIDE_HYST))
 1866              		.loc 1 456 18 is_stmt 0 view .LVU525
 1867 0070 0028     		cmp	r0, #0
 1868 0072 74D1     		bne	.L145
 456:Core/Src/drive.c ****         if (latched < SIDE_BLOCK_CM && other > (uint16_t)(latched + SIDE_HYST))
 1869              		.loc 1 456 18 discriminator 1 view .LVU526
 1870 0074 A688     		ldrh	r6, [r4, #4]
 1871              	.L146:
 1872              	.LVL152:
 457:Core/Src/drive.c ****         {
 1873              		.loc 1 457 9 is_stmt 1 view .LVU527
 457:Core/Src/drive.c ****         {
 1874              		.loc 1 457 12 is_stmt 0 view .LVU528
 1875 0076 0329     		cmp	r1, #3
 1876 0078 0FD8     		bhi	.L142
 457:Core/Src/drive.c ****         {
 1877              		.loc 1 457 48 discriminator 1 view .LVU529
 1878 007a 0531     		adds	r1, r1, #5
ARM GAS  C:\Users\user\AppData\Local\Temp\ccEq0Nch.s 			page 50


 1879              	.LVL153:
 457:Core/Src/drive.c ****         {
 1880              		.loc 1 457 48 discriminator 1 view .LVU530
 1881 007c 89B2     		uxth	r1, r1
 457:Core/Src/drive.c ****         {
 1882              		.loc 1 457 37 discriminator 1 view .LVU531
 1883 007e B142     		cmp	r1, r6
 1884 0080 0BD2     		bcs	.L142
 459:Core/Src/drive.c ****             swap_cnt++;
 1885              		.loc 1 459 13 is_stmt 1 view .LVU532
 459:Core/Src/drive.c ****             swap_cnt++;
 1886              		.loc 1 459 22 is_stmt 0 view .LVU533
 1887 0082 80F00100 		eor	r0, r0, #1
 1888 0086 5049     		ldr	r1, .L163+8
 1889 0088 0870     		strb	r0, [r1]
 460:Core/Src/drive.c ****             t_state = in->now;
 1890              		.loc 1 460 13 is_stmt 1 view .LVU534
 460:Core/Src/drive.c ****             t_state = in->now;
 1891              		.loc 1 460 21 is_stmt 0 view .LVU535
 1892 008a 0133     		adds	r3, r3, #1
 1893 008c 5049     		ldr	r1, .L163+16
 1894 008e 0B70     		strb	r3, [r1]
 461:Core/Src/drive.c ****             h_entry = in->heading;
 1895              		.loc 1 461 13 is_stmt 1 view .LVU536
 461:Core/Src/drive.c ****             h_entry = in->heading;
 1896              		.loc 1 461 21 is_stmt 0 view .LVU537
 1897 0090 4C4B     		ldr	r3, .L163+4
 1898 0092 1A60     		str	r2, [r3]
 462:Core/Src/drive.c ****         }
 1899              		.loc 1 462 13 is_stmt 1 view .LVU538
 462:Core/Src/drive.c ****         }
 1900              		.loc 1 462 25 is_stmt 0 view .LVU539
 1901 0094 A268     		ldr	r2, [r4, #8]	@ float
 462:Core/Src/drive.c ****         }
 1902              		.loc 1 462 21 view .LVU540
 1903 0096 4D4B     		ldr	r3, .L163+12
 1904 0098 1A60     		str	r2, [r3]	@ float
 1905              	.LVL154:
 1906              	.L142:
 462:Core/Src/drive.c ****         }
 1907              		.loc 1 462 21 view .LVU541
 1908              	.LBE7:
 468:Core/Src/drive.c ****     {
 1909              		.loc 1 468 5 is_stmt 1 view .LVU542
 468:Core/Src/drive.c ****     {
 1910              		.loc 1 468 11 is_stmt 0 view .LVU543
 1911 009a 2688     		ldrh	r6, [r4]
 468:Core/Src/drive.c ****     {
 1912              		.loc 1 468 8 view .LVU544
 1913 009c 1D2E     		cmp	r6, #29
 1914 009e 60D9     		bls	.L147
 468:Core/Src/drive.c ****     {
 1915              		.loc 1 468 38 discriminator 1 view .LVU545
 1916 00a0 A379     		ldrb	r3, [r4, #6]	@ zero_extendqisi2
 468:Core/Src/drive.c ****     {
 1917              		.loc 1 468 33 discriminator 1 view .LVU546
 1918 00a2 002B     		cmp	r3, #0
ARM GAS  C:\Users\user\AppData\Local\Temp\ccEq0Nch.s 			page 51


 1919 00a4 5DD0     		beq	.L147
 470:Core/Src/drive.c ****         if (clear_cnt >= CLEAR_CONFIRM &&
 1920              		.loc 1 470 9 is_stmt 1 view .LVU547
 470:Core/Src/drive.c ****         if (clear_cnt >= CLEAR_CONFIRM &&
 1921              		.loc 1 470 23 is_stmt 0 view .LVU548
 1922 00a6 4B4B     		ldr	r3, .L163+20
 1923 00a8 1B78     		ldrb	r3, [r3]	@ zero_extendqisi2
 470:Core/Src/drive.c ****         if (clear_cnt >= CLEAR_CONFIRM &&
 1924              		.loc 1 470 12 view .LVU549
 1925 00aa FF2B     		cmp	r3, #255
 1926 00ac 02D0     		beq	.L148
 470:Core/Src/drive.c ****         if (clear_cnt >= CLEAR_CONFIRM &&
 1927              		.loc 1 470 30 is_stmt 1 discriminator 1 view .LVU550
 470:Core/Src/drive.c ****         if (clear_cnt >= CLEAR_CONFIRM &&
 1928              		.loc 1 470 39 is_stmt 0 discriminator 1 view .LVU551
 1929 00ae 0133     		adds	r3, r3, #1
 1930 00b0 484A     		ldr	r2, .L163+20
 1931 00b2 1370     		strb	r3, [r2]
 1932              	.L148:
 471:Core/Src/drive.c ****             (!in->imu_live || fabsf(wrap180(in->heading - h_entry)) >= TURN_MIN_DEG))
 1933              		.loc 1 471 9 is_stmt 1 view .LVU552
 471:Core/Src/drive.c ****             (!in->imu_live || fabsf(wrap180(in->heading - h_entry)) >= TURN_MIN_DEG))
 1934              		.loc 1 471 23 is_stmt 0 view .LVU553
 1935 00b4 474B     		ldr	r3, .L163+20
 1936 00b6 1B78     		ldrb	r3, [r3]	@ zero_extendqisi2
 471:Core/Src/drive.c ****             (!in->imu_live || fabsf(wrap180(in->heading - h_entry)) >= TURN_MIN_DEG))
 1937              		.loc 1 471 12 view .LVU554
 1938 00b8 042B     		cmp	r3, #4
 1939 00ba 57D9     		bls	.L149
 471:Core/Src/drive.c ****             (!in->imu_live || fabsf(wrap180(in->heading - h_entry)) >= TURN_MIN_DEG))
 1940              		.loc 1 471 40 discriminator 1 view .LVU555
 1941 00bc 8DB1     		cbz	r5, .L150
 472:Core/Src/drive.c ****         {
 1942              		.loc 1 472 47 view .LVU556
 1943 00be 94ED020A 		vldr.32	s0, [r4, #8]
 472:Core/Src/drive.c ****         {
 1944              		.loc 1 472 37 view .LVU557
 1945 00c2 424B     		ldr	r3, .L163+12
 1946 00c4 D3ED007A 		vldr.32	s15, [r3]
 1947 00c8 30EE670A 		vsub.f32	s0, s0, s15
 1948 00cc FFF7FEFF 		bl	wrap180
 1949              	.LVL155:
 472:Core/Src/drive.c ****         {
 1950              		.loc 1 472 31 discriminator 1 view .LVU558
 1951 00d0 B0EEC00A 		vabs.f32	s0, s0
 472:Core/Src/drive.c ****         {
 1952              		.loc 1 472 28 discriminator 1 view .LVU559
 1953 00d4 DFED407A 		vldr.32	s15, .L163+24
 1954 00d8 B4EEE70A 		vcmpe.f32	s0, s15
 1955 00dc F1EE10FA 		vmrs	APSR_nzcv, FPSCR
 1956 00e0 44DB     		blt	.L149
 1957              	.L150:
 474:Core/Src/drive.c ****             return;
 1958              		.loc 1 474 13 is_stmt 1 view .LVU560
 1959 00e2 2046     		mov	r0, r4
 1960 00e4 FFF7FEFF 		bl	cruise_enter
 1961              	.LVL156:
ARM GAS  C:\Users\user\AppData\Local\Temp\ccEq0Nch.s 			page 52


 475:Core/Src/drive.c ****         }
 1962              		.loc 1 475 13 view .LVU561
 1963 00e8 4AE0     		b	.L134
 1964              	.LVL157:
 1965              	.L158:
 421:Core/Src/drive.c ****         return;
 1966              		.loc 1 421 9 view .LVU562
 1967 00ea FFF7FEFF 		bl	reverse_enter
 1968              	.LVL158:
 422:Core/Src/drive.c ****     }
 1969              		.loc 1 422 9 view .LVU563
 1970 00ee 47E0     		b	.L134
 1971              	.LVL159:
 1972              	.L159:
 427:Core/Src/drive.c **** 
 1973              		.loc 1 427 9 view .LVU564
 427:Core/Src/drive.c **** 
 1974              		.loc 1 427 34 is_stmt 0 view .LVU565
 1975 00f0 94ED028A 		vldr.32	s16, [r4, #8]
 427:Core/Src/drive.c **** 
 1976              		.loc 1 427 24 view .LVU566
 1977 00f4 354B     		ldr	r3, .L163+12
 1978 00f6 93ED000A 		vldr.32	s0, [r3]
 1979 00fa 38EE400A 		vsub.f32	s0, s16, s0
 1980 00fe FFF7FEFF 		bl	wrap180
 1981              	.LVL160:
 427:Core/Src/drive.c **** 
 1982              		.loc 1 427 22 discriminator 1 view .LVU567
 1983 0102 364B     		ldr	r3, .L163+28
 1984 0104 83ED000A 		vstr.32	s0, [r3]
 430:Core/Src/drive.c ****         {
 1985              		.loc 1 430 9 is_stmt 1 view .LVU568
 430:Core/Src/drive.c ****         {
 1986              		.loc 1 430 16 is_stmt 0 view .LVU569
 1987 0108 2669     		ldr	r6, [r4, #16]
 430:Core/Src/drive.c ****         {
 1988              		.loc 1 430 22 view .LVU570
 1989 010a 354B     		ldr	r3, .L163+32
 1990 010c 1B68     		ldr	r3, [r3]
 1991 010e F31A     		subs	r3, r6, r3
 430:Core/Src/drive.c ****         {
 1992              		.loc 1 430 12 view .LVU571
 1993 0110 B3F5C87F 		cmp	r3, #400
 1994 0114 88D3     		bcc	.L137
 432:Core/Src/drive.c ****                 && rev_cnt < REV_MAX_CHUNKS)
 1995              		.loc 1 432 13 is_stmt 1 view .LVU572
 432:Core/Src/drive.c ****                 && rev_cnt < REV_MAX_CHUNKS)
 1996              		.loc 1 432 23 is_stmt 0 view .LVU573
 1997 0116 334B     		ldr	r3, .L163+36
 1998 0118 93ED000A 		vldr.32	s0, [r3]
 1999 011c 38EE400A 		vsub.f32	s0, s16, s0
 2000 0120 FFF7FEFF 		bl	wrap180
 2001              	.LVL161:
 432:Core/Src/drive.c ****                 && rev_cnt < REV_MAX_CHUNKS)
 2002              		.loc 1 432 17 discriminator 1 view .LVU574
 2003 0124 B0EEC00A 		vabs.f32	s0, s0
 432:Core/Src/drive.c ****                 && rev_cnt < REV_MAX_CHUNKS)
ARM GAS  C:\Users\user\AppData\Local\Temp\ccEq0Nch.s 			page 53


 2004              		.loc 1 432 16 discriminator 1 view .LVU575
 2005 0128 F2EE007A 		vmov.f32	s15, #8.0e+0
 2006 012c B4EEE70A 		vcmpe.f32	s0, s15
 2007 0130 F1EE10FA 		vmrs	APSR_nzcv, FPSCR
 2008 0134 03D5     		bpl	.L138
 433:Core/Src/drive.c ****             {
 2009              		.loc 1 433 28 view .LVU576
 2010 0136 224B     		ldr	r3, .L163
 2011 0138 1B78     		ldrb	r3, [r3]	@ zero_extendqisi2
 433:Core/Src/drive.c ****             {
 2012              		.loc 1 433 17 view .LVU577
 2013 013a 022B     		cmp	r3, #2
 2014 013c 05D9     		bls	.L161
 2015              	.L138:
 438:Core/Src/drive.c ****             t_stuck = in->now;
 2016              		.loc 1 438 13 is_stmt 1 view .LVU578
 438:Core/Src/drive.c ****             t_stuck = in->now;
 2017              		.loc 1 438 21 is_stmt 0 view .LVU579
 2018 013e 294B     		ldr	r3, .L163+36
 2019 0140 83ED008A 		vstr.32	s16, [r3]
 439:Core/Src/drive.c ****         }
 2020              		.loc 1 439 13 is_stmt 1 view .LVU580
 439:Core/Src/drive.c ****         }
 2021              		.loc 1 439 21 is_stmt 0 view .LVU581
 2022 0144 264B     		ldr	r3, .L163+32
 2023 0146 1E60     		str	r6, [r3]
 2024 0148 6EE7     		b	.L137
 2025              	.L161:
 435:Core/Src/drive.c ****                 return;
 2026              		.loc 1 435 17 is_stmt 1 view .LVU582
 2027 014a 2046     		mov	r0, r4
 2028 014c FFF7FEFF 		bl	reverse_enter
 2029              	.LVL162:
 436:Core/Src/drive.c ****             }
 2030              		.loc 1 436 17 view .LVU583
 2031 0150 16E0     		b	.L134
 2032              	.L160:
 446:Core/Src/drive.c ****         turn_dir ^= 1;
 2033              		.loc 1 446 41 discriminator 1 view .LVU584
 2034 0152 2046     		mov	r0, r4
 2035 0154 FFF7FEFF 		bl	reverse_enter
 2036              	.LVL163:
 446:Core/Src/drive.c ****         turn_dir ^= 1;
 2037              		.loc 1 446 60 discriminator 1 view .LVU585
 446:Core/Src/drive.c ****         turn_dir ^= 1;
 2038              		.loc 1 446 60 is_stmt 0 view .LVU586
 2039 0158 12E0     		b	.L134
 2040              	.L143:
 2041              	.LBB8:
 455:Core/Src/drive.c ****         uint16_t other   = (turn_dir == 0) ? in->r : in->l;
 2042              		.loc 1 455 18 discriminator 2 view .LVU587
 2043 015a A188     		ldrh	r1, [r4, #4]
 2044 015c 88E7     		b	.L144
 2045              	.LVL164:
 2046              	.L145:
 456:Core/Src/drive.c ****         if (latched < SIDE_BLOCK_CM && other > (uint16_t)(latched + SIDE_HYST))
 2047              		.loc 1 456 18 discriminator 2 view .LVU588
ARM GAS  C:\Users\user\AppData\Local\Temp\ccEq0Nch.s 			page 54


 2048 015e 6688     		ldrh	r6, [r4, #2]
 2049 0160 89E7     		b	.L146
 2050              	.LVL165:
 2051              	.L147:
 456:Core/Src/drive.c ****         if (latched < SIDE_BLOCK_CM && other > (uint16_t)(latched + SIDE_HYST))
 2052              		.loc 1 456 18 discriminator 2 view .LVU589
 2053              	.LBE8:
 478:Core/Src/drive.c ****     {
 2054              		.loc 1 478 10 is_stmt 1 view .LVU590
 478:Core/Src/drive.c ****     {
 2055              		.loc 1 478 13 is_stmt 0 view .LVU591
 2056 0162 1D2E     		cmp	r6, #29
 2057 0164 02D8     		bhi	.L149
 480:Core/Src/drive.c ****     }
 2058              		.loc 1 480 9 is_stmt 1 view .LVU592
 480:Core/Src/drive.c ****     }
 2059              		.loc 1 480 19 is_stmt 0 view .LVU593
 2060 0166 1B4B     		ldr	r3, .L163+20
 2061 0168 0022     		movs	r2, #0
 2062 016a 1A70     		strb	r2, [r3]
 2063              	.L149:
 486:Core/Src/drive.c ****         && fabsf(wrap180(in->heading - h_entry)) >= TURN_TARGET_DEG
 2064              		.loc 1 486 5 is_stmt 1 view .LVU594
 486:Core/Src/drive.c ****         && fabsf(wrap180(in->heading - h_entry)) >= TURN_TARGET_DEG
 2065              		.loc 1 486 8 is_stmt 0 view .LVU595
 2066 016c 0DB1     		cbz	r5, .L152
 486:Core/Src/drive.c ****         && fabsf(wrap180(in->heading - h_entry)) >= TURN_TARGET_DEG
 2067              		.loc 1 486 27 discriminator 1 view .LVU596
 2068 016e A379     		ldrb	r3, [r4, #6]	@ zero_extendqisi2
 486:Core/Src/drive.c ****         && fabsf(wrap180(in->heading - h_entry)) >= TURN_TARGET_DEG
 2069              		.loc 1 486 22 discriminator 1 view .LVU597
 2070 0170 4BB9     		cbnz	r3, .L162
 2071              	.L152:
 495:Core/Src/drive.c ****     else               Car_PivotRight(TURN_SPEED, TURN_INNER);
 2072              		.loc 1 495 5 is_stmt 1 view .LVU598
 495:Core/Src/drive.c ****     else               Car_PivotRight(TURN_SPEED, TURN_INNER);
 2073              		.loc 1 495 18 is_stmt 0 view .LVU599
 2074 0172 154B     		ldr	r3, .L163+8
 2075 0174 1B78     		ldrb	r3, [r3]	@ zero_extendqisi2
 495:Core/Src/drive.c ****     else               Car_PivotRight(TURN_SPEED, TURN_INNER);
 2076              		.loc 1 495 8 view .LVU600
 2077 0176 F3B9     		cbnz	r3, .L154
 495:Core/Src/drive.c ****     else               Car_PivotRight(TURN_SPEED, TURN_INNER);
 2078              		.loc 1 495 24 is_stmt 1 discriminator 1 view .LVU601
 2079 0178 3421     		movs	r1, #52
 2080 017a 2A20     		movs	r0, #42
 2081 017c FFF7FEFF 		bl	Car_PivotLeft
 2082              	.LVL166:
 2083              	.L134:
 497:Core/Src/drive.c **** 
 2084              		.loc 1 497 1 is_stmt 0 view .LVU602
 2085 0180 BDEC028B 		vldm	sp!, {d8}
 2086              	.LCFI22:
 2087              		.cfi_remember_state
 2088              		.cfi_restore 80
 2089              		.cfi_restore 81
 2090              		.cfi_def_cfa_offset 16
ARM GAS  C:\Users\user\AppData\Local\Temp\ccEq0Nch.s 			page 55


 2091 0184 70BD     		pop	{r4, r5, r6, pc}
 2092              	.LVL167:
 2093              	.L162:
 2094              	.LCFI23:
 2095              		.cfi_restore_state
 487:Core/Src/drive.c ****         && in->f >= FRONT_TURN_CM)
 2096              		.loc 1 487 28 view .LVU603
 2097 0186 94ED020A 		vldr.32	s0, [r4, #8]
 487:Core/Src/drive.c ****         && in->f >= FRONT_TURN_CM)
 2098              		.loc 1 487 18 view .LVU604
 2099 018a 104B     		ldr	r3, .L163+12
 2100 018c D3ED007A 		vldr.32	s15, [r3]
 2101 0190 30EE670A 		vsub.f32	s0, s0, s15
 2102 0194 FFF7FEFF 		bl	wrap180
 2103              	.LVL168:
 487:Core/Src/drive.c ****         && in->f >= FRONT_TURN_CM)
 2104              		.loc 1 487 12 discriminator 1 view .LVU605
 2105 0198 B0EEC00A 		vabs.f32	s0, s0
 487:Core/Src/drive.c ****         && in->f >= FRONT_TURN_CM)
 2106              		.loc 1 487 9 discriminator 1 view .LVU606
 2107 019c DFED127A 		vldr.32	s15, .L163+40
 2108 01a0 B4EEE70A 		vcmpe.f32	s0, s15
 2109 01a4 F1EE10FA 		vmrs	APSR_nzcv, FPSCR
 2110 01a8 E3DB     		blt	.L152
 488:Core/Src/drive.c ****     {
 2111              		.loc 1 488 9 view .LVU607
 2112 01aa 152E     		cmp	r6, #21
 2113 01ac E1D9     		bls	.L152
 490:Core/Src/drive.c ****         return;
 2114              		.loc 1 490 9 is_stmt 1 view .LVU608
 2115 01ae 2046     		mov	r0, r4
 2116 01b0 FFF7FEFF 		bl	cruise_enter
 2117              	.LVL169:
 491:Core/Src/drive.c ****     }
 2118              		.loc 1 491 9 view .LVU609
 2119 01b4 E4E7     		b	.L134
 2120              	.L154:
 496:Core/Src/drive.c **** }
 2121              		.loc 1 496 24 view .LVU610
 2122 01b6 3421     		movs	r1, #52
 2123 01b8 2A20     		movs	r0, #42
 2124 01ba FFF7FEFF 		bl	Car_PivotRight
 2125              	.LVL170:
 2126 01be DFE7     		b	.L134
 2127              	.L164:
 2128              		.align	2
 2129              	.L163:
 2130 01c0 00000000 		.word	rev_cnt
 2131 01c4 00000000 		.word	t_state
 2132 01c8 00000000 		.word	turn_dir
 2133 01cc 00000000 		.word	h_entry
 2134 01d0 00000000 		.word	swap_cnt
 2135 01d4 00000000 		.word	clear_cnt
 2136 01d8 00007042 		.word	1114636288
 2137 01dc 00000000 		.word	dbg_spin_deg
 2138 01e0 00000000 		.word	t_stuck
 2139 01e4 00000000 		.word	h_stuck
ARM GAS  C:\Users\user\AppData\Local\Temp\ccEq0Nch.s 			page 56


 2140 01e8 0000AA42 		.word	1118437376
 2141              		.cfi_endproc
 2142              	.LFE150:
 2144              		.section	.text.side_avoid_run,"ax",%progbits
 2145              		.align	1
 2146              		.syntax unified
 2147              		.thumb
 2148              		.thumb_func
 2150              	side_avoid_run:
 2151              	.LVL171:
 2152              	.LFB154:
 572:Core/Src/drive.c **** 
 573:Core/Src/drive.c **** /* SIDE_AVOID: ь╕бы▓╜ ы░Хъ╕░ьзБьаД ы╣ДьГБ эЪМэФ╝. ы░ХэЮМ ьк╜ ы░ШыМАыбЬ ьаЬьЮРыжм эФ╝ы▓ЧэХШый░ ь╕бый
 574:Core/Src/drive.c **** static void side_avoid_run(const DriveInputs *in)
 575:Core/Src/drive.c **** {
 2153              		.loc 1 575 1 view -0
 2154              		.cfi_startproc
 2155              		@ args = 0, pretend = 0, frame = 0
 2156              		@ frame_needed = 0, uses_anonymous_args = 0
 2157              		.loc 1 575 1 is_stmt 0 view .LVU612
 2158 0000 08B5     		push	{r3, lr}
 2159              	.LCFI24:
 2160              		.cfi_def_cfa_offset 8
 2161              		.cfi_offset 3, -8
 2162              		.cfi_offset 14, -4
 576:Core/Src/drive.c ****     /* ьаХый┤ ьЬДъ╕Й ьЪ░ьДа тАФ ь╕бый┤ эФ╝эХШыЛд ьаХый┤ ы░ХыКФ ъ▓Г ы░йьзА */
 577:Core/Src/drive.c ****     if (in->f < FRONT_STOP_CM) { brake_enter(in); return; }
 2163              		.loc 1 577 5 is_stmt 1 view .LVU613
 2164              		.loc 1 577 11 is_stmt 0 view .LVU614
 2165 0002 0388     		ldrh	r3, [r0]
 2166              		.loc 1 577 8 view .LVU615
 2167 0004 0E2B     		cmp	r3, #14
 2168 0006 1CD9     		bls	.L172
 578:Core/Src/drive.c **** 
 579:Core/Src/drive.c ****     /* ь╕бый┤ эК╕ьЮД(эЮИьКдэЕМыжмьЛЬьКд) тЖТ CRUISE ы│╡ъ╖А. cruise_enterъ░А h_ref ъ░▒ьЛа = ьГИ ьзДэ
 580:Core/Src/drive.c ****     uint16_t smin = (in->l < in->r) ? in->l : in->r;
 2169              		.loc 1 580 5 is_stmt 1 view .LVU616
 2170              		.loc 1 580 32 is_stmt 0 view .LVU617
 2171 0008 8388     		ldrh	r3, [r0, #4]
 2172              		.loc 1 580 24 view .LVU618
 2173 000a 4288     		ldrh	r2, [r0, #2]
 2174              		.loc 1 580 14 view .LVU619
 2175 000c 9342     		cmp	r3, r2
 2176 000e 28BF     		it	cs
 2177 0010 1346     		movcs	r3, r2
 2178              	.LVL172:
 581:Core/Src/drive.c ****     if (smin >= SIDE_AVOID_CLEAR_CM) { cruise_enter(in); return; }
 2179              		.loc 1 581 5 is_stmt 1 view .LVU620
 2180              		.loc 1 581 8 is_stmt 0 view .LVU621
 2181 0012 052B     		cmp	r3, #5
 2182 0014 18D8     		bhi	.L173
 582:Core/Src/drive.c **** 
 583:Core/Src/drive.c ****     /* эХЬ ы░йэЦеьЬ╝ыбЬ ык╗ ы╣аьзАый┤ ы░йэЦе flip эЫД ьЮмьЛЬыПД (ьЦСьк╜ ьвБьЭА ыБ╝ьЮД ы░▒ьКдэЖ▒) */
 584:Core/Src/drive.c ****     if ((in->now - t_state) > (uint32_t)SIDE_AVOID_MAX_MS)
 2183              		.loc 1 584 5 is_stmt 1 view .LVU622
 2184              		.loc 1 584 12 is_stmt 0 view .LVU623
 2185 0016 0269     		ldr	r2, [r0, #16]
ARM GAS  C:\Users\user\AppData\Local\Temp\ccEq0Nch.s 			page 57


 2186              		.loc 1 584 18 view .LVU624
 2187 0018 0F4B     		ldr	r3, .L174
 2188              	.LVL173:
 2189              		.loc 1 584 18 view .LVU625
 2190 001a 1B68     		ldr	r3, [r3]
 2191 001c D31A     		subs	r3, r2, r3
 2192              		.loc 1 584 8 view .LVU626
 2193 001e B3F5167F 		cmp	r3, #600
 2194 0022 06D9     		bls	.L169
 585:Core/Src/drive.c ****     {
 586:Core/Src/drive.c ****         turn_dir ^= 1;
 2195              		.loc 1 586 9 is_stmt 1 view .LVU627
 2196              		.loc 1 586 18 is_stmt 0 view .LVU628
 2197 0024 0D49     		ldr	r1, .L174+4
 2198 0026 0B78     		ldrb	r3, [r1]	@ zero_extendqisi2
 2199 0028 83F00103 		eor	r3, r3, #1
 2200 002c 0B70     		strb	r3, [r1]
 587:Core/Src/drive.c ****         t_state = in->now;
 2201              		.loc 1 587 9 is_stmt 1 view .LVU629
 2202              		.loc 1 587 17 is_stmt 0 view .LVU630
 2203 002e 0A4B     		ldr	r3, .L174
 2204 0030 1A60     		str	r2, [r3]
 2205              	.L169:
 588:Core/Src/drive.c ****     }
 589:Core/Src/drive.c **** 
 590:Core/Src/drive.c ****     /* ы░ХэЮМ ьк╜ ы░ШыМАыбЬ ьаЬьЮРыжм эФ╝ы▓Ч (ьаДьзД 0 тАФ 'ыйИь╢Фъ│а ы░йэЦе ьЮбъ╕░') */
 591:Core/Src/drive.c ****     if (turn_dir == 0) Car_PivotLeft(TURN_SPEED, TURN_INNER);
 2206              		.loc 1 591 5 is_stmt 1 view .LVU631
 2207              		.loc 1 591 18 is_stmt 0 view .LVU632
 2208 0032 0A4B     		ldr	r3, .L174+4
 2209 0034 1B78     		ldrb	r3, [r3]	@ zero_extendqisi2
 2210              		.loc 1 591 8 view .LVU633
 2211 0036 53B9     		cbnz	r3, .L170
 2212              		.loc 1 591 24 is_stmt 1 discriminator 1 view .LVU634
 2213 0038 3421     		movs	r1, #52
 2214 003a 2A20     		movs	r0, #42
 2215              	.LVL174:
 2216              		.loc 1 591 24 is_stmt 0 discriminator 1 view .LVU635
 2217 003c FFF7FEFF 		bl	Car_PivotLeft
 2218              	.LVL175:
 2219              	.L165:
 592:Core/Src/drive.c ****     else               Car_PivotRight(TURN_SPEED, TURN_INNER);
 593:Core/Src/drive.c **** }
 2220              		.loc 1 593 1 view .LVU636
 2221 0040 08BD     		pop	{r3, pc}
 2222              	.LVL176:
 2223              	.L172:
 577:Core/Src/drive.c **** 
 2224              		.loc 1 577 34 is_stmt 1 discriminator 1 view .LVU637
 2225 0042 FFF7FEFF 		bl	brake_enter
 2226              	.LVL177:
 577:Core/Src/drive.c **** 
 2227              		.loc 1 577 51 discriminator 1 view .LVU638
 577:Core/Src/drive.c **** 
 2228              		.loc 1 577 51 is_stmt 0 view .LVU639
 2229 0046 FBE7     		b	.L165
 2230              	.LVL178:
ARM GAS  C:\Users\user\AppData\Local\Temp\ccEq0Nch.s 			page 58


 2231              	.L173:
 581:Core/Src/drive.c **** 
 2232              		.loc 1 581 40 is_stmt 1 discriminator 1 view .LVU640
 2233 0048 FFF7FEFF 		bl	cruise_enter
 2234              	.LVL179:
 581:Core/Src/drive.c **** 
 2235              		.loc 1 581 58 discriminator 1 view .LVU641
 581:Core/Src/drive.c **** 
 2236              		.loc 1 581 58 is_stmt 0 view .LVU642
 2237 004c F8E7     		b	.L165
 2238              	.LVL180:
 2239              	.L170:
 592:Core/Src/drive.c ****     else               Car_PivotRight(TURN_SPEED, TURN_INNER);
 2240              		.loc 1 592 24 is_stmt 1 view .LVU643
 2241 004e 3421     		movs	r1, #52
 2242 0050 2A20     		movs	r0, #42
 2243              	.LVL181:
 592:Core/Src/drive.c ****     else               Car_PivotRight(TURN_SPEED, TURN_INNER);
 2244              		.loc 1 592 24 is_stmt 0 view .LVU644
 2245 0052 FFF7FEFF 		bl	Car_PivotRight
 2246              	.LVL182:
 592:Core/Src/drive.c ****     else               Car_PivotRight(TURN_SPEED, TURN_INNER);
 2247              		.loc 1 592 24 view .LVU645
 2248 0056 F3E7     		b	.L165
 2249              	.L175:
 2250              		.align	2
 2251              	.L174:
 2252 0058 00000000 		.word	t_state
 2253 005c 00000000 		.word	turn_dir
 2254              		.cfi_endproc
 2255              	.LFE154:
 2257              		.section	.text.corner_run,"ax",%progbits
 2258              		.align	1
 2259              		.syntax unified
 2260              		.thumb
 2261              		.thumb_func
 2263              	corner_run:
 2264              	.LVL183:
 2265              	.LFB151:
 506:Core/Src/drive.c ****     /* ьХИьаД 1: ьХДэБм ьЛдэМи(ьаХый┤ ьЬДъ╕Й) тЖТ ьаХьзА эЫД ьаЬьЮРыжм эФ╝ы▓ЧьЬ╝ыбЬ ызИым┤ыжм */
 2266              		.loc 1 506 1 is_stmt 1 view -0
 2267              		.cfi_startproc
 2268              		@ args = 0, pretend = 0, frame = 0
 2269              		@ frame_needed = 0, uses_anonymous_args = 0
 506:Core/Src/drive.c ****     /* ьХИьаД 1: ьХДэБм ьЛдэМи(ьаХый┤ ьЬДъ╕Й) тЖТ ьаХьзА эЫД ьаЬьЮРыжм эФ╝ы▓ЧьЬ╝ыбЬ ызИым┤ыжм */
 2270              		.loc 1 506 1 is_stmt 0 view .LVU647
 2271 0000 38B5     		push	{r3, r4, r5, lr}
 2272              	.LCFI25:
 2273              		.cfi_def_cfa_offset 16
 2274              		.cfi_offset 3, -16
 2275              		.cfi_offset 4, -12
 2276              		.cfi_offset 5, -8
 2277              		.cfi_offset 14, -4
 2278 0002 0446     		mov	r4, r0
 508:Core/Src/drive.c **** 
 2279              		.loc 1 508 5 is_stmt 1 view .LVU648
 508:Core/Src/drive.c **** 
ARM GAS  C:\Users\user\AppData\Local\Temp\ccEq0Nch.s 			page 59


 2280              		.loc 1 508 11 is_stmt 0 view .LVU649
 2281 0004 0588     		ldrh	r5, [r0]
 508:Core/Src/drive.c **** 
 2282              		.loc 1 508 8 view .LVU650
 2283 0006 0E2D     		cmp	r5, #14
 2284 0008 01D8     		bhi	.L177
 508:Core/Src/drive.c **** 
 2285              		.loc 1 508 36 discriminator 1 view .LVU651
 2286 000a 8379     		ldrb	r3, [r0, #6]	@ zero_extendqisi2
 508:Core/Src/drive.c **** 
 2287              		.loc 1 508 31 discriminator 1 view .LVU652
 2288 000c 2BBB     		cbnz	r3, .L189
 2289              	.L177:
 511:Core/Src/drive.c ****     {
 2290              		.loc 1 511 5 is_stmt 1 view .LVU653
 511:Core/Src/drive.c ****     {
 2291              		.loc 1 511 8 is_stmt 0 view .LVU654
 2292 000e 072D     		cmp	r5, #7
 2293 0010 05D8     		bhi	.L179
 511:Core/Src/drive.c ****     {
 2294              		.loc 1 511 38 discriminator 1 view .LVU655
 2295 0012 6388     		ldrh	r3, [r4, #2]
 511:Core/Src/drive.c ****     {
 2296              		.loc 1 511 33 discriminator 1 view .LVU656
 2297 0014 032B     		cmp	r3, #3
 2298 0016 02D8     		bhi	.L179
 511:Core/Src/drive.c ****     {
 2299              		.loc 1 511 63 discriminator 2 view .LVU657
 2300 0018 A388     		ldrh	r3, [r4, #4]
 511:Core/Src/drive.c ****     {
 2301              		.loc 1 511 58 discriminator 2 view .LVU658
 2302 001a 032B     		cmp	r3, #3
 2303 001c 20D9     		bls	.L190
 2304              	.L179:
 518:Core/Src/drive.c **** 
 2305              		.loc 1 518 5 is_stmt 1 view .LVU659
 518:Core/Src/drive.c **** 
 2306              		.loc 1 518 12 is_stmt 0 view .LVU660
 2307 001e 2369     		ldr	r3, [r4, #16]
 518:Core/Src/drive.c **** 
 2308              		.loc 1 518 18 view .LVU661
 2309 0020 284A     		ldr	r2, .L193
 2310 0022 1268     		ldr	r2, [r2]
 2311 0024 9B1A     		subs	r3, r3, r2
 518:Core/Src/drive.c **** 
 2312              		.loc 1 518 8 view .LVU662
 2313 0026 B3F5FA6F 		cmp	r3, #2000
 2314 002a 1DD8     		bhi	.L191
 521:Core/Src/drive.c ****         && fabsf(wrap180(in->heading - h_entry)) >= TURN_TARGET_DEG
 2315              		.loc 1 521 5 is_stmt 1 view .LVU663
 521:Core/Src/drive.c ****         && fabsf(wrap180(in->heading - h_entry)) >= TURN_TARGET_DEG
 2316              		.loc 1 521 11 is_stmt 0 view .LVU664
 2317 002c 237B     		ldrb	r3, [r4, #12]	@ zero_extendqisi2
 521:Core/Src/drive.c ****         && fabsf(wrap180(in->heading - h_entry)) >= TURN_TARGET_DEG
 2318              		.loc 1 521 8 view .LVU665
 2319 002e 0BB1     		cbz	r3, .L181
 521:Core/Src/drive.c ****         && fabsf(wrap180(in->heading - h_entry)) >= TURN_TARGET_DEG
ARM GAS  C:\Users\user\AppData\Local\Temp\ccEq0Nch.s 			page 60


 2320              		.loc 1 521 27 discriminator 1 view .LVU666
 2321 0030 A379     		ldrb	r3, [r4, #6]	@ zero_extendqisi2
 521:Core/Src/drive.c ****         && fabsf(wrap180(in->heading - h_entry)) >= TURN_TARGET_DEG
 2322              		.loc 1 521 22 discriminator 1 view .LVU667
 2323 0032 EBB9     		cbnz	r3, .L192
 2324              	.LVL184:
 2325              	.L181:
 530:Core/Src/drive.c ****     {
 2326              		.loc 1 530 5 is_stmt 1 view .LVU668
 530:Core/Src/drive.c ****     {
 2327              		.loc 1 530 8 is_stmt 0 view .LVU669
 2328 0034 1D2D     		cmp	r5, #29
 2329 0036 33D9     		bls	.L183
 530:Core/Src/drive.c ****     {
 2330              		.loc 1 530 38 discriminator 1 view .LVU670
 2331 0038 A379     		ldrb	r3, [r4, #6]	@ zero_extendqisi2
 530:Core/Src/drive.c ****     {
 2332              		.loc 1 530 33 discriminator 1 view .LVU671
 2333 003a 8BB3     		cbz	r3, .L183
 532:Core/Src/drive.c ****         if (clear_cnt >= CLEAR_CONFIRM) { cruise_enter(in); return; }
 2334              		.loc 1 532 9 is_stmt 1 view .LVU672
 532:Core/Src/drive.c ****         if (clear_cnt >= CLEAR_CONFIRM) { cruise_enter(in); return; }
 2335              		.loc 1 532 23 is_stmt 0 view .LVU673
 2336 003c 224B     		ldr	r3, .L193+4
 2337 003e 1B78     		ldrb	r3, [r3]	@ zero_extendqisi2
 532:Core/Src/drive.c ****         if (clear_cnt >= CLEAR_CONFIRM) { cruise_enter(in); return; }
 2338              		.loc 1 532 12 view .LVU674
 2339 0040 FF2B     		cmp	r3, #255
 2340 0042 02D0     		beq	.L184
 532:Core/Src/drive.c ****         if (clear_cnt >= CLEAR_CONFIRM) { cruise_enter(in); return; }
 2341              		.loc 1 532 30 is_stmt 1 discriminator 1 view .LVU675
 532:Core/Src/drive.c ****         if (clear_cnt >= CLEAR_CONFIRM) { cruise_enter(in); return; }
 2342              		.loc 1 532 39 is_stmt 0 discriminator 1 view .LVU676
 2343 0044 0133     		adds	r3, r3, #1
 2344 0046 204A     		ldr	r2, .L193+4
 2345 0048 1370     		strb	r3, [r2]
 2346              	.L184:
 533:Core/Src/drive.c ****     }
 2347              		.loc 1 533 9 is_stmt 1 view .LVU677
 533:Core/Src/drive.c ****     }
 2348              		.loc 1 533 23 is_stmt 0 view .LVU678
 2349 004a 1F4B     		ldr	r3, .L193+4
 2350 004c 1B78     		ldrb	r3, [r3]	@ zero_extendqisi2
 533:Core/Src/drive.c ****     }
 2351              		.loc 1 533 12 view .LVU679
 2352 004e 042B     		cmp	r3, #4
 2353 0050 2BD9     		bls	.L185
 533:Core/Src/drive.c ****     }
 2354              		.loc 1 533 43 is_stmt 1 discriminator 1 view .LVU680
 2355 0052 2046     		mov	r0, r4
 2356 0054 FFF7FEFF 		bl	cruise_enter
 2357              	.LVL185:
 533:Core/Src/drive.c ****     }
 2358              		.loc 1 533 61 discriminator 1 view .LVU681
 533:Core/Src/drive.c ****     }
 2359              		.loc 1 533 61 is_stmt 0 view .LVU682
 2360 0058 2EE0     		b	.L176
ARM GAS  C:\Users\user\AppData\Local\Temp\ccEq0Nch.s 			page 61


 2361              	.LVL186:
 2362              	.L189:
 508:Core/Src/drive.c **** 
 2363              		.loc 1 508 49 is_stmt 1 discriminator 2 view .LVU683
 2364 005a FFF7FEFF 		bl	brake_enter
 2365              	.LVL187:
 508:Core/Src/drive.c **** 
 2366              		.loc 1 508 66 discriminator 1 view .LVU684
 508:Core/Src/drive.c **** 
 2367              		.loc 1 508 66 is_stmt 0 view .LVU685
 2368 005e 2BE0     		b	.L176
 2369              	.LVL188:
 2370              	.L190:
 513:Core/Src/drive.c ****         return;
 2371              		.loc 1 513 9 is_stmt 1 view .LVU686
 2372 0060 2046     		mov	r0, r4
 2373              	.LVL189:
 513:Core/Src/drive.c ****         return;
 2374              		.loc 1 513 9 is_stmt 0 view .LVU687
 2375 0062 FFF7FEFF 		bl	brake_enter
 2376              	.LVL190:
 514:Core/Src/drive.c ****     }
 2377              		.loc 1 514 9 is_stmt 1 view .LVU688
 2378 0066 27E0     		b	.L176
 2379              	.LVL191:
 2380              	.L191:
 518:Core/Src/drive.c **** 
 2381              		.loc 1 518 55 discriminator 1 view .LVU689
 2382 0068 2046     		mov	r0, r4
 2383              	.LVL192:
 518:Core/Src/drive.c **** 
 2384              		.loc 1 518 55 is_stmt 0 discriminator 1 view .LVU690
 2385 006a FFF7FEFF 		bl	brake_enter
 2386              	.LVL193:
 518:Core/Src/drive.c **** 
 2387              		.loc 1 518 72 is_stmt 1 discriminator 1 view .LVU691
 518:Core/Src/drive.c **** 
 2388              		.loc 1 518 72 is_stmt 0 view .LVU692
 2389 006e 23E0     		b	.L176
 2390              	.LVL194:
 2391              	.L192:
 522:Core/Src/drive.c ****         && in->f >= FRONT_TURN_CM)
 2392              		.loc 1 522 28 view .LVU693
 2393 0070 94ED020A 		vldr.32	s0, [r4, #8]
 522:Core/Src/drive.c ****         && in->f >= FRONT_TURN_CM)
 2394              		.loc 1 522 18 view .LVU694
 2395 0074 154B     		ldr	r3, .L193+8
 2396 0076 D3ED007A 		vldr.32	s15, [r3]
 2397 007a 30EE670A 		vsub.f32	s0, s0, s15
 2398 007e FFF7FEFF 		bl	wrap180
 2399              	.LVL195:
 522:Core/Src/drive.c ****         && in->f >= FRONT_TURN_CM)
 2400              		.loc 1 522 12 discriminator 1 view .LVU695
 2401 0082 B0EEC00A 		vabs.f32	s0, s0
 522:Core/Src/drive.c ****         && in->f >= FRONT_TURN_CM)
 2402              		.loc 1 522 9 discriminator 1 view .LVU696
 2403 0086 DFED127A 		vldr.32	s15, .L193+12
ARM GAS  C:\Users\user\AppData\Local\Temp\ccEq0Nch.s 			page 62


 2404 008a B4EEE70A 		vcmpe.f32	s0, s15
 2405 008e F1EE10FA 		vmrs	APSR_nzcv, FPSCR
 2406 0092 CFDB     		blt	.L181
 523:Core/Src/drive.c ****     {
 2407              		.loc 1 523 9 view .LVU697
 2408 0094 152D     		cmp	r5, #21
 2409 0096 CDD9     		bls	.L181
 525:Core/Src/drive.c ****         return;
 2410              		.loc 1 525 9 is_stmt 1 view .LVU698
 2411 0098 2046     		mov	r0, r4
 2412 009a FFF7FEFF 		bl	cruise_enter
 2413              	.LVL196:
 526:Core/Src/drive.c ****     }
 2414              		.loc 1 526 9 view .LVU699
 2415 009e 0BE0     		b	.L176
 2416              	.L183:
 535:Core/Src/drive.c ****     {
 2417              		.loc 1 535 10 view .LVU700
 535:Core/Src/drive.c ****     {
 2418              		.loc 1 535 13 is_stmt 0 view .LVU701
 2419 00a0 1D2D     		cmp	r5, #29
 2420 00a2 02D8     		bhi	.L185
 537:Core/Src/drive.c ****     }
 2421              		.loc 1 537 9 is_stmt 1 view .LVU702
 537:Core/Src/drive.c ****     }
 2422              		.loc 1 537 19 is_stmt 0 view .LVU703
 2423 00a4 084B     		ldr	r3, .L193+4
 2424 00a6 0022     		movs	r2, #0
 2425 00a8 1A70     		strb	r2, [r3]
 2426              	.L185:
 541:Core/Src/drive.c ****     else               Car_ArcRight(ARC_OUTER, ARC_INNER);
 2427              		.loc 1 541 5 is_stmt 1 view .LVU704
 541:Core/Src/drive.c ****     else               Car_ArcRight(ARC_OUTER, ARC_INNER);
 2428              		.loc 1 541 18 is_stmt 0 view .LVU705
 2429 00aa 0A4B     		ldr	r3, .L193+16
 2430 00ac 1B78     		ldrb	r3, [r3]	@ zero_extendqisi2
 541:Core/Src/drive.c ****     else               Car_ArcRight(ARC_OUTER, ARC_INNER);
 2431              		.loc 1 541 8 view .LVU706
 2432 00ae 23B9     		cbnz	r3, .L186
 541:Core/Src/drive.c ****     else               Car_ArcRight(ARC_OUTER, ARC_INNER);
 2433              		.loc 1 541 24 is_stmt 1 discriminator 1 view .LVU707
 2434 00b0 1621     		movs	r1, #22
 2435 00b2 2D20     		movs	r0, #45
 2436 00b4 FFF7FEFF 		bl	Car_ArcLeft
 2437              	.LVL197:
 2438              	.L176:
 543:Core/Src/drive.c **** 
 2439              		.loc 1 543 1 is_stmt 0 view .LVU708
 2440 00b8 38BD     		pop	{r3, r4, r5, pc}
 2441              	.LVL198:
 2442              	.L186:
 542:Core/Src/drive.c **** }
 2443              		.loc 1 542 24 is_stmt 1 view .LVU709
 2444 00ba 1621     		movs	r1, #22
 2445 00bc 2D20     		movs	r0, #45
 2446 00be FFF7FEFF 		bl	Car_ArcRight
 2447              	.LVL199:
ARM GAS  C:\Users\user\AppData\Local\Temp\ccEq0Nch.s 			page 63


 2448 00c2 F9E7     		b	.L176
 2449              	.L194:
 2450              		.align	2
 2451              	.L193:
 2452 00c4 00000000 		.word	t_state
 2453 00c8 00000000 		.word	clear_cnt
 2454 00cc 00000000 		.word	h_entry
 2455 00d0 0000AA42 		.word	1118437376
 2456 00d4 00000000 		.word	turn_dir
 2457              		.cfi_endproc
 2458              	.LFE151:
 2460              		.section	.text.Drive_Init,"ax",%progbits
 2461              		.align	1
 2462              		.global	Drive_Init
 2463              		.syntax unified
 2464              		.thumb
 2465              		.thumb_func
 2467              	Drive_Init:
 2468              	.LFB155:
 594:Core/Src/drive.c **** 
 595:Core/Src/drive.c **** /* ---- ъ│╡ъ░Ь API ---- */
 596:Core/Src/drive.c **** 
 597:Core/Src/drive.c **** void Drive_Init(void)
 598:Core/Src/drive.c **** {
 2469              		.loc 1 598 1 view -0
 2470              		.cfi_startproc
 2471              		@ args = 0, pretend = 0, frame = 0
 2472              		@ frame_needed = 0, uses_anonymous_args = 0
 2473              		@ link register save eliminated.
 599:Core/Src/drive.c ****     st         = DS_CRUISE;
 2474              		.loc 1 599 5 view .LVU711
 2475              		.loc 1 599 16 is_stmt 0 view .LVU712
 2476 0000 0023     		movs	r3, #0
 2477 0002 0E4A     		ldr	r2, .L196
 2478 0004 1370     		strb	r3, [r2]
 600:Core/Src/drive.c ****     t_state    = 0;
 2479              		.loc 1 600 5 is_stmt 1 view .LVU713
 2480              		.loc 1 600 16 is_stmt 0 view .LVU714
 2481 0006 0E4A     		ldr	r2, .L196+4
 2482 0008 1360     		str	r3, [r2]
 601:Core/Src/drive.c ****     turn_dir   = 0;
 2483              		.loc 1 601 5 is_stmt 1 view .LVU715
 2484              		.loc 1 601 16 is_stmt 0 view .LVU716
 2485 000a 0E4A     		ldr	r2, .L196+8
 2486 000c 1370     		strb	r3, [r2]
 602:Core/Src/drive.c ****     swap_cnt   = 0;
 2487              		.loc 1 602 5 is_stmt 1 view .LVU717
 2488              		.loc 1 602 16 is_stmt 0 view .LVU718
 2489 000e 0E4A     		ldr	r2, .L196+12
 2490 0010 1370     		strb	r3, [r2]
 603:Core/Src/drive.c ****     rev_cnt    = 0;
 2491              		.loc 1 603 5 is_stmt 1 view .LVU719
 2492              		.loc 1 603 16 is_stmt 0 view .LVU720
 2493 0012 0E4A     		ldr	r2, .L196+16
 2494 0014 1370     		strb	r3, [r2]
 604:Core/Src/drive.c ****     clear_cnt  = 0;
 2495              		.loc 1 604 5 is_stmt 1 view .LVU721
ARM GAS  C:\Users\user\AppData\Local\Temp\ccEq0Nch.s 			page 64


 2496              		.loc 1 604 16 is_stmt 0 view .LVU722
 2497 0016 0E4A     		ldr	r2, .L196+20
 2498 0018 1370     		strb	r3, [r2]
 605:Core/Src/drive.c ****     front_near_cnt = 0;
 2499              		.loc 1 605 5 is_stmt 1 view .LVU723
 2500              		.loc 1 605 20 is_stmt 0 view .LVU724
 2501 001a 0E4A     		ldr	r2, .L196+24
 2502 001c 1370     		strb	r3, [r2]
 606:Core/Src/drive.c ****     steer_u    = 0.0f;
 2503              		.loc 1 606 5 is_stmt 1 view .LVU725
 2504              		.loc 1 606 16 is_stmt 0 view .LVU726
 2505 001e 0022     		movs	r2, #0
 2506 0020 0D49     		ldr	r1, .L196+28
 2507 0022 0A60     		str	r2, [r1]	@ float
 607:Core/Src/drive.c ****     steer_mode = SM_INIT;
 2508              		.loc 1 607 5 is_stmt 1 view .LVU727
 2509              		.loc 1 607 16 is_stmt 0 view .LVU728
 2510 0024 0D49     		ldr	r1, .L196+32
 2511 0026 FF20     		movs	r0, #255
 2512 0028 0870     		strb	r0, [r1]
 608:Core/Src/drive.c ****     center_reset = 1U;
 2513              		.loc 1 608 5 is_stmt 1 view .LVU729
 2514              		.loc 1 608 18 is_stmt 0 view .LVU730
 2515 002a 0D49     		ldr	r1, .L196+36
 2516 002c 0120     		movs	r0, #1
 2517 002e 0870     		strb	r0, [r1]
 609:Core/Src/drive.c ****     h_prev      = 0.0f;
 2518              		.loc 1 609 5 is_stmt 1 view .LVU731
 2519              		.loc 1 609 17 is_stmt 0 view .LVU732
 2520 0030 0C49     		ldr	r1, .L196+40
 2521 0032 0A60     		str	r2, [r1]	@ float
 610:Core/Src/drive.c ****     t_prev      = 0;
 2522              		.loc 1 610 5 is_stmt 1 view .LVU733
 2523              		.loc 1 610 17 is_stmt 0 view .LVU734
 2524 0034 0C4A     		ldr	r2, .L196+44
 2525 0036 1360     		str	r3, [r2]
 611:Core/Src/drive.c **** }
 2526              		.loc 1 611 1 view .LVU735
 2527 0038 7047     		bx	lr
 2528              	.L197:
 2529 003a 00BF     		.align	2
 2530              	.L196:
 2531 003c 00000000 		.word	st
 2532 0040 00000000 		.word	t_state
 2533 0044 00000000 		.word	turn_dir
 2534 0048 00000000 		.word	swap_cnt
 2535 004c 00000000 		.word	rev_cnt
 2536 0050 00000000 		.word	clear_cnt
 2537 0054 00000000 		.word	front_near_cnt
 2538 0058 00000000 		.word	steer_u
 2539 005c 00000000 		.word	steer_mode
 2540 0060 00000000 		.word	center_reset
 2541 0064 00000000 		.word	h_prev
 2542 0068 00000000 		.word	t_prev
 2543              		.cfi_endproc
 2544              	.LFE155:
 2546              		.section	.text.Drive_Update,"ax",%progbits
ARM GAS  C:\Users\user\AppData\Local\Temp\ccEq0Nch.s 			page 65


 2547              		.align	1
 2548              		.global	Drive_Update
 2549              		.syntax unified
 2550              		.thumb
 2551              		.thumb_func
 2553              	Drive_Update:
 2554              	.LVL200:
 2555              	.LFB156:
 612:Core/Src/drive.c **** 
 613:Core/Src/drive.c **** void Drive_Update(const DriveInputs *in)
 614:Core/Src/drive.c **** {
 2556              		.loc 1 614 1 is_stmt 1 view -0
 2557              		.cfi_startproc
 2558              		@ args = 0, pretend = 0, frame = 0
 2559              		@ frame_needed = 0, uses_anonymous_args = 0
 2560              		.loc 1 614 1 is_stmt 0 view .LVU737
 2561 0000 08B5     		push	{r3, lr}
 2562              	.LCFI26:
 2563              		.cfi_def_cfa_offset 8
 2564              		.cfi_offset 3, -8
 2565              		.cfi_offset 14, -4
 615:Core/Src/drive.c ****     switch (st)
 2566              		.loc 1 615 5 is_stmt 1 view .LVU738
 2567 0002 194B     		ldr	r3, .L210
 2568 0004 1B78     		ldrb	r3, [r3]	@ zero_extendqisi2
 2569 0006 062B     		cmp	r3, #6
 2570 0008 27D8     		bhi	.L199
 2571 000a DFE803F0 		tbb	[pc, r3]
 2572              	.L201:
 2573 000e 04       		.byte	(.L207-.L201)/2
 2574 000f 14       		.byte	(.L206-.L201)/2
 2575 0010 17       		.byte	(.L205-.L201)/2
 2576 0011 1A       		.byte	(.L204-.L201)/2
 2577 0012 1D       		.byte	(.L203-.L201)/2
 2578 0013 20       		.byte	(.L202-.L201)/2
 2579 0014 23       		.byte	(.L200-.L201)/2
 2580 0015 00       		.p2align 1
 2581              	.L207:
 616:Core/Src/drive.c ****     {
 617:Core/Src/drive.c ****     case DS_CRUISE:  cruise_run(in);  break;
 2582              		.loc 1 617 22 view .LVU739
 2583 0016 FFF7FEFF 		bl	cruise_run
 2584              	.LVL201:
 2585              		.loc 1 617 39 discriminator 1 view .LVU740
 2586              	.L208:
 618:Core/Src/drive.c ****     case DS_BRAKE:   brake_run(in);   break;
 619:Core/Src/drive.c ****     case DS_SPIN:    spin_run(in);    break;
 620:Core/Src/drive.c ****     case DS_REVERSE: reverse_run(in); break;
 621:Core/Src/drive.c ****     case DS_HOLD:    hold_run(in);    break;
 622:Core/Src/drive.c ****     case DS_SIDE_AVOID: side_avoid_run(in); break;
 623:Core/Src/drive.c ****     case DS_CORNER:  corner_run(in);  break;   /* [req2] ьаДьзДьД▒ ьХДэБм ь╜ФыДИ */
 624:Core/Src/drive.c ****     default:         Car_Stop(); st = DS_CRUISE; break;
 625:Core/Src/drive.c ****     }
 626:Core/Src/drive.c ****     dbg_state    = (uint8_t)st;
 2587              		.loc 1 626 5 view .LVU741
 2588              		.loc 1 626 18 is_stmt 0 view .LVU742
 2589 001a 134B     		ldr	r3, .L210
ARM GAS  C:\Users\user\AppData\Local\Temp\ccEq0Nch.s 			page 66


 2590 001c 1B78     		ldrb	r3, [r3]	@ zero_extendqisi2
 2591 001e DBB2     		uxtb	r3, r3
 2592 0020 124A     		ldr	r2, .L210+4
 2593 0022 1370     		strb	r3, [r2]
 627:Core/Src/drive.c ****     dbg_turn_dir = turn_dir;
 2594              		.loc 1 627 5 is_stmt 1 view .LVU743
 2595              		.loc 1 627 18 is_stmt 0 view .LVU744
 2596 0024 124B     		ldr	r3, .L210+8
 2597 0026 1A78     		ldrb	r2, [r3]	@ zero_extendqisi2
 2598 0028 124B     		ldr	r3, .L210+12
 2599 002a 1A70     		strb	r2, [r3]
 628:Core/Src/drive.c ****     dbg_rev_cnt  = rev_cnt;
 2600              		.loc 1 628 5 is_stmt 1 view .LVU745
 2601              		.loc 1 628 18 is_stmt 0 view .LVU746
 2602 002c 124B     		ldr	r3, .L210+16
 2603 002e 1A78     		ldrb	r2, [r3]	@ zero_extendqisi2
 2604 0030 124B     		ldr	r3, .L210+20
 2605 0032 1A70     		strb	r2, [r3]
 629:Core/Src/drive.c **** }
 2606              		.loc 1 629 1 view .LVU747
 2607 0034 08BD     		pop	{r3, pc}
 2608              	.LVL202:
 2609              	.L206:
 618:Core/Src/drive.c ****     case DS_SPIN:    spin_run(in);    break;
 2610              		.loc 1 618 22 is_stmt 1 view .LVU748
 2611 0036 FFF7FEFF 		bl	brake_run
 2612              	.LVL203:
 618:Core/Src/drive.c ****     case DS_SPIN:    spin_run(in);    break;
 2613              		.loc 1 618 39 discriminator 1 view .LVU749
 618:Core/Src/drive.c ****     case DS_SPIN:    spin_run(in);    break;
 2614              		.loc 1 618 39 is_stmt 0 view .LVU750
 2615 003a EEE7     		b	.L208
 2616              	.LVL204:
 2617              	.L205:
 619:Core/Src/drive.c ****     case DS_REVERSE: reverse_run(in); break;
 2618              		.loc 1 619 22 is_stmt 1 view .LVU751
 2619 003c FFF7FEFF 		bl	spin_run
 2620              	.LVL205:
 619:Core/Src/drive.c ****     case DS_REVERSE: reverse_run(in); break;
 2621              		.loc 1 619 39 discriminator 1 view .LVU752
 619:Core/Src/drive.c ****     case DS_REVERSE: reverse_run(in); break;
 2622              		.loc 1 619 39 is_stmt 0 view .LVU753
 2623 0040 EBE7     		b	.L208
 2624              	.LVL206:
 2625              	.L204:
 620:Core/Src/drive.c ****     case DS_HOLD:    hold_run(in);    break;
 2626              		.loc 1 620 22 is_stmt 1 view .LVU754
 2627 0042 FFF7FEFF 		bl	reverse_run
 2628              	.LVL207:
 620:Core/Src/drive.c ****     case DS_HOLD:    hold_run(in);    break;
 2629              		.loc 1 620 39 discriminator 1 view .LVU755
 620:Core/Src/drive.c ****     case DS_HOLD:    hold_run(in);    break;
 2630              		.loc 1 620 39 is_stmt 0 view .LVU756
 2631 0046 E8E7     		b	.L208
 2632              	.LVL208:
 2633              	.L203:
 621:Core/Src/drive.c ****     case DS_SIDE_AVOID: side_avoid_run(in); break;
ARM GAS  C:\Users\user\AppData\Local\Temp\ccEq0Nch.s 			page 67


 2634              		.loc 1 621 22 is_stmt 1 view .LVU757
 2635 0048 FFF7FEFF 		bl	hold_run
 2636              	.LVL209:
 621:Core/Src/drive.c ****     case DS_SIDE_AVOID: side_avoid_run(in); break;
 2637              		.loc 1 621 39 discriminator 1 view .LVU758
 621:Core/Src/drive.c ****     case DS_SIDE_AVOID: side_avoid_run(in); break;
 2638              		.loc 1 621 39 is_stmt 0 view .LVU759
 2639 004c E5E7     		b	.L208
 2640              	.LVL210:
 2641              	.L202:
 622:Core/Src/drive.c ****     case DS_CORNER:  corner_run(in);  break;   /* [req2] ьаДьзДьД▒ ьХДэБм ь╜ФыДИ */
 2642              		.loc 1 622 25 is_stmt 1 view .LVU760
 2643 004e FFF7FEFF 		bl	side_avoid_run
 2644              	.LVL211:
 622:Core/Src/drive.c ****     case DS_CORNER:  corner_run(in);  break;   /* [req2] ьаДьзДьД▒ ьХДэБм ь╜ФыДИ */
 2645              		.loc 1 622 45 discriminator 1 view .LVU761
 622:Core/Src/drive.c ****     case DS_CORNER:  corner_run(in);  break;   /* [req2] ьаДьзДьД▒ ьХДэБм ь╜ФыДИ */
 2646              		.loc 1 622 45 is_stmt 0 view .LVU762
 2647 0052 E2E7     		b	.L208
 2648              	.LVL212:
 2649              	.L200:
 623:Core/Src/drive.c ****     default:         Car_Stop(); st = DS_CRUISE; break;
 2650              		.loc 1 623 22 is_stmt 1 view .LVU763
 2651 0054 FFF7FEFF 		bl	corner_run
 2652              	.LVL213:
 623:Core/Src/drive.c ****     default:         Car_Stop(); st = DS_CRUISE; break;
 2653              		.loc 1 623 39 discriminator 1 view .LVU764
 623:Core/Src/drive.c ****     default:         Car_Stop(); st = DS_CRUISE; break;
 2654              		.loc 1 623 39 is_stmt 0 view .LVU765
 2655 0058 DFE7     		b	.L208
 2656              	.LVL214:
 2657              	.L199:
 624:Core/Src/drive.c ****     }
 2658              		.loc 1 624 22 is_stmt 1 view .LVU766
 2659 005a FFF7FEFF 		bl	Car_Stop
 2660              	.LVL215:
 624:Core/Src/drive.c ****     }
 2661              		.loc 1 624 34 discriminator 1 view .LVU767
 624:Core/Src/drive.c ****     }
 2662              		.loc 1 624 37 is_stmt 0 discriminator 1 view .LVU768
 2663 005e 024B     		ldr	r3, .L210
 2664 0060 0022     		movs	r2, #0
 2665 0062 1A70     		strb	r2, [r3]
 624:Core/Src/drive.c ****     }
 2666              		.loc 1 624 50 is_stmt 1 discriminator 1 view .LVU769
 624:Core/Src/drive.c ****     }
 2667              		.loc 1 624 50 is_stmt 0 view .LVU770
 2668 0064 D9E7     		b	.L208
 2669              	.L211:
 2670 0066 00BF     		.align	2
 2671              	.L210:
 2672 0068 00000000 		.word	st
 2673 006c 00000000 		.word	dbg_state
 2674 0070 00000000 		.word	turn_dir
 2675 0074 00000000 		.word	dbg_turn_dir
 2676 0078 00000000 		.word	rev_cnt
 2677 007c 00000000 		.word	dbg_rev_cnt
ARM GAS  C:\Users\user\AppData\Local\Temp\ccEq0Nch.s 			page 68


 2678              		.cfi_endproc
 2679              	.LFE156:
 2681              		.section	.text.Drive_GetState,"ax",%progbits
 2682              		.align	1
 2683              		.global	Drive_GetState
 2684              		.syntax unified
 2685              		.thumb
 2686              		.thumb_func
 2688              	Drive_GetState:
 2689              	.LFB157:
 630:Core/Src/drive.c **** 
 631:Core/Src/drive.c **** DriveState Drive_GetState(void)
 632:Core/Src/drive.c **** {
 2690              		.loc 1 632 1 is_stmt 1 view -0
 2691              		.cfi_startproc
 2692              		@ args = 0, pretend = 0, frame = 0
 2693              		@ frame_needed = 0, uses_anonymous_args = 0
 2694              		@ link register save eliminated.
 633:Core/Src/drive.c ****     return st;
 2695              		.loc 1 633 5 view .LVU772
 2696              		.loc 1 633 12 is_stmt 0 view .LVU773
 2697 0000 014B     		ldr	r3, .L213
 2698 0002 1878     		ldrb	r0, [r3]	@ zero_extendqisi2
 634:Core/Src/drive.c **** }
 2699              		.loc 1 634 1 view .LVU774
 2700 0004 7047     		bx	lr
 2701              	.L214:
 2702 0006 00BF     		.align	2
 2703              	.L213:
 2704 0008 00000000 		.word	st
 2705              		.cfi_endproc
 2706              	.LFE157:
 2708              		.section	.bss.r_buf.0,"aw",%nobits
 2709              		.align	2
 2712              	r_buf.0:
 2713 0000 00000000 		.space	6
 2713      0000
 2714              		.section	.bss.l_buf.1,"aw",%nobits
 2715              		.align	2
 2718              	l_buf.1:
 2719 0000 00000000 		.space	6
 2719      0000
 2720              		.section	.bss.steer_prev.2,"aw",%nobits
 2721              		.align	2
 2724              	steer_prev.2:
 2725 0000 00000000 		.space	4
 2726              		.section	.bss.prev_ms.3,"aw",%nobits
 2727              		.align	2
 2730              	prev_ms.3:
 2731 0000 00000000 		.space	4
 2732              		.section	.bss.prev_error.4,"aw",%nobits
 2733              		.align	2
 2736              	prev_error.4:
 2737 0000 00000000 		.space	4
 2738              		.section	.bss.count.5,"aw",%nobits
 2741              	count.5:
 2742 0000 00       		.space	1
ARM GAS  C:\Users\user\AppData\Local\Temp\ccEq0Nch.s 			page 69


 2743              		.section	.bss.idx.6,"aw",%nobits
 2746              	idx.6:
 2747 0000 00       		.space	1
 2748              		.section	.bss.t_prev,"aw",%nobits
 2749              		.align	2
 2752              	t_prev:
 2753 0000 00000000 		.space	4
 2754              		.section	.bss.h_prev,"aw",%nobits
 2755              		.align	2
 2758              	h_prev:
 2759 0000 00000000 		.space	4
 2760              		.section	.data.center_reset,"aw"
 2763              	center_reset:
 2764 0000 01       		.byte	1
 2765              		.section	.bss.steer_mode,"aw",%nobits
 2768              	steer_mode:
 2769 0000 00       		.space	1
 2770              		.section	.bss.steer_u,"aw",%nobits
 2771              		.align	2
 2774              	steer_u:
 2775 0000 00000000 		.space	4
 2776              		.section	.bss.t_stuck,"aw",%nobits
 2777              		.align	2
 2780              	t_stuck:
 2781 0000 00000000 		.space	4
 2782              		.section	.bss.h_stuck,"aw",%nobits
 2783              		.align	2
 2786              	h_stuck:
 2787 0000 00000000 		.space	4
 2788              		.section	.bss.h_ref,"aw",%nobits
 2789              		.align	2
 2792              	h_ref:
 2793 0000 00000000 		.space	4
 2794              		.section	.bss.h_entry,"aw",%nobits
 2795              		.align	2
 2798              	h_entry:
 2799 0000 00000000 		.space	4
 2800              		.section	.bss.front_near_cnt,"aw",%nobits
 2803              	front_near_cnt:
 2804 0000 00       		.space	1
 2805              		.section	.bss.clear_cnt,"aw",%nobits
 2808              	clear_cnt:
 2809 0000 00       		.space	1
 2810              		.section	.bss.rev_cnt,"aw",%nobits
 2813              	rev_cnt:
 2814 0000 00       		.space	1
 2815              		.section	.bss.swap_cnt,"aw",%nobits
 2818              	swap_cnt:
 2819 0000 00       		.space	1
 2820              		.section	.bss.turn_dir,"aw",%nobits
 2823              	turn_dir:
 2824 0000 00       		.space	1
 2825              		.section	.bss.t_state,"aw",%nobits
 2826              		.align	2
 2829              	t_state:
 2830 0000 00000000 		.space	4
 2831              		.section	.bss.st,"aw",%nobits
ARM GAS  C:\Users\user\AppData\Local\Temp\ccEq0Nch.s 			page 70


 2834              	st:
 2835 0000 00       		.space	1
 2836              		.global	dbg_front_near
 2837              		.section	.bss.dbg_front_near,"aw",%nobits
 2840              	dbg_front_near:
 2841 0000 00       		.space	1
 2842              		.global	dbg_graze
 2843              		.section	.bss.dbg_graze,"aw",%nobits
 2846              	dbg_graze:
 2847 0000 00       		.space	1
 2848              		.global	dbg_course_dev
 2849              		.section	.bss.dbg_course_dev,"aw",%nobits
 2850              		.align	2
 2853              	dbg_course_dev:
 2854 0000 00000000 		.space	4
 2855              		.global	dbg_reverse
 2856              		.section	.bss.dbg_reverse,"aw",%nobits
 2859              	dbg_reverse:
 2860 0000 00       		.space	1
 2861              		.global	dbg_rev_cnt
 2862              		.section	.bss.dbg_rev_cnt,"aw",%nobits
 2865              	dbg_rev_cnt:
 2866 0000 00       		.space	1
 2867              		.global	dbg_turn_dir
 2868              		.section	.bss.dbg_turn_dir,"aw",%nobits
 2871              	dbg_turn_dir:
 2872 0000 00       		.space	1
 2873              		.global	dbg_spin_deg
 2874              		.section	.bss.dbg_spin_deg,"aw",%nobits
 2875              		.align	2
 2878              	dbg_spin_deg:
 2879 0000 00000000 		.space	4
 2880              		.global	dbg_yaw_rate
 2881              		.section	.bss.dbg_yaw_rate,"aw",%nobits
 2882              		.align	2
 2885              	dbg_yaw_rate:
 2886 0000 00000000 		.space	4
 2887              		.global	dbg_hdg_err
 2888              		.section	.bss.dbg_hdg_err,"aw",%nobits
 2889              		.align	2
 2892              	dbg_hdg_err:
 2893 0000 00000000 		.space	4
 2894              		.global	dbg_duty_r
 2895              		.section	.bss.dbg_duty_r,"aw",%nobits
 2896              		.align	1
 2899              	dbg_duty_r:
 2900 0000 0000     		.space	2
 2901              		.global	dbg_duty_l
 2902              		.section	.bss.dbg_duty_l,"aw",%nobits
 2903              		.align	1
 2906              	dbg_duty_l:
 2907 0000 0000     		.space	2
 2908              		.global	dbg_steer
 2909              		.section	.bss.dbg_steer,"aw",%nobits
 2910              		.align	2
 2913              	dbg_steer:
 2914 0000 00000000 		.space	4
ARM GAS  C:\Users\user\AppData\Local\Temp\ccEq0Nch.s 			page 71


 2915              		.global	dbg_steer_mode
 2916              		.section	.bss.dbg_steer_mode,"aw",%nobits
 2919              	dbg_steer_mode:
 2920 0000 00       		.space	1
 2921              		.global	dbg_state
 2922              		.section	.bss.dbg_state,"aw",%nobits
 2925              	dbg_state:
 2926 0000 00       		.space	1
 2927              		.text
 2928              	.Letext0:
 2929              		.file 2 "C:\\ST\\STM32CubeIDE_2.1.0\\STM32CubeIDE\\plugins\\com.st.stm32cube.ide.mcu.externaltools
 2930              		.file 3 "C:\\ST\\STM32CubeIDE_2.1.0\\STM32CubeIDE\\plugins\\com.st.stm32cube.ide.mcu.externaltools
 2931              		.file 4 "Core/Inc/drive.h"
 2932              		.file 5 "Core/Inc/motor.h"
ARM GAS  C:\Users\user\AppData\Local\Temp\ccEq0Nch.s 			page 72


DEFINED SYMBOLS
                            *ABS*:00000000 drive.c
C:\Users\user\AppData\Local\Temp\ccEq0Nch.s:21     .text.wrap180:00000000 $t
C:\Users\user\AppData\Local\Temp\ccEq0Nch.s:26     .text.wrap180:00000000 wrap180
C:\Users\user\AppData\Local\Temp\ccEq0Nch.s:68     .text.wrap180:00000034 $d
C:\Users\user\AppData\Local\Temp\ccEq0Nch.s:75     .text.clampf:00000000 $t
C:\Users\user\AppData\Local\Temp\ccEq0Nch.s:80     .text.clampf:00000000 clampf
C:\Users\user\AppData\Local\Temp\ccEq0Nch.s:116    .text.center_sanitize_cm:00000000 $t
C:\Users\user\AppData\Local\Temp\ccEq0Nch.s:121    .text.center_sanitize_cm:00000000 center_sanitize_cm
C:\Users\user\AppData\Local\Temp\ccEq0Nch.s:154    .text.center_avg_u16:00000000 $t
C:\Users\user\AppData\Local\Temp\ccEq0Nch.s:159    .text.center_avg_u16:00000000 center_avg_u16
C:\Users\user\AppData\Local\Temp\ccEq0Nch.s:212    .text.enter:00000000 $t
C:\Users\user\AppData\Local\Temp\ccEq0Nch.s:217    .text.enter:00000000 enter
C:\Users\user\AppData\Local\Temp\ccEq0Nch.s:238    .text.enter:0000000c $d
C:\Users\user\AppData\Local\Temp\ccEq0Nch.s:2834   .bss.st:00000000 st
C:\Users\user\AppData\Local\Temp\ccEq0Nch.s:2829   .bss.t_state:00000000 t_state
C:\Users\user\AppData\Local\Temp\ccEq0Nch.s:244    .text.cruise_enter:00000000 $t
C:\Users\user\AppData\Local\Temp\ccEq0Nch.s:249    .text.cruise_enter:00000000 cruise_enter
C:\Users\user\AppData\Local\Temp\ccEq0Nch.s:315    .text.cruise_enter:00000038 $d
C:\Users\user\AppData\Local\Temp\ccEq0Nch.s:2792   .bss.h_ref:00000000 h_ref
C:\Users\user\AppData\Local\Temp\ccEq0Nch.s:2774   .bss.steer_u:00000000 steer_u
C:\Users\user\AppData\Local\Temp\ccEq0Nch.s:2768   .bss.steer_mode:00000000 steer_mode
C:\Users\user\AppData\Local\Temp\ccEq0Nch.s:2763   .data.center_reset:00000000 center_reset
C:\Users\user\AppData\Local\Temp\ccEq0Nch.s:2813   .bss.rev_cnt:00000000 rev_cnt
C:\Users\user\AppData\Local\Temp\ccEq0Nch.s:2803   .bss.front_near_cnt:00000000 front_near_cnt
C:\Users\user\AppData\Local\Temp\ccEq0Nch.s:2758   .bss.h_prev:00000000 h_prev
C:\Users\user\AppData\Local\Temp\ccEq0Nch.s:2752   .bss.t_prev:00000000 t_prev
C:\Users\user\AppData\Local\Temp\ccEq0Nch.s:327    .text.spin_enter:00000000 $t
C:\Users\user\AppData\Local\Temp\ccEq0Nch.s:332    .text.spin_enter:00000000 spin_enter
C:\Users\user\AppData\Local\Temp\ccEq0Nch.s:424    .text.spin_enter:00000054 $d
C:\Users\user\AppData\Local\Temp\ccEq0Nch.s:2823   .bss.turn_dir:00000000 turn_dir
C:\Users\user\AppData\Local\Temp\ccEq0Nch.s:2818   .bss.swap_cnt:00000000 swap_cnt
C:\Users\user\AppData\Local\Temp\ccEq0Nch.s:2808   .bss.clear_cnt:00000000 clear_cnt
C:\Users\user\AppData\Local\Temp\ccEq0Nch.s:2798   .bss.h_entry:00000000 h_entry
C:\Users\user\AppData\Local\Temp\ccEq0Nch.s:2786   .bss.h_stuck:00000000 h_stuck
C:\Users\user\AppData\Local\Temp\ccEq0Nch.s:2780   .bss.t_stuck:00000000 t_stuck
C:\Users\user\AppData\Local\Temp\ccEq0Nch.s:434    .text.side_avoid_enter:00000000 $t
C:\Users\user\AppData\Local\Temp\ccEq0Nch.s:439    .text.side_avoid_enter:00000000 side_avoid_enter
C:\Users\user\AppData\Local\Temp\ccEq0Nch.s:490    .text.side_avoid_enter:00000028 $d
C:\Users\user\AppData\Local\Temp\ccEq0Nch.s:495    .text.front_graze_suspected:00000000 $t
C:\Users\user\AppData\Local\Temp\ccEq0Nch.s:500    .text.front_graze_suspected:00000000 front_graze_suspected
C:\Users\user\AppData\Local\Temp\ccEq0Nch.s:600    .text.front_graze_suspected:00000068 $d
C:\Users\user\AppData\Local\Temp\ccEq0Nch.s:606    .text.corner_enter:00000000 $t
C:\Users\user\AppData\Local\Temp\ccEq0Nch.s:611    .text.corner_enter:00000000 corner_enter
C:\Users\user\AppData\Local\Temp\ccEq0Nch.s:677    .text.corner_enter:00000038 $d
C:\Users\user\AppData\Local\Temp\ccEq0Nch.s:684    .text.hold_enter:00000000 $t
C:\Users\user\AppData\Local\Temp\ccEq0Nch.s:689    .text.hold_enter:00000000 hold_enter
C:\Users\user\AppData\Local\Temp\ccEq0Nch.s:718    .text.brake_enter:00000000 $t
C:\Users\user\AppData\Local\Temp\ccEq0Nch.s:723    .text.brake_enter:00000000 brake_enter
C:\Users\user\AppData\Local\Temp\ccEq0Nch.s:753    .text.hold_run:00000000 $t
C:\Users\user\AppData\Local\Temp\ccEq0Nch.s:758    .text.hold_run:00000000 hold_run
C:\Users\user\AppData\Local\Temp\ccEq0Nch.s:824    .text.hold_run:00000038 $d
C:\Users\user\AppData\Local\Temp\ccEq0Nch.s:829    .text.Drive_CenteringPD_Run:00000000 $t
C:\Users\user\AppData\Local\Temp\ccEq0Nch.s:834    .text.Drive_CenteringPD_Run:00000000 Drive_CenteringPD_Run
C:\Users\user\AppData\Local\Temp\ccEq0Nch.s:1323   .text.Drive_CenteringPD_Run:00000294 $d
C:\Users\user\AppData\Local\Temp\ccEq0Nch.s:2746   .bss.idx.6:00000000 idx.6
C:\Users\user\AppData\Local\Temp\ccEq0Nch.s:2741   .bss.count.5:00000000 count.5
ARM GAS  C:\Users\user\AppData\Local\Temp\ccEq0Nch.s 			page 73


C:\Users\user\AppData\Local\Temp\ccEq0Nch.s:2736   .bss.prev_error.4:00000000 prev_error.4
C:\Users\user\AppData\Local\Temp\ccEq0Nch.s:2730   .bss.prev_ms.3:00000000 prev_ms.3
C:\Users\user\AppData\Local\Temp\ccEq0Nch.s:2724   .bss.steer_prev.2:00000000 steer_prev.2
C:\Users\user\AppData\Local\Temp\ccEq0Nch.s:2718   .bss.l_buf.1:00000000 l_buf.1
C:\Users\user\AppData\Local\Temp\ccEq0Nch.s:2712   .bss.r_buf.0:00000000 r_buf.0
C:\Users\user\AppData\Local\Temp\ccEq0Nch.s:2913   .bss.dbg_steer:00000000 dbg_steer
C:\Users\user\AppData\Local\Temp\ccEq0Nch.s:2919   .bss.dbg_steer_mode:00000000 dbg_steer_mode
C:\Users\user\AppData\Local\Temp\ccEq0Nch.s:2885   .bss.dbg_yaw_rate:00000000 dbg_yaw_rate
C:\Users\user\AppData\Local\Temp\ccEq0Nch.s:2892   .bss.dbg_hdg_err:00000000 dbg_hdg_err
C:\Users\user\AppData\Local\Temp\ccEq0Nch.s:2906   .bss.dbg_duty_l:00000000 dbg_duty_l
C:\Users\user\AppData\Local\Temp\ccEq0Nch.s:2899   .bss.dbg_duty_r:00000000 dbg_duty_r
C:\Users\user\AppData\Local\Temp\ccEq0Nch.s:1356   .text.cruise_run:00000000 $t
C:\Users\user\AppData\Local\Temp\ccEq0Nch.s:1361   .text.cruise_run:00000000 cruise_run
C:\Users\user\AppData\Local\Temp\ccEq0Nch.s:1546   .text.cruise_run:0000009c $d
C:\Users\user\AppData\Local\Temp\ccEq0Nch.s:2846   .bss.dbg_graze:00000000 dbg_graze
C:\Users\user\AppData\Local\Temp\ccEq0Nch.s:2840   .bss.dbg_front_near:00000000 dbg_front_near
C:\Users\user\AppData\Local\Temp\ccEq0Nch.s:1553   .text.reverse_enter:00000000 $t
C:\Users\user\AppData\Local\Temp\ccEq0Nch.s:1558   .text.reverse_enter:00000000 reverse_enter
C:\Users\user\AppData\Local\Temp\ccEq0Nch.s:1603   .text.reverse_enter:00000024 $d
C:\Users\user\AppData\Local\Temp\ccEq0Nch.s:1608   .text.brake_run:00000000 $t
C:\Users\user\AppData\Local\Temp\ccEq0Nch.s:1613   .text.brake_run:00000000 brake_run
C:\Users\user\AppData\Local\Temp\ccEq0Nch.s:1690   .text.brake_run:0000004c $d
C:\Users\user\AppData\Local\Temp\ccEq0Nch.s:1696   .text.reverse_run:00000000 $t
C:\Users\user\AppData\Local\Temp\ccEq0Nch.s:1701   .text.reverse_run:00000000 reverse_run
C:\Users\user\AppData\Local\Temp\ccEq0Nch.s:1743   .text.reverse_run:00000020 $d
C:\Users\user\AppData\Local\Temp\ccEq0Nch.s:1748   .text.spin_run:00000000 $t
C:\Users\user\AppData\Local\Temp\ccEq0Nch.s:1753   .text.spin_run:00000000 spin_run
C:\Users\user\AppData\Local\Temp\ccEq0Nch.s:2130   .text.spin_run:000001c0 $d
C:\Users\user\AppData\Local\Temp\ccEq0Nch.s:2878   .bss.dbg_spin_deg:00000000 dbg_spin_deg
C:\Users\user\AppData\Local\Temp\ccEq0Nch.s:2145   .text.side_avoid_run:00000000 $t
C:\Users\user\AppData\Local\Temp\ccEq0Nch.s:2150   .text.side_avoid_run:00000000 side_avoid_run
C:\Users\user\AppData\Local\Temp\ccEq0Nch.s:2252   .text.side_avoid_run:00000058 $d
C:\Users\user\AppData\Local\Temp\ccEq0Nch.s:2258   .text.corner_run:00000000 $t
C:\Users\user\AppData\Local\Temp\ccEq0Nch.s:2263   .text.corner_run:00000000 corner_run
C:\Users\user\AppData\Local\Temp\ccEq0Nch.s:2452   .text.corner_run:000000c4 $d
C:\Users\user\AppData\Local\Temp\ccEq0Nch.s:2461   .text.Drive_Init:00000000 $t
C:\Users\user\AppData\Local\Temp\ccEq0Nch.s:2467   .text.Drive_Init:00000000 Drive_Init
C:\Users\user\AppData\Local\Temp\ccEq0Nch.s:2531   .text.Drive_Init:0000003c $d
C:\Users\user\AppData\Local\Temp\ccEq0Nch.s:2547   .text.Drive_Update:00000000 $t
C:\Users\user\AppData\Local\Temp\ccEq0Nch.s:2553   .text.Drive_Update:00000000 Drive_Update
C:\Users\user\AppData\Local\Temp\ccEq0Nch.s:2573   .text.Drive_Update:0000000e $d
C:\Users\user\AppData\Local\Temp\ccEq0Nch.s:2672   .text.Drive_Update:00000068 $d
C:\Users\user\AppData\Local\Temp\ccEq0Nch.s:2925   .bss.dbg_state:00000000 dbg_state
C:\Users\user\AppData\Local\Temp\ccEq0Nch.s:2871   .bss.dbg_turn_dir:00000000 dbg_turn_dir
C:\Users\user\AppData\Local\Temp\ccEq0Nch.s:2865   .bss.dbg_rev_cnt:00000000 dbg_rev_cnt
C:\Users\user\AppData\Local\Temp\ccEq0Nch.s:2682   .text.Drive_GetState:00000000 $t
C:\Users\user\AppData\Local\Temp\ccEq0Nch.s:2688   .text.Drive_GetState:00000000 Drive_GetState
C:\Users\user\AppData\Local\Temp\ccEq0Nch.s:2704   .text.Drive_GetState:00000008 $d
C:\Users\user\AppData\Local\Temp\ccEq0Nch.s:2709   .bss.r_buf.0:00000000 $d
C:\Users\user\AppData\Local\Temp\ccEq0Nch.s:2715   .bss.l_buf.1:00000000 $d
C:\Users\user\AppData\Local\Temp\ccEq0Nch.s:2721   .bss.steer_prev.2:00000000 $d
C:\Users\user\AppData\Local\Temp\ccEq0Nch.s:2727   .bss.prev_ms.3:00000000 $d
C:\Users\user\AppData\Local\Temp\ccEq0Nch.s:2733   .bss.prev_error.4:00000000 $d
C:\Users\user\AppData\Local\Temp\ccEq0Nch.s:2742   .bss.count.5:00000000 $d
C:\Users\user\AppData\Local\Temp\ccEq0Nch.s:2747   .bss.idx.6:00000000 $d
C:\Users\user\AppData\Local\Temp\ccEq0Nch.s:2749   .bss.t_prev:00000000 $d
C:\Users\user\AppData\Local\Temp\ccEq0Nch.s:2755   .bss.h_prev:00000000 $d
ARM GAS  C:\Users\user\AppData\Local\Temp\ccEq0Nch.s 			page 74


C:\Users\user\AppData\Local\Temp\ccEq0Nch.s:2769   .bss.steer_mode:00000000 $d
C:\Users\user\AppData\Local\Temp\ccEq0Nch.s:2771   .bss.steer_u:00000000 $d
C:\Users\user\AppData\Local\Temp\ccEq0Nch.s:2777   .bss.t_stuck:00000000 $d
C:\Users\user\AppData\Local\Temp\ccEq0Nch.s:2783   .bss.h_stuck:00000000 $d
C:\Users\user\AppData\Local\Temp\ccEq0Nch.s:2789   .bss.h_ref:00000000 $d
C:\Users\user\AppData\Local\Temp\ccEq0Nch.s:2795   .bss.h_entry:00000000 $d
C:\Users\user\AppData\Local\Temp\ccEq0Nch.s:2804   .bss.front_near_cnt:00000000 $d
C:\Users\user\AppData\Local\Temp\ccEq0Nch.s:2809   .bss.clear_cnt:00000000 $d
C:\Users\user\AppData\Local\Temp\ccEq0Nch.s:2814   .bss.rev_cnt:00000000 $d
C:\Users\user\AppData\Local\Temp\ccEq0Nch.s:2819   .bss.swap_cnt:00000000 $d
C:\Users\user\AppData\Local\Temp\ccEq0Nch.s:2824   .bss.turn_dir:00000000 $d
C:\Users\user\AppData\Local\Temp\ccEq0Nch.s:2826   .bss.t_state:00000000 $d
C:\Users\user\AppData\Local\Temp\ccEq0Nch.s:2835   .bss.st:00000000 $d
C:\Users\user\AppData\Local\Temp\ccEq0Nch.s:2841   .bss.dbg_front_near:00000000 $d
C:\Users\user\AppData\Local\Temp\ccEq0Nch.s:2847   .bss.dbg_graze:00000000 $d
C:\Users\user\AppData\Local\Temp\ccEq0Nch.s:2853   .bss.dbg_course_dev:00000000 dbg_course_dev
C:\Users\user\AppData\Local\Temp\ccEq0Nch.s:2850   .bss.dbg_course_dev:00000000 $d
C:\Users\user\AppData\Local\Temp\ccEq0Nch.s:2859   .bss.dbg_reverse:00000000 dbg_reverse
C:\Users\user\AppData\Local\Temp\ccEq0Nch.s:2860   .bss.dbg_reverse:00000000 $d
C:\Users\user\AppData\Local\Temp\ccEq0Nch.s:2866   .bss.dbg_rev_cnt:00000000 $d
C:\Users\user\AppData\Local\Temp\ccEq0Nch.s:2872   .bss.dbg_turn_dir:00000000 $d
C:\Users\user\AppData\Local\Temp\ccEq0Nch.s:2875   .bss.dbg_spin_deg:00000000 $d
C:\Users\user\AppData\Local\Temp\ccEq0Nch.s:2882   .bss.dbg_yaw_rate:00000000 $d
C:\Users\user\AppData\Local\Temp\ccEq0Nch.s:2889   .bss.dbg_hdg_err:00000000 $d
C:\Users\user\AppData\Local\Temp\ccEq0Nch.s:2896   .bss.dbg_duty_r:00000000 $d
C:\Users\user\AppData\Local\Temp\ccEq0Nch.s:2903   .bss.dbg_duty_l:00000000 $d
C:\Users\user\AppData\Local\Temp\ccEq0Nch.s:2910   .bss.dbg_steer:00000000 $d
C:\Users\user\AppData\Local\Temp\ccEq0Nch.s:2920   .bss.dbg_steer_mode:00000000 $d
C:\Users\user\AppData\Local\Temp\ccEq0Nch.s:2926   .bss.dbg_state:00000000 $d
C:\Users\user\AppData\Local\Temp\ccEq0Nch.s:2580   .text.Drive_Update:00000015 $d
C:\Users\user\AppData\Local\Temp\ccEq0Nch.s:2580   .text.Drive_Update:00000016 $t
                           .group:00000000 wm4.0.3e3bd4fae48ed4285b9fe9ad79008a8e
                           .group:00000000 wm4._newlib_version.h.4.0eb654b64686e2bd29646258853f6c22
                           .group:00000000 wm4.features.h.33.d554620bb17bd3b714c3fb5c268772bc
                           .group:00000000 wm4._default_types.h.15.247e5cd201eca3442cbf5404108c4935
                           .group:00000000 wm4._intsup.h.10.48bafbb683905c4daa4565a85aeeb264
                           .group:00000000 wm4._stdint.h.10.c24fa3af3bc1706662bb5593a907e841
                           .group:00000000 wm4.stdint.h.23.d53047a68f4a85177f80b422d52785ed
                           .group:00000000 wm4.drive.h.24.474bb04c4ca42951a8cb0769057d0128
                           .group:00000000 wm4.stm32f4xx_hal_conf.h.25.0e66e2bdd1e693edb8cfdc624d1a6bd4
                           .group:00000000 wm4.stm32f4xx.h.38.63e3ea23bd63a94457417730025259b6
                           .group:00000000 wm4.stm32f411xe.h.34.f2908321cbbda12187706c23063bbc28
                           .group:00000000 wm4.cmsis_version.h.32.0ac195c83bb4537824e6ad1c47474b79
                           .group:00000000 wm4.core_cm4.h.66.e4ff136c4a17abc46741866f64f8e729
                           .group:00000000 wm4.cmsis_gcc.h.26.498d0ad17a45fc9ef20fdc01caf02259
                           .group:00000000 wm4.core_cm4.h.174.62be9b4588d49bed18171771001331df
                           .group:00000000 wm4.mpu_armv7.h.32.83326921a797fa9d6f70449916b4b839
                           .group:00000000 wm4.stm32f411xe.h.636.37cf950cfbbaac9e193dbe2b79c3e749
                           .group:00000000 wm4.stm32f4xx.h.195.a4b8bf80f37cc96981498656ffe5f588
                           .group:00000000 wm4.stm32_hal_legacy.h.22.8b7d303dc46a0b7ac6d3edf19ce2608d
                           .group:00000000 wm4.stddef.h.39.811583f327f35b0df7808fda70b062a0
                           .group:00000000 wm4.stm32f4xx_hal_def.h.58.3cb484e92e5ccf2e55312a4714e27917
                           .group:00000000 wm4.stm32f4xx_hal_rcc_ex.h.20.6bc7ed2ae7969e22afc815a811faa8ee
                           .group:00000000 wm4.stm32f4xx_hal_rcc.h.106.0887cf5d985ae88e345b0aed0ceb4729
                           .group:00000000 wm4.stm32f4xx_hal_gpio.h.21.22da6a14b6049d6ac156577be74df1d7
                           .group:00000000 wm4.stm32f4xx_hal_gpio_ex.h.21.985b1076fbcb2c3eb806d02fd771d120
                           .group:00000000 wm4.stm32f4xx_hal_gpio.h.254.d7e07832f748fe8bcb575db0b8373592
ARM GAS  C:\Users\user\AppData\Local\Temp\ccEq0Nch.s 			page 75


                           .group:00000000 wm4.stm32f4xx_hal_exti.h.21.2ccac119fb1c64adeb682c3dcad90241
                           .group:00000000 wm4.stm32f4xx_hal_dma.h.21.8e4b1421c914345c23be719e5e528779
                           .group:00000000 wm4.stm32f4xx_hal_dma.h.720.ac2d7eef74792e4026acc4d2923c5da4
                           .group:00000000 wm4.stm32f4xx_hal_cortex.h.20.03673e4f79386680bf73ba399c19306b
                           .group:00000000 wm4.stm32f4xx_hal_flash.h.20.2f1e0d1b7010b3a81a7980aaf712e7e5
                           .group:00000000 wm4.stm32f4xx_hal_flash_ex.h.20.2abe4a01ce8028804a922735defa62fd
                           .group:00000000 wm4.stm32f4xx_hal_flash.h.361.23bc19b9eac79b0956d913651841ede8
                           .group:00000000 wm4.stm32f4xx_hal_i2c.h.21.147e96a27b1f7b1f2f8ee22132703ee3
                           .group:00000000 wm4.stm32f4xx_hal_i2c_ex.h.21.951ef5bfa13cf131d2015c338e82e461
                           .group:00000000 wm4.stm32f4xx_hal_i2c.h.647.ade9c3447780b1cc0ece02f0ce83aedc
                           .group:00000000 wm4.stm32f4xx_hal_iwdg.h.21.6227ccfbb99238d6637d6fd22341e211
                           .group:00000000 wm4.stm32f4xx_hal_pwr.h.20.1905a0783a9c83adefd7df0c4b501e40
                           .group:00000000 wm4.stm32f4xx_hal_pwr_ex.h.20.68994c4c23e76d9aeabea12988d5ec3f
                           .group:00000000 wm4.stm32f4xx_hal_pwr.h.338.debc0a4a62ba54688e63ab53dd99c4ea
                           .group:00000000 wm4.stm32f4xx_hal_tim.h.21.c31cbc03c25f07a932427770396c59d2
                           .group:00000000 wm4.stm32f4xx_hal_tim_ex.h.21.918fa7fcd405cc3ba11632ed1d07a240
                           .group:00000000 wm4.stm32f4xx_hal_uart.h.21.ba8e24dd05c77faac3f3d48472e636ba
                           .group:00000000 wm4.stm32f4xx_hal.h.71.02372bc31d47d29d3f67fbfe1429649e
                           .group:00000000 wm4.main.h.60.43ab73d02ecae73036be54daa58e8549
                           .group:00000000 wm4.newlib.h.7.decd5b9657e2c5df625d9eac6e10520c
                           .group:00000000 wm4.ieeefp.h.77.61a77db5804869b1dadd307a77cf78c9
                           .group:00000000 wm4.config.h.224.10ee1ad185d877c6e334e6581faab44d
                           .group:00000000 wm4._ansi.h.31.de524f58584151836e90d8620a16f8e8
                           .group:00000000 wm4.cdefs.h.49.56fd742369e655e7e8a7e365e706e208
                           .group:00000000 wm4._types.h.20.dd0d04dca3800a0d2a6129b87f3adbb2
                           .group:00000000 wm4.stddef.h.173.4903093a50a8482cb062b176ea61fac3
                           .group:00000000 wm4._types.h.127.3bdfe3ff8ea2d0985b03d9cbe93480e3
                           .group:00000000 wm4.reent.h.18.25503cdc8b7e55dd0d6ea7b3e5af7a03
                           .group:00000000 wm4.lock.h.2.1461d1fff82dffe8bfddc23307f6484f
                           .group:00000000 wm4.reent.h.78.6d702f69a6d6435d2dbe915b10150b1a
                           .group:00000000 wm4.math.h.13.47cfc34cae8a1153323939c4d32cf7c2

UNDEFINED SYMBOLS
Car_Stop
Car_Brake
Motor_Left
Motor_Right
Car_Backward
Car_PivotLeft
Car_PivotRight
Car_ArcLeft
Car_ArcRight
