ARM GAS  C:\Users\user\AppData\Local\Temp\cc6kGr5c.s 			page 1


   1              		.cpu cortex-m4
   2              		.arch armv7e-m
   3              		.fpu fpv4-sp-d16
   4              		.eabi_attribute 27, 1
   5              		.eabi_attribute 28, 1
   6              		.eabi_attribute 20, 1
   7              		.eabi_attribute 21, 1
   8              		.eabi_attribute 23, 3
   9              		.eabi_attribute 24, 1
  10              		.eabi_attribute 25, 1
  11              		.eabi_attribute 26, 1
  12              		.eabi_attribute 30, 1
  13              		.eabi_attribute 34, 1
  14              		.eabi_attribute 18, 4
  15              		.file	"drive.c"
  16              		.text
  17              	.Ltext0:
  18              		.cfi_sections	.debug_frame
  19              		.file 1 "Core/Src/drive.c"
  20              		.section	.text.clampf,"ax",%progbits
  21              		.align	1
  22              		.syntax unified
  23              		.thumb
  24              		.thumb_func
  26              	clampf:
  27              	.LVL0:
  28              	.LFB135:
   1:Core/Src/drive.c **** /* USER CODE BEGIN Header */
   2:Core/Src/drive.c **** /**
   3:Core/Src/drive.c ****   ******************************************************************************
   4:Core/Src/drive.c ****   * @file    drive.c
   5:Core/Src/drive.c ****   * @brief   ВБ╝ьќЅ ВаюВќ┤ЖИ░ Жхгьўё Рђћ в╣ёвИћвАюьѓ╣ 5-ВЃЂьЃю веИВІа + в│хвЈё Вё╝ьё░вДЂ ВА░ьќЦ
   6:Core/Src/drive.c ****   *
   7:Core/Src/drive.c ****   *          ВёцЖ│ё ВЏљВ╣Ў (в▓й в░Ћьъў Жи╝Ваѕ):
   8:Core/Src/drive.c ****   *          - HAL_Delay ВЌєВЮї: вфевЊа ВюаВДђВІюЖ░ёВЮђ HAL_GetTick ьЃђВъёВіцьЃгьћё Рєњ вДц вБеьћё 
   9:Core/Src/drive.c ****   *          - Вйћвёѕ: ВаёВДёВё▒ ВЋёьЂг(DS_CORNER, Car_Arc*)вАю Жх┤вЪгВёю ьєхЖ│╝ Рђћ ВбЂВЮђ в»ИвАю 
  10:Core/Src/drive.c ****   *            ВаюВъљвдг ьћ╝в▓Ќ(SPIN)ВЮђ ВЋёьЂг ВІцьїе/вДЅвІцвЦИЖ││ ьЈ┤в░▒Вю╝вАювДї ВѓгВџЕ (ВаёВДё 
  11:Core/Src/drive.c ****   *          - вфевЊа ьџїВаё/ВаЋВДђВЌљ ьћ╝вЊюв░▒: віЦвЈЎ ВаювЈЎ(BRAKE), IMU ьџїВаёЖ░Ђ ьЃѕВХю Ж▓їВЮ┤
  12:Core/Src/drive.c ****   *            Віцьё▒ Ж░љВДђ Рђћ ВІюЖ░ё├ЌвЊђьІ░ Ж░ювБеьћё ВЌєВЮї Рєњ в░░ьё░вдг sag вЕ┤ВЌГ
  13:Core/Src/drive.c ****   *          - IMU ВѓгвДЮ ВІю Ваё ЖИ░віЦВЮ┤ Ж▒░вдг-onlyвАю ВъљвЈЎ Ж░ЋвЊ▒ (ВБ╝ьќЅ ВцЉвІе ВЌєВЮї)
  14:Core/Src/drive.c ****   ******************************************************************************
  15:Core/Src/drive.c ****   */
  16:Core/Src/drive.c **** /* USER CODE END Header */
  17:Core/Src/drive.c **** 
  18:Core/Src/drive.c **** #include "drive.h"
  19:Core/Src/drive.c **** #include "motor.h"
  20:Core/Src/drive.c **** #include "debug.h"
  21:Core/Src/drive.c **** #include <math.h>
  22:Core/Src/drive.c **** 
  23:Core/Src/drive.c **** /* ---- вћћв▓ёЖиИ в»ИвЪг ВЮИВіцьё┤Віц (SWD Live Expressions вїђВЃЂ) ----
  24:Core/Src/drive.c ****  * ЖхгВА░В▓┤/ВёаВќИВЮђ debug.h, ВаЋВЮўвіћ ВЌгЖИ░ 1Ж││. вфевЊа в»ИвЪгвіћ dbg.<member>вАю ВаЉЖи╝ */
  25:Core/Src/drive.c **** volatile DebugMonitor_t dbg;
  26:Core/Src/drive.c **** 
  27:Core/Src/drive.c **** /* ---- ВА░ьќЦ вфевЊю (dbg.steer_mode ВЮИВйћвћЕ; 1=Вбїв▓й/2=Вџ░в▓йВЮђ ьЋюв▓йвфевЊю ьЈљВДђвАю в»Ив░ю
  28:Core/Src/drive.c **** #define SM_BOTH   0   /* ВќЉв▓й Вё╝ьё░вДЂ: u = CENTER_KP ├Ќ (l Рѕњ r) */
  29:Core/Src/drive.c **** #define SM_HDG    3   /* вг┤в▓й: IMU heading-hold */
  30:Core/Src/drive.c **** #define SM_OPEN   4   /* вг┤в▓й + IMU ВѓгвДЮ: open-loop ВДЂВДё (ваѕЖ▒░ВІю Ж▒░вЈЎ) */
ARM GAS  C:\Users\user\AppData\Local\Temp\cc6kGr5c.s 			page 2


  31:Core/Src/drive.c **** 
  32:Core/Src/drive.c **** /* ---- Narrow-course centering control ---- */
  33:Core/Src/drive.c **** #define CENTER_MA_WIN              3U      /* Moving average window. 1Рєњ3: Ж│аВБ╝ьїї вЁИВЮ┤Вдѕ(В┤ѕ
  34:Core/Src/drive.c ****                                               ВДЂВДё ВІю DьЋГВЌљ raw вЁИВЮ┤Вдѕ ВюаВъЁРєњв»ИвХёВдЮьЈ
  35:Core/Src/drive.c **** #define CENTER_DEADZONE_CM         3.0f    /* ВцЉВЋЎ вХѕЖ░љвїђ ┬▒3.0cm(2.5Рєњ3.0 ВўЂВЃЂ ВДЂВДё weav
  36:Core/Src/drive.c **** #define CENTER_KP                  0.15f   /* Steering P gain [%duty/cm] = ьЈљвБеьћё Ж░ЋВё▒(¤Ѕ_n┬▓Р
  37:Core/Src/drive.c **** #define CENTER_KD                  0.0f    /* Steering D gain [%duty/(cm/s)] (0.08Рєњ0: В┤ѕВЮїьїї в
  38:Core/Src/drive.c ****                                               РџаIMU ВѓгвДЮ ьЈ┤в░▒(imu_live=0)вЋљ вїљьЋЉ 0 = P-only
  39:Core/Src/drive.c **** #define CENTER_STEER_MAX_PCT       13.0f   /* Max differential steering command. 10Рєњ13: ВЎёвДїЖ│А
  40:Core/Src/drive.c **** #define CENTER_STEER_SLEW_PCT      4.0f    /* РўЁВА░ьќЦ в│ђьЎћВюе ВЃЂьЋю [%duty/loop] (3.0Рєњ4.0 ьЌ
  41:Core/Src/drive.c **** #define CENTER_BASE_SPEED_PCT      44.0f   /* РўЁВІцВаю ВДЂВДё ВєЇвЈё [%duty] (46Рєњ44: ВўЂВЃЂ в▓йВ
  42:Core/Src/drive.c **** #define CENTER_MIN_SPEED_PCT       43.0f   /* ВхювїђВА░ьќЦ ВІю ВєЇвЈё ьЋўьЋю (35Рєњ43: BASE ВЃЂьќЦВ
  43:Core/Src/drive.c **** #define CENTER_SENSOR_MAX_CM       80U     /* Clamp side sensor spikes */
  44:Core/Src/drive.c **** 
  45:Core/Src/drive.c **** /* ---- Corner anticipation ьЈљВДђ ----
  46:Core/Src/drive.c ****  * ВбЂВЮђ в»ИвАюВџЕ ВъгВёцЖ│ё: ВЋёьЂг(Жх┤вЪгВёю ьєхЖ│╝) Вйћвёѕ Рєњ ВаЋВДђ+ВаюВъљвдг ьћ╝в▓Ќ(brakeРєњ
  47:Core/Src/drive.c ****  * CORNER_NEAR_CM / CORNER_STEER_MAX_PCT(ВЋёьЂг вИћваївЊю вЁИвИї) ВаюЖ▒░ Рђћ Вё╝ьё░вДЂВЮђ ВѕюВѕў ВД
  48:Core/Src/drive.c **** 
  49:Core/Src/drive.c **** /* ---- вѓ┤вХђ ВЃЂьЃю (MotorTask вІевЈЁ ВєїВюа Рђћ вІеВЮ╝ ьЃюВіцьЂг вгИвДЦВЮ┤вЮ╝ в╣ёvolatile/в«цьЁЇ
  50:Core/Src/drive.c ****  * dbg.state в»ИвЪгвіћ Drive_Update вДљв»ИВЌљВёю вІеВЮ╝ ьЃюВіцьЂгЖ░ђ в│хВѓг Рєњ volatile вХѕьЋёВџћ 
  51:Core/Src/drive.c **** static DriveState st = DS_CRUISE;
  52:Core/Src/drive.c **** static uint32_t   t_state  = 0;    /* ьўёВъг ВЃЂьЃю ВДёВъЁ ВІюЖ░Ђ */
  53:Core/Src/drive.c **** static uint8_t    turn_dir = 0;    /* 0=Вбї 1=Вџ░ */
  54:Core/Src/drive.c **** static uint8_t    swap_cnt = 0;    /* ВЮ┤в▓ѕ SPINВЌљВёю в░ЕьќЦ flip ьџЪВѕў */
  55:Core/Src/drive.c **** static uint8_t    rev_cnt  = 0;    /* CRUISE в│хЖиђ ВЌєВЮ┤ вѕёВаЂвљю ьЏёВДё chunk (CRUISE ВДёВъЁ ВІ
  56:Core/Src/drive.c **** static uint8_t    clear_cnt = 0;   /* ВаЋвЕ┤ ьіИВъё ВЌ░ВєЇ(Вюаьџе ВИАВаЋ) В╣┤Вџ┤ьіИ */
  57:Core/Src/drive.c **** static uint8_t    front_near_cnt = 0; /* [req1] ЖиИваѕВЮ┤ВДЋ ВЋёвІї ВаЋвЕ┤Жи╝ВаЉ ВЌ░ВєЇ В╣┤Вџ┤ьіИ Р
  58:Core/Src/drive.c **** static uint8_t    launching = 1U;  /* [fix] ВъљВюе ВІюВъЉ ВДЂьЏё вЪ░В╣ў ВДЂВДё В╗цв░І ьЎюВё▒ (ВІюВъ
  59:Core/Src/drive.c **** static uint32_t   t_launch  = 0;   /* [fix] вЪ░В╣ў ВІюВъЉ ВІюЖ░Ђ(В▓Ф cruise ьћёваѕВъёВЌљ въўВ╣ў, 0=
  60:Core/Src/drive.c **** static uint32_t   t_spin0   = 0;   /* [fix] SPIN ВДёВъЁ Ваѕвїђ ВІюЖ░Ђ Рђћ вИћвЮ╝ВЮИвЊю ВІюЖ░ёВ╗иВџЕ
  61:Core/Src/drive.c **** static float      h_entry  = 0.0f; /* SPIN ВДёВъЁ heading (ьџїВаёЖ░Ђ Ж▓їВЮ┤ьіИ/в»ИвЪг ЖИ░Вцђ) */
  62:Core/Src/drive.c **** static uint8_t    h_entry_valid = 0U; /* h_entryЖ░ђ ВІаВёаьЋю IMU ьћёваѕВъёВЌљВёю въўВ╣ўвљљвіћВДђ *
  63:Core/Src/drive.c **** static float      h_ref    = 0.0f; /* heading-hold ЖИ░Вцђ */
  64:Core/Src/drive.c **** static float      h_stuck  = 0.0f; /* Віцьё▒ Ж░љВДђ ВюѕвЈё ВІюВъЉ heading */
  65:Core/Src/drive.c **** static uint32_t   t_stuck  = 0;
  66:Core/Src/drive.c **** /* Вё╝ьё░вДЂ ВаюВќ┤ В╗еьЁЇВіцьіИ (req2: Жхг Drive_CenteringPD_Run ьЋеВѕў-вѓ┤ staticвЊцВЮё В║АВіљьЎћ
  67:Core/Src/drive.c **** typedef struct {
  68:Core/Src/drive.c ****     uint16_t l_buf[CENTER_MA_WIN];
  69:Core/Src/drive.c ****     uint16_t r_buf[CENTER_MA_WIN];
  70:Core/Src/drive.c ****     uint8_t  idx;
  71:Core/Src/drive.c ****     uint8_t  count;
  72:Core/Src/drive.c ****     uint8_t  fresh;       /* Жхг center_reset: В▓Ф вБеьћё heading въўВ╣ў ьіИвдгЖ▒░ */
  73:Core/Src/drive.c ****     uint8_t  imu_prev_live; /* ВДЂВаё ВаюВќ┤ ьћёваѕВъёВЌљВёю headingВЮ┤ ВІаВёаьќѕвіћВДђ */
  74:Core/Src/drive.c ****     float    prev_error;  /* В┤ѕВЮїьїї DьЋГ ВДЂВаё ВўцВ░е */
  75:Core/Src/drive.c ****     uint32_t prev_ms;     /* в»ИвХё dt ЖИ░Вцђ ВІюЖ░Ђ */
  76:Core/Src/drive.c ****     float    steer_prev;  /* slew ВЌ░ВєЇВё▒ВџЕ ВДЂВаё ВА░ьќЦвЪЅ */
  77:Core/Src/drive.c **** } CenteringContext;
  78:Core/Src/drive.c **** static CenteringContext ctx_center = { .fresh = 1U };
  79:Core/Src/drive.c **** static float      h_prev   = 0.0f; /* yaw-rate DьЋГ: ВДЂВаё heading */
  80:Core/Src/drive.c **** /* [req4] ВЌГВБ╝ьќЅ Ваѕвїђв░ЕВюё ВЋхВ╗ц: ВІюВъЉ ВІю ВхюВ┤ѕ 1ьџї Ваѕвїђ въўВ╣ў + Вйћвёѕ(cruise_enter
  81:Core/Src/drive.c **** static float      course_heading = 0.0f;
  82:Core/Src/drive.c **** static uint8_t    is_start_latch = 0;
  83:Core/Src/drive.c **** /* DS_CORNER(ВЋёьЂг) вХђьЎюьЋўвљў ВЃЂьЃювіћ вг┤ВЃЂьЃю(h_entry/clear_cnt ВъгВѓгВџЕ) Рђћ Жхг ВЌГВБ╝ьќ
  84:Core/Src/drive.c ****  * (course_heading/course_valid/rev_latched/t_corner_exit)віћ вХѕВџћвЮ╝ в»Ив│хВЏљ */
  85:Core/Src/drive.c **** 
  86:Core/Src/drive.c **** /* ВъёВЮў Ж░ЂвЈёВ░е Рєњ (-180, 180]. ВъЁваЦВЮђ 0~360 Ж░њвЊцВЮў В░евЮ╝ вБеьћёвіћ 1~2ьџївАю ВбЁвБї */
  87:Core/Src/drive.c **** /* req3: whileРєњвІеВЮ╝ вХёЖИ░ + static inline. ВъЁваЦВЮђ 0~360 heading В░е(в▓ћВюё (-360,360))вЮ╝
ARM GAS  C:\Users\user\AppData\Local\Temp\cc6kGr5c.s 			page 3


  88:Core/Src/drive.c ****  * 1ьџї в│┤ВаЋВю╝вАю (-180,180] в│┤ВъЦ Рђћ ьўИВХю Вўцв▓ёьЌцвЊю ВаюЖ▒░, ВѕўВ╣ў вЈЎВЮ╝ */
  89:Core/Src/drive.c **** static inline float wrap180(float a)
  90:Core/Src/drive.c **** {
  91:Core/Src/drive.c ****     if      (a >   180.0f) a -= 360.0f;
  92:Core/Src/drive.c ****     else if (a <= -180.0f) a += 360.0f;
  93:Core/Src/drive.c ****     return a;
  94:Core/Src/drive.c **** }
  95:Core/Src/drive.c **** 
  96:Core/Src/drive.c **** static float clampf(float v, float lo, float hi)
  97:Core/Src/drive.c **** {
  29              		.loc 1 97 1 view -0
  30              		.cfi_startproc
  31              		@ args = 0, pretend = 0, frame = 0
  32              		@ frame_needed = 0, uses_anonymous_args = 0
  33              		@ link register save eliminated.
  98:Core/Src/drive.c ****     if (v < lo) return lo;
  34              		.loc 1 98 5 view .LVU1
  35              		.loc 1 98 8 is_stmt 0 view .LVU2
  36 0000 B4EEE00A 		vcmpe.f32	s0, s1
  37 0004 F1EE10FA 		vmrs	APSR_nzcv, FPSCR
  38 0008 05D4     		bmi	.L3
  99:Core/Src/drive.c ****     if (v > hi) return hi;
  39              		.loc 1 99 5 is_stmt 1 view .LVU3
  40              		.loc 1 99 8 is_stmt 0 view .LVU4
  41 000a B4EEC10A 		vcmpe.f32	s0, s2
  42 000e F1EE10FA 		vmrs	APSR_nzcv, FPSCR
  43 0012 03DC     		bgt	.L4
  44 0014 7047     		bx	lr
  45              	.L3:
  98:Core/Src/drive.c ****     if (v < lo) return lo;
  46              		.loc 1 98 24 discriminator 1 view .LVU5
  47 0016 B0EE600A 		vmov.f32	s0, s1
  48              	.LVL1:
  98:Core/Src/drive.c ****     if (v < lo) return lo;
  49              		.loc 1 98 24 discriminator 1 view .LVU6
  50 001a 7047     		bx	lr
  51              	.LVL2:
  52              	.L4:
  53              		.loc 1 99 24 discriminator 1 view .LVU7
  54 001c B0EE410A 		vmov.f32	s0, s2
  55              	.LVL3:
 100:Core/Src/drive.c ****     return v;
 101:Core/Src/drive.c **** }
  56              		.loc 1 101 1 view .LVU8
  57 0020 7047     		bx	lr
  58              		.cfi_endproc
  59              	.LFE135:
  61              		.section	.text.center_sanitize_cm,"ax",%progbits
  62              		.align	1
  63              		.syntax unified
  64              		.thumb
  65              		.thumb_func
  67              	center_sanitize_cm:
  68              	.LVL4:
  69              	.LFB136:
 102:Core/Src/drive.c **** 
 103:Core/Src/drive.c **** static uint16_t center_sanitize_cm(uint16_t cm)
ARM GAS  C:\Users\user\AppData\Local\Temp\cc6kGr5c.s 			page 4


 104:Core/Src/drive.c **** {
  70              		.loc 1 104 1 is_stmt 1 view -0
  71              		.cfi_startproc
  72              		@ args = 0, pretend = 0, frame = 0
  73              		@ frame_needed = 0, uses_anonymous_args = 0
  74              		@ link register save eliminated.
 105:Core/Src/drive.c ****     if (cm == 0U) return CENTER_SENSOR_MAX_CM;
  75              		.loc 1 105 5 view .LVU10
  76              		.loc 1 105 8 is_stmt 0 view .LVU11
  77 0000 10B1     		cbz	r0, .L7
 106:Core/Src/drive.c ****     if (cm > CENTER_SENSOR_MAX_CM) return CENTER_SENSOR_MAX_CM;
  78              		.loc 1 106 5 is_stmt 1 view .LVU12
  79              		.loc 1 106 8 is_stmt 0 view .LVU13
  80 0002 5028     		cmp	r0, #80
  81 0004 02D8     		bhi	.L8
  82 0006 7047     		bx	lr
  83              	.L7:
 105:Core/Src/drive.c ****     if (cm == 0U) return CENTER_SENSOR_MAX_CM;
  84              		.loc 1 105 26 discriminator 1 view .LVU14
  85 0008 5020     		movs	r0, #80
  86              	.LVL5:
 105:Core/Src/drive.c ****     if (cm == 0U) return CENTER_SENSOR_MAX_CM;
  87              		.loc 1 105 26 discriminator 1 view .LVU15
  88 000a 7047     		bx	lr
  89              	.LVL6:
  90              	.L8:
  91              		.loc 1 106 43 discriminator 1 view .LVU16
  92 000c 5020     		movs	r0, #80
  93              	.LVL7:
 107:Core/Src/drive.c ****     return cm;
 108:Core/Src/drive.c **** }
  94              		.loc 1 108 1 view .LVU17
  95 000e 7047     		bx	lr
  96              		.cfi_endproc
  97              	.LFE136:
  99              		.section	.text.center_avg_u16,"ax",%progbits
 100              		.align	1
 101              		.syntax unified
 102              		.thumb
 103              		.thumb_func
 105              	center_avg_u16:
 106              	.LVL8:
 107              	.LFB137:
 109:Core/Src/drive.c **** 
 110:Core/Src/drive.c **** static float center_avg_u16(const uint16_t *buf, uint8_t n)
 111:Core/Src/drive.c **** {
 108              		.loc 1 111 1 is_stmt 1 view -0
 109              		.cfi_startproc
 110              		@ args = 0, pretend = 0, frame = 0
 111              		@ frame_needed = 0, uses_anonymous_args = 0
 112              		@ link register save eliminated.
 112:Core/Src/drive.c ****     uint32_t sum = 0U;
 113              		.loc 1 112 5 view .LVU19
 113:Core/Src/drive.c **** 
 114:Core/Src/drive.c ****     for (uint8_t i = 0U; i < n; i++)
 114              		.loc 1 114 5 view .LVU20
 115              	.LBB25:
ARM GAS  C:\Users\user\AppData\Local\Temp\cc6kGr5c.s 			page 5


 116              		.loc 1 114 10 view .LVU21
 117              		.loc 1 114 18 is_stmt 0 view .LVU22
 118 0000 0023     		movs	r3, #0
 119              	.LBE25:
 112:Core/Src/drive.c ****     uint32_t sum = 0U;
 120              		.loc 1 112 14 view .LVU23
 121 0002 1A46     		mov	r2, r3
 122              	.LBB26:
 123              		.loc 1 114 5 view .LVU24
 124 0004 04E0     		b	.L10
 125              	.LVL9:
 126              	.L11:
 115:Core/Src/drive.c ****         sum += buf[i];
 127              		.loc 1 115 9 is_stmt 1 view .LVU25
 128              		.loc 1 115 19 is_stmt 0 view .LVU26
 129 0006 30F813C0 		ldrh	ip, [r0, r3, lsl #1]
 130              		.loc 1 115 13 view .LVU27
 131 000a 6244     		add	r2, r2, ip
 132              	.LVL10:
 114:Core/Src/drive.c ****         sum += buf[i];
 133              		.loc 1 114 34 is_stmt 1 discriminator 3 view .LVU28
 134 000c 0133     		adds	r3, r3, #1
 135              	.LVL11:
 114:Core/Src/drive.c ****         sum += buf[i];
 136              		.loc 1 114 34 is_stmt 0 discriminator 3 view .LVU29
 137 000e DBB2     		uxtb	r3, r3
 138              	.LVL12:
 139              	.L10:
 114:Core/Src/drive.c ****         sum += buf[i];
 140              		.loc 1 114 28 is_stmt 1 discriminator 1 view .LVU30
 141 0010 8B42     		cmp	r3, r1
 142 0012 F8D3     		bcc	.L11
 143              	.LBE26:
 116:Core/Src/drive.c **** 
 117:Core/Src/drive.c ****     return (float)sum / (float)n;
 144              		.loc 1 117 5 view .LVU31
 145              		.loc 1 117 12 is_stmt 0 view .LVU32
 146 0014 07EE902A 		vmov	s15, r2	@ int
 147 0018 F8EE677A 		vcvt.f32.u32	s15, s15
 148              		.loc 1 117 25 view .LVU33
 149 001c 07EE101A 		vmov	s14, r1	@ int
 150 0020 B8EE470A 		vcvt.f32.u32	s0, s14
 118:Core/Src/drive.c **** }
 151              		.loc 1 118 1 view .LVU34
 152 0024 87EE800A 		vdiv.f32	s0, s15, s0
 153 0028 7047     		bx	lr
 154              		.cfi_endproc
 155              	.LFE137:
 157              		.section	.text.Centering_Reset,"ax",%progbits
 158              		.align	1
 159              		.syntax unified
 160              		.thumb
 161              		.thumb_func
 163              	Centering_Reset:
 164              	.LVL13:
 165              	.LFB138:
 119:Core/Src/drive.c **** 
ARM GAS  C:\Users\user\AppData\Local\Temp\cc6kGr5c.s 			page 6


 120:Core/Src/drive.c **** /* Вё╝ьё░вДЂ В╗еьЁЇВіцьіИ вдгВЁІ (req2): в▓ёьЇ╝/ВЮ┤ваЦ/slew 0, fresh=1вАю вІцВЮї вБеьћё heading Въг
 121:Core/Src/drive.c ****  * headingВЮђ inВЮ┤ ВЌєвіћ Drive_InitВЌљВёювЈё вХђвЦ┤в»ђвАю ВЌгЖИ░Вёю ВЋѕ вДїВДљ Рђћ fresh вИћвАЮВЮ
 122:Core/Src/drive.c **** static void Centering_Reset(CenteringContext *c)
 123:Core/Src/drive.c **** {
 166              		.loc 1 123 1 is_stmt 1 view -0
 167              		.cfi_startproc
 168              		@ args = 0, pretend = 0, frame = 0
 169              		@ frame_needed = 0, uses_anonymous_args = 0
 170              		@ link register save eliminated.
 124:Core/Src/drive.c ****     c->idx        = 0U;
 171              		.loc 1 124 5 view .LVU36
 172              		.loc 1 124 19 is_stmt 0 view .LVU37
 173 0000 0023     		movs	r3, #0
 174 0002 0373     		strb	r3, [r0, #12]
 125:Core/Src/drive.c ****     c->count      = 0U;
 175              		.loc 1 125 5 is_stmt 1 view .LVU38
 176              		.loc 1 125 19 is_stmt 0 view .LVU39
 177 0004 4373     		strb	r3, [r0, #13]
 126:Core/Src/drive.c ****     c->prev_error = 0.0f;
 178              		.loc 1 126 5 is_stmt 1 view .LVU40
 179              		.loc 1 126 19 is_stmt 0 view .LVU41
 180 0006 0022     		movs	r2, #0
 181 0008 0261     		str	r2, [r0, #16]	@ float
 127:Core/Src/drive.c ****     c->prev_ms    = 0U;
 182              		.loc 1 127 5 is_stmt 1 view .LVU42
 183              		.loc 1 127 19 is_stmt 0 view .LVU43
 184 000a 4361     		str	r3, [r0, #20]
 128:Core/Src/drive.c ****     c->steer_prev = 0.0f;
 185              		.loc 1 128 5 is_stmt 1 view .LVU44
 186              		.loc 1 128 19 is_stmt 0 view .LVU45
 187 000c 8261     		str	r2, [r0, #24]	@ float
 129:Core/Src/drive.c ****     c->imu_prev_live = 0U;
 188              		.loc 1 129 5 is_stmt 1 view .LVU46
 189              		.loc 1 129 22 is_stmt 0 view .LVU47
 190 000e C373     		strb	r3, [r0, #15]
 130:Core/Src/drive.c ****     c->fresh      = 1U;
 191              		.loc 1 130 5 is_stmt 1 view .LVU48
 192              		.loc 1 130 19 is_stmt 0 view .LVU49
 193 0010 0123     		movs	r3, #1
 194 0012 8373     		strb	r3, [r0, #14]
 131:Core/Src/drive.c **** }
 195              		.loc 1 131 1 view .LVU50
 196 0014 7047     		bx	lr
 197              		.cfi_endproc
 198              	.LFE138:
 200              		.section	.text.enter,"ax",%progbits
 201              		.align	1
 202              		.syntax unified
 203              		.thumb
 204              		.thumb_func
 206              	enter:
 207              	.LVL14:
 208              	.LFB140:
 132:Core/Src/drive.c **** 
 133:Core/Src/drive.c **** static void Drive_CenteringPD_Run(const DriveInputs *in)
 134:Core/Src/drive.c **** {
 135:Core/Src/drive.c ****     if (ctx_center.fresh)
ARM GAS  C:\Users\user\AppData\Local\Temp\cc6kGr5c.s 			page 7


 136:Core/Src/drive.c ****     {
 137:Core/Src/drive.c ****         /* Centering_ResetЖ░ђ в▓ёьЇ╝/ВЮ┤ваЦВЮё 0Вю╝вАю вЉа Рєњ IMUЖ░ђ ВІаВёаьЋа вЋївДї heading ЖИ░В
 138:Core/Src/drive.c ****         if (in->imu_live)
 139:Core/Src/drive.c ****         {
 140:Core/Src/drive.c ****             h_ref  = in->heading;
 141:Core/Src/drive.c ****             h_prev = in->heading;
 142:Core/Src/drive.c ****             ctx_center.imu_prev_live = 1U;
 143:Core/Src/drive.c ****         }
 144:Core/Src/drive.c ****         ctx_center.fresh = 0U;
 145:Core/Src/drive.c ****     }
 146:Core/Src/drive.c **** 
 147:Core/Src/drive.c ****     if (in->imu_live && !ctx_center.imu_prev_live)
 148:Core/Src/drive.c ****     {
 149:Core/Src/drive.c ****         /* IMU ВѓгвДЮ/ВІцьїе ьћёваѕВъё вњц В▓Ф ВІаВёаьЋю headingВЮђ ЖИ░ВцђЖ│╝ yaw в»ИвХё ВЮ┤ваЦВЮё 
 150:Core/Src/drive.c ****          * Вўцвъўвљю headingЖ│╝ ВЃѕ headingВЮё ьЋю вБеьћё dtвАю вѓўвѕа ВЃЮЖИ░віћ yaw spikeвЦ╝ В░евІ
 151:Core/Src/drive.c ****         h_ref  = in->heading;
 152:Core/Src/drive.c ****         h_prev = in->heading;
 153:Core/Src/drive.c ****     }
 154:Core/Src/drive.c **** 
 155:Core/Src/drive.c ****     ctx_center.l_buf[ctx_center.idx] = center_sanitize_cm(in->l);
 156:Core/Src/drive.c ****     ctx_center.r_buf[ctx_center.idx] = center_sanitize_cm(in->r);
 157:Core/Src/drive.c **** 
 158:Core/Src/drive.c ****     ctx_center.idx = (uint8_t)((ctx_center.idx + 1U) % CENTER_MA_WIN);
 159:Core/Src/drive.c ****     if (ctx_center.count < CENTER_MA_WIN)
 160:Core/Src/drive.c ****         ctx_center.count++;
 161:Core/Src/drive.c **** 
 162:Core/Src/drive.c ****     float left_cm  = center_avg_u16(ctx_center.l_buf, ctx_center.count);
 163:Core/Src/drive.c ****     float right_cm = center_avg_u16(ctx_center.r_buf, ctx_center.count);
 164:Core/Src/drive.c ****     float error = left_cm - right_cm;
 165:Core/Src/drive.c **** 
 166:Core/Src/drive.c ****     /* ВЋёьЂг вИћваївЊю ьЈљВДђ(ьћ╝в▓Ќ ВБ╝ьќЅ): ВА░ьќЦ ВЃЂьЋю Ж│аВаЋ = ВѕюВѕў Вё╝ьё░вДЂ. Вйћвёѕвіћ c
 167:Core/Src/drive.c ****     float steer_max = CENTER_STEER_MAX_PCT;
 168:Core/Src/drive.c **** 
 169:Core/Src/drive.c ****     /* ---- В┤ѕВЮїьїї ВИАВаЋ в»ИвХё: вЇ░вЊюВА┤ вг┤Ж┤ђ вДц вБеьћё ВЌ░ВєЇ в»ИвХё (derivative-kick В░е
 170:Core/Src/drive.c ****     float dt = 0.02f;
 171:Core/Src/drive.c ****     if (ctx_center.prev_ms != 0U && in->now > ctx_center.prev_ms)
 172:Core/Src/drive.c ****         dt = clampf((float)(in->now - ctx_center.prev_ms) / 1000.0f, 0.005f, 0.100f);
 173:Core/Src/drive.c **** 
 174:Core/Src/drive.c ****     float d_error = (ctx_center.prev_ms == 0U) ? 0.0f : (error - ctx_center.prev_error) / dt;  /* В
 175:Core/Src/drive.c **** 
 176:Core/Src/drive.c ****     /* ---- В░еВ▓┤ Ж░ЂВєЇвЈё(IMU ВъљВЮ┤вАю ВаЂвХёЖИ░в░ў): wrap180(heading-h_prev)/dt, CW(Вџ░)=+ (db
 177:Core/Src/drive.c ****     float yaw_rate = (in->imu_live && ctx_center.imu_prev_live && ctx_center.prev_ms != 0U)
 178:Core/Src/drive.c ****                    ? wrap180(in->heading - h_prev) / dt
 179:Core/Src/drive.c ****                    : 0.0f;
 180:Core/Src/drive.c **** 
 181:Core/Src/drive.c ****     /* ВЃЂьЃю ВЌ░ВєЇ Ж░▒ВІа (в»ИвХё ВЌ░ВєЇВё▒) Рђћ вЇ░вЊюВА┤/вфевЊю вг┤Ж┤ђьЋўЖ▓ї ьЋГВЃЂ */
 182:Core/Src/drive.c ****     ctx_center.prev_error = error;
 183:Core/Src/drive.c ****     ctx_center.prev_ms    = in->now;
 184:Core/Src/drive.c ****     if (in->imu_live) h_prev = in->heading;
 185:Core/Src/drive.c ****     ctx_center.imu_prev_live = in->imu_live;
 186:Core/Src/drive.c **** 
 187:Core/Src/drive.c ****     /* ---- вфевЊю ВёаьЃЮ: ВќЉв▓й в│┤ВЮ┤вЕ┤ Вё╝ьё░вДЂ, ьЋюВфйВЮ┤вЮ╝вЈё ВЃЂВІц(вг┤ВЌљВйћ=Вё╝ьІ░вёг)В
 188:Core/Src/drive.c ****        center_sanitize_cmЖ░ђ вг┤ВЌљВйћ/ВіцьїїВЮ┤ьЂг(0 вўљвіћ >MAX)вЦ╝ MAXвАю ьЂ┤въеьћё Рєњ 'MAX в»И
 189:Core/Src/drive.c ****     uint8_t left_seen  = (left_cm  < (float)CENTER_SENSOR_MAX_CM);
 190:Core/Src/drive.c ****     uint8_t right_seen = (right_cm < (float)CENTER_SENSOR_MAX_CM);
 191:Core/Src/drive.c **** 
 192:Core/Src/drive.c ****     float   steer;
ARM GAS  C:\Users\user\AppData\Local\Temp\cc6kGr5c.s 			page 8


 193:Core/Src/drive.c ****     uint8_t mode;
 194:Core/Src/drive.c **** 
 195:Core/Src/drive.c ****     if (left_seen && right_seen)
 196:Core/Src/drive.c ****     {
 197:Core/Src/drive.c ****         /* ВќЉв▓й Вё╝ьё░вДЂ: вЇ░вЊюВА┤ВЮђ ВХюваЦвІеВЌљВёювДї Ж▓їВЮ┤ьіИ(P+D=0), в»ИвХё ВЮ┤ваЦВЮђ Вюё
 198:Core/Src/drive.c ****         mode  = SM_BOTH;
 199:Core/Src/drive.c ****         steer = (fabsf(error) <= CENTER_DEADZONE_CM)
 200:Core/Src/drive.c ****               ? 0.0f
 201:Core/Src/drive.c ****               : (CENTER_KP * error) + (CENTER_KD * d_error);
 202:Core/Src/drive.c ****     }
 203:Core/Src/drive.c ****     else if (in->imu_live)
 204:Core/Src/drive.c ****     {
 205:Core/Src/drive.c ****         /* ьЋюВфй в▓й ВЃЂВІц Рєњ В┤ѕВЮїьїї ВўцВ░е в▓ёвдгЖ│а IMU heading-hold (в▓й ьіљВЌљ ВЮўьЋю ЖИЅ
 206:Core/Src/drive.c ****            вХђьўИ: steer>0=Вбї(CCW), heading=CW+ Рєњ heading>h_ref(Вџ░вАю в░ђвд╝)вЕ┤ steer>0(ВбївАю
 207:Core/Src/drive.c ****         mode  = SM_HDG;
 208:Core/Src/drive.c ****         steer = KP_HDG * wrap180(in->heading - h_ref);
 209:Core/Src/drive.c ****     }
 210:Core/Src/drive.c ****     else
 211:Core/Src/drive.c ****     {
 212:Core/Src/drive.c ****         /* в▓й ВЃЂВІц + IMU ВѓгвДЮ Рєњ ЖИ░Вцђ ВЌєВЮї Рєњ open-loop ВДЂВДё */
 213:Core/Src/drive.c ****         mode  = SM_OPEN;
 214:Core/Src/drive.c ****         steer = 0.0f;
 215:Core/Src/drive.c ****     }
 216:Core/Src/drive.c **** 
 217:Core/Src/drive.c ****     /* ---- Yaw-rate вїљьЋЉ (ВЮїВЮў ьћ╝вЊюв░▒): вфевЊю вг┤Ж┤ђ, imu_liveВЮ╝ вЋївДї ----
 218:Core/Src/drive.c ****        steer>0=Вбї(CCW)Рєњheading Ж░љВєї(CW+). ВІцВаю ьџїВаё yaw_rate(CW+)вЦ╝ ВЃЂВЄёьЋўвацвЕ┤ вЈЎвХ
 219:Core/Src/drive.c ****        yaw_rate>0(Вџ░вАю ьџїВаё ВцЉ)Рєњ steer += (ВбївАю в│┤ВаЋ). Рѕ┤ ВЮ┤ ваѕьЈг вХђьўИЖ│ёВЌљВёа '+
 220:Core/Src/drive.c ****        вЁИВЮ┤Вдѕ ьЂ░ В┤ѕВЮїьїї D(CENTER_KD) в╣ёВцЉРєЊ, ВъљВЮ┤вАюЖ░ђ ВдЅЖ░Ђ Ж░љВЄа вІ┤вІ╣ */
 221:Core/Src/drive.c ****     if (in->imu_live)
 222:Core/Src/drive.c ****         steer += KD_YAW * yaw_rate;
 223:Core/Src/drive.c **** 
 224:Core/Src/drive.c ****     steer = clampf(steer, -steer_max, steer_max);
 225:Core/Src/drive.c **** 
 226:Core/Src/drive.c ****     /* ВА░ьќЦ в│ђьЎћВюе ВаюьЋю(slew): вБеьћёвІ╣ ┬▒CENTER_STEER_SLEW_PCT ВЮ┤вѓ┤вАювДї в│ђьЋе Рєњ Вбї
 227:Core/Src/drive.c ****        вЇ░вЊюв░┤вЊювАю 0ВЮ┤ вља вЋївЈё ЖИЅЖ░ЋьЋў вїђВІа ВёюВёюьъѕ в│хЖиђ Рєњ ВДЂВДё/ВбЂВЮђЖИИ вХђвЊ
 228:Core/Src/drive.c ****     {
 229:Core/Src/drive.c ****         steer = clampf(steer, ctx_center.steer_prev - CENTER_STEER_SLEW_PCT, ctx_center.steer_prev 
 230:Core/Src/drive.c ****         ctx_center.steer_prev = steer;
 231:Core/Src/drive.c ****     }
 232:Core/Src/drive.c **** 
 233:Core/Src/drive.c ****     /* ВєЇвЈё: ВА░ьќЦвЪЅ в╣ёвАђ Ж░љВєЇвДї (Ваёв░ЕЖи╝ВаЉ fc Ж░љВєЇ ьЈљВДђ Рђћ Вйћвёѕ ВаЋВДђвіћ cruis
 234:Core/Src/drive.c ****     float steer_ratio = fabsf(steer) / steer_max;   /* steer_max=10>0 */
 235:Core/Src/drive.c ****     float base = CENTER_BASE_SPEED_PCT
 236:Core/Src/drive.c ****                - ((CENTER_BASE_SPEED_PCT - CENTER_MIN_SPEED_PCT) * steer_ratio);
 237:Core/Src/drive.c ****     base = clampf(base, CENTER_MIN_SPEED_PCT, CENTER_BASE_SPEED_PCT);
 238:Core/Src/drive.c **** 
 239:Core/Src/drive.c ****     float lt = clampf(base - steer + (float)MOTOR_TRIM_PCT, 0.0f, 100.0f);   /* ВЋѕВфй в░ћвІЦ 0 = В
 240:Core/Src/drive.c ****     float rt = clampf(base + steer - (float)MOTOR_TRIM_PCT, 0.0f, 100.0f);
 241:Core/Src/drive.c **** 
 242:Core/Src/drive.c ****     Motor_Left((int8_t)(lt + 0.5f));
 243:Core/Src/drive.c ****     Motor_Right((int8_t)(rt + 0.5f));
 244:Core/Src/drive.c **** 
 245:Core/Src/drive.c ****     dbg.steer      = steer;
 246:Core/Src/drive.c ****     dbg.steer_mode = mode;
 247:Core/Src/drive.c ****     dbg.yaw_rate   = yaw_rate;
 248:Core/Src/drive.c ****     dbg.hdg_err    = wrap180(in->heading - h_ref);
 249:Core/Src/drive.c ****     dbg.duty_l     = (int16_t)(lt + 0.5f);
ARM GAS  C:\Users\user\AppData\Local\Temp\cc6kGr5c.s 			page 9


 250:Core/Src/drive.c ****     dbg.duty_r     = (int16_t)(rt + 0.5f);
 251:Core/Src/drive.c **** }
 252:Core/Src/drive.c **** 
 253:Core/Src/drive.c **** /* ---- ВЃЂьЃю ВДёВъЁ ьЌгьЇ╝ (ВДёВъЁ ВЋАВЁў + ьЃђВъёВіцьЃгьћё) ---- */
 254:Core/Src/drive.c **** 
 255:Core/Src/drive.c **** static void enter(DriveState s, uint32_t now)
 256:Core/Src/drive.c **** {
 209              		.loc 1 256 1 is_stmt 1 view -0
 210              		.cfi_startproc
 211              		@ args = 0, pretend = 0, frame = 0
 212              		@ frame_needed = 0, uses_anonymous_args = 0
 213              		@ link register save eliminated.
 257:Core/Src/drive.c ****     st = s;
 214              		.loc 1 257 5 view .LVU52
 215              		.loc 1 257 8 is_stmt 0 view .LVU53
 216 0000 024B     		ldr	r3, .L14
 217 0002 1870     		strb	r0, [r3]
 258:Core/Src/drive.c ****     t_state = now;
 218              		.loc 1 258 5 is_stmt 1 view .LVU54
 219              		.loc 1 258 13 is_stmt 0 view .LVU55
 220 0004 024B     		ldr	r3, .L14+4
 221 0006 1960     		str	r1, [r3]
 259:Core/Src/drive.c **** }
 222              		.loc 1 259 1 view .LVU56
 223 0008 7047     		bx	lr
 224              	.L15:
 225 000a 00BF     		.align	2
 226              	.L14:
 227 000c 00000000 		.word	st
 228 0010 00000000 		.word	t_state
 229              		.cfi_endproc
 230              	.LFE140:
 232              		.section	.text.cruise_enter,"ax",%progbits
 233              		.align	1
 234              		.syntax unified
 235              		.thumb
 236              		.thumb_func
 238              	cruise_enter:
 239              	.LVL15:
 240              	.LFB141:
 260:Core/Src/drive.c **** 
 261:Core/Src/drive.c **** static void cruise_enter(const DriveInputs *in)
 262:Core/Src/drive.c **** {
 241              		.loc 1 262 1 is_stmt 1 view -0
 242              		.cfi_startproc
 243              		@ args = 0, pretend = 0, frame = 0
 244              		@ frame_needed = 0, uses_anonymous_args = 0
 245              		.loc 1 262 1 is_stmt 0 view .LVU58
 246 0000 10B5     		push	{r4, lr}
 247              	.LCFI0:
 248              		.cfi_def_cfa_offset 8
 249              		.cfi_offset 4, -8
 250              		.cfi_offset 14, -4
 251 0002 0446     		mov	r4, r0
 263:Core/Src/drive.c ****     h_ref      = in->heading;   /* вг┤в▓й ЖхгЖ░ё ВДЂВДё ЖИ░Вцђ Рђћ ьџїьћ╝ ВДЂьЏёВЮў ВЃѕ ВДёьќЅв░Еьќ
 252              		.loc 1 263 5 is_stmt 1 view .LVU59
 253              		.loc 1 263 20 is_stmt 0 view .LVU60
ARM GAS  C:\Users\user\AppData\Local\Temp\cc6kGr5c.s 			page 10


 254 0004 C368     		ldr	r3, [r0, #12]	@ float
 255              		.loc 1 263 16 view .LVU61
 256 0006 094A     		ldr	r2, .L18
 257 0008 1360     		str	r3, [r2]	@ float
 264:Core/Src/drive.c ****     course_heading = in->heading;   /* [req4] Вйћвёѕ в╣аВаИвѓўВўе ВЃѕ legвЦ╝ ВаЋв░ЕьќЦВю╝вАю Въгвъў
 258              		.loc 1 264 5 is_stmt 1 view .LVU62
 259              		.loc 1 264 20 is_stmt 0 view .LVU63
 260 000a 094A     		ldr	r2, .L18+4
 261 000c 1360     		str	r3, [r2]	@ float
 265:Core/Src/drive.c ****     Centering_Reset(&ctx_center);
 262              		.loc 1 265 5 is_stmt 1 view .LVU64
 263 000e 0948     		ldr	r0, .L18+8
 264              	.LVL16:
 265              		.loc 1 265 5 is_stmt 0 view .LVU65
 266 0010 FFF7FEFF 		bl	Centering_Reset
 267              	.LVL17:
 266:Core/Src/drive.c ****     rev_cnt    = 0;
 268              		.loc 1 266 5 is_stmt 1 view .LVU66
 269              		.loc 1 266 16 is_stmt 0 view .LVU67
 270 0014 0020     		movs	r0, #0
 271 0016 084B     		ldr	r3, .L18+12
 272 0018 1870     		strb	r0, [r3]
 267:Core/Src/drive.c ****     front_near_cnt = 0;
 273              		.loc 1 267 5 is_stmt 1 view .LVU68
 274              		.loc 1 267 20 is_stmt 0 view .LVU69
 275 001a 084B     		ldr	r3, .L18+16
 276 001c 1870     		strb	r0, [r3]
 268:Core/Src/drive.c ****     h_prev     = in->heading;   /* yaw-rate вдгВЁІ: ьџїьћ╝ в│хЖиђ ВДЂьЏё stale headingВ░евАю Віцьїї
 277              		.loc 1 268 5 is_stmt 1 view .LVU70
 278              		.loc 1 268 20 is_stmt 0 view .LVU71
 279 001e E268     		ldr	r2, [r4, #12]	@ float
 280              		.loc 1 268 16 view .LVU72
 281 0020 074B     		ldr	r3, .L18+20
 282 0022 1A60     		str	r2, [r3]	@ float
 269:Core/Src/drive.c ****     enter(DS_CRUISE, in->now);
 283              		.loc 1 269 5 is_stmt 1 view .LVU73
 284 0024 6169     		ldr	r1, [r4, #20]
 285 0026 FFF7FEFF 		bl	enter
 286              	.LVL18:
 270:Core/Src/drive.c **** }
 287              		.loc 1 270 1 is_stmt 0 view .LVU74
 288 002a 10BD     		pop	{r4, pc}
 289              	.LVL19:
 290              	.L19:
 291              		.loc 1 270 1 view .LVU75
 292              		.align	2
 293              	.L18:
 294 002c 00000000 		.word	h_ref
 295 0030 00000000 		.word	course_heading
 296 0034 00000000 		.word	ctx_center
 297 0038 00000000 		.word	rev_cnt
 298 003c 00000000 		.word	front_near_cnt
 299 0040 00000000 		.word	h_prev
 300              		.cfi_endproc
 301              	.LFE141:
 303              		.section	.text.spin_enter,"ax",%progbits
 304              		.align	1
ARM GAS  C:\Users\user\AppData\Local\Temp\cc6kGr5c.s 			page 11


 305              		.syntax unified
 306              		.thumb
 307              		.thumb_func
 309              	spin_enter:
 310              	.LVL20:
 311              	.LFB143:
 271:Core/Src/drive.c **** 
 272:Core/Src/drive.c **** static void brake_enter(const DriveInputs *in)
 273:Core/Src/drive.c **** {
 274:Core/Src/drive.c ****     if (BRAKE_MS > 0) Car_Brake();   /* BRAKE_MS=0 Рєњ ваѕЖ▒░ВІю ВйћВіцьіИ ьЈ┤в░▒ */
 275:Core/Src/drive.c ****     else              Car_Stop();
 276:Core/Src/drive.c ****     enter(DS_BRAKE, in->now);
 277:Core/Src/drive.c **** }
 278:Core/Src/drive.c **** 
 279:Core/Src/drive.c **** /* tie_flip: ВбїВџ░ Вџ░ВЌ┤ВЮ┤ SIDE_HYST в»ИвДї(вЈЎвЦа)ВЮ╝ вЋї ВДЂВаё в░ЕьќЦ ВюаВДђ(0) vs в░ўвїђвАю(
 280:Core/Src/drive.c ****  * ьЏёВДёВЮё Ж▒░В│љ вЊцВќ┤ВўцвЕ┤ в░ўвїђВфйВЮё ВІювЈёьЋўвіћ Ж▓ї ьЈгВ╝Њ ьЃѕВХюВЌљ Вюавдг */
 281:Core/Src/drive.c **** static void spin_enter(const DriveInputs *in, uint8_t tie_flip)
 282:Core/Src/drive.c **** {
 312              		.loc 1 282 1 is_stmt 1 view -0
 313              		.cfi_startproc
 314              		@ args = 0, pretend = 0, frame = 0
 315              		@ frame_needed = 0, uses_anonymous_args = 0
 316              		.loc 1 282 1 is_stmt 0 view .LVU77
 317 0000 08B5     		push	{r3, lr}
 318              	.LCFI1:
 319              		.cfi_def_cfa_offset 8
 320              		.cfi_offset 3, -8
 321              		.cfi_offset 14, -4
 283:Core/Src/drive.c ****     if      (in->l > in->r + SIDE_HYST) turn_dir = 0;   /* ВЎ╝ВфйВЮ┤ вЇћ ьіИВъё Рєњ ВбїьџїВаё */
 322              		.loc 1 283 5 is_stmt 1 view .LVU78
 323              		.loc 1 283 16 is_stmt 0 view .LVU79
 324 0002 4388     		ldrh	r3, [r0, #2]
 325              		.loc 1 283 24 view .LVU80
 326 0004 8288     		ldrh	r2, [r0, #4]
 327              		.loc 1 283 28 view .LVU81
 328 0006 02F1050C 		add	ip, r2, #5
 329              		.loc 1 283 13 view .LVU82
 330 000a 6345     		cmp	r3, ip
 331 000c 18DD     		ble	.L21
 332              		.loc 1 283 41 is_stmt 1 discriminator 1 view .LVU83
 333              		.loc 1 283 50 is_stmt 0 discriminator 1 view .LVU84
 334 000e 144B     		ldr	r3, .L25
 335 0010 0022     		movs	r2, #0
 336 0012 1A70     		strb	r2, [r3]
 337              	.L22:
 284:Core/Src/drive.c ****     else if (in->r > in->l + SIDE_HYST) turn_dir = 1;
 285:Core/Src/drive.c ****     else if (tie_flip)                  turn_dir ^= 1;
 286:Core/Src/drive.c ****     swap_cnt  = 0;
 338              		.loc 1 286 5 is_stmt 1 view .LVU85
 339              		.loc 1 286 15 is_stmt 0 view .LVU86
 340 0014 0023     		movs	r3, #0
 341 0016 134A     		ldr	r2, .L25+4
 342 0018 1370     		strb	r3, [r2]
 287:Core/Src/drive.c ****     clear_cnt = 0;
 343              		.loc 1 287 5 is_stmt 1 view .LVU87
 344              		.loc 1 287 15 is_stmt 0 view .LVU88
 345 001a 134A     		ldr	r2, .L25+8
ARM GAS  C:\Users\user\AppData\Local\Temp\cc6kGr5c.s 			page 12


 346 001c 1370     		strb	r3, [r2]
 288:Core/Src/drive.c ****     h_entry = in->heading;
 347              		.loc 1 288 5 is_stmt 1 view .LVU89
 348              		.loc 1 288 17 is_stmt 0 view .LVU90
 349 001e C368     		ldr	r3, [r0, #12]	@ float
 350              		.loc 1 288 13 view .LVU91
 351 0020 124A     		ldr	r2, .L25+12
 352 0022 1360     		str	r3, [r2]	@ float
 289:Core/Src/drive.c ****     h_stuck = in->heading;
 353              		.loc 1 289 5 is_stmt 1 view .LVU92
 354              		.loc 1 289 13 is_stmt 0 view .LVU93
 355 0024 124A     		ldr	r2, .L25+16
 356 0026 1360     		str	r3, [r2]	@ float
 290:Core/Src/drive.c ****     h_entry_valid = in->imu_live;
 357              		.loc 1 290 5 is_stmt 1 view .LVU94
 358              		.loc 1 290 23 is_stmt 0 view .LVU95
 359 0028 027C     		ldrb	r2, [r0, #16]	@ zero_extendqisi2
 360              		.loc 1 290 19 view .LVU96
 361 002a 124B     		ldr	r3, .L25+20
 362 002c 1A70     		strb	r2, [r3]
 291:Core/Src/drive.c ****     t_stuck = in->now;
 363              		.loc 1 291 5 is_stmt 1 view .LVU97
 364              		.loc 1 291 17 is_stmt 0 view .LVU98
 365 002e 4169     		ldr	r1, [r0, #20]
 366              	.LVL21:
 367              		.loc 1 291 13 view .LVU99
 368 0030 114B     		ldr	r3, .L25+24
 369 0032 1960     		str	r1, [r3]
 292:Core/Src/drive.c ****     t_spin0 = in->now;   /* [fix] вИћвЮ╝ВЮИвЊю ВІюЖ░ёВ╗и ЖИ░Вцђ(В┤Ю ВіцьЋђ ВІюЖ░ё Рђћ swapВЌљвЈё Вю
 370              		.loc 1 292 5 is_stmt 1 view .LVU100
 371              		.loc 1 292 13 is_stmt 0 view .LVU101
 372 0034 114B     		ldr	r3, .L25+28
 373 0036 1960     		str	r1, [r3]
 293:Core/Src/drive.c ****     enter(DS_SPIN, in->now);
 374              		.loc 1 293 5 is_stmt 1 view .LVU102
 375 0038 0220     		movs	r0, #2
 376              	.LVL22:
 377              		.loc 1 293 5 is_stmt 0 view .LVU103
 378 003a FFF7FEFF 		bl	enter
 379              	.LVL23:
 294:Core/Src/drive.c **** }
 380              		.loc 1 294 1 view .LVU104
 381 003e 08BD     		pop	{r3, pc}
 382              	.LVL24:
 383              	.L21:
 284:Core/Src/drive.c ****     else if (tie_flip)                  turn_dir ^= 1;
 384              		.loc 1 284 10 is_stmt 1 view .LVU105
 284:Core/Src/drive.c ****     else if (tie_flip)                  turn_dir ^= 1;
 385              		.loc 1 284 28 is_stmt 0 view .LVU106
 386 0040 0533     		adds	r3, r3, #5
 284:Core/Src/drive.c ****     else if (tie_flip)                  turn_dir ^= 1;
 387              		.loc 1 284 13 view .LVU107
 388 0042 9A42     		cmp	r2, r3
 389 0044 03DD     		ble	.L23
 284:Core/Src/drive.c ****     else if (tie_flip)                  turn_dir ^= 1;
 390              		.loc 1 284 41 is_stmt 1 discriminator 1 view .LVU108
 284:Core/Src/drive.c ****     else if (tie_flip)                  turn_dir ^= 1;
ARM GAS  C:\Users\user\AppData\Local\Temp\cc6kGr5c.s 			page 13


 391              		.loc 1 284 50 is_stmt 0 discriminator 1 view .LVU109
 392 0046 064B     		ldr	r3, .L25
 393 0048 0122     		movs	r2, #1
 394 004a 1A70     		strb	r2, [r3]
 395 004c E2E7     		b	.L22
 396              	.L23:
 285:Core/Src/drive.c ****     swap_cnt  = 0;
 397              		.loc 1 285 10 is_stmt 1 view .LVU110
 285:Core/Src/drive.c ****     swap_cnt  = 0;
 398              		.loc 1 285 13 is_stmt 0 view .LVU111
 399 004e 0029     		cmp	r1, #0
 400 0050 E0D0     		beq	.L22
 285:Core/Src/drive.c ****     swap_cnt  = 0;
 401              		.loc 1 285 41 is_stmt 1 discriminator 1 view .LVU112
 285:Core/Src/drive.c ****     swap_cnt  = 0;
 402              		.loc 1 285 50 is_stmt 0 discriminator 1 view .LVU113
 403 0052 034A     		ldr	r2, .L25
 404 0054 1378     		ldrb	r3, [r2]	@ zero_extendqisi2
 405 0056 83F00103 		eor	r3, r3, #1
 406 005a 1370     		strb	r3, [r2]
 407 005c DAE7     		b	.L22
 408              	.L26:
 409 005e 00BF     		.align	2
 410              	.L25:
 411 0060 00000000 		.word	turn_dir
 412 0064 00000000 		.word	swap_cnt
 413 0068 00000000 		.word	clear_cnt
 414 006c 00000000 		.word	h_entry
 415 0070 00000000 		.word	h_stuck
 416 0074 00000000 		.word	h_entry_valid
 417 0078 00000000 		.word	t_stuck
 418 007c 00000000 		.word	t_spin0
 419              		.cfi_endproc
 420              	.LFE143:
 422              		.section	.text.side_avoid_enter,"ax",%progbits
 423              		.align	1
 424              		.syntax unified
 425              		.thumb
 426              		.thumb_func
 428              	side_avoid_enter:
 429              	.LVL25:
 430              	.LFB146:
 295:Core/Src/drive.c **** 
 296:Core/Src/drive.c **** /* (corner_enter ВѓГВаю Рђћ ВЋёьЂг Вйћвёѕ ьЈљВДђ. Вйћвёѕ ьџїВаё в░ЕьќЦ въўВ╣ўвіћ spin_enterЖ░ђ вІ┤в
 297:Core/Src/drive.c **** 
 298:Core/Src/drive.c **** static void reverse_enter(const DriveInputs *in)
 299:Core/Src/drive.c **** {
 300:Core/Src/drive.c ****     Car_Backward(DRIVE_SPEED);
 301:Core/Src/drive.c ****     if (rev_cnt < 255) rev_cnt++;
 302:Core/Src/drive.c ****     enter(DS_REVERSE, in->now);
 303:Core/Src/drive.c **** }
 304:Core/Src/drive.c **** 
 305:Core/Src/drive.c **** static void hold_enter(const DriveInputs *in)
 306:Core/Src/drive.c **** {
 307:Core/Src/drive.c ****     Car_Stop();   /* ВаЋВДђ ВЃЂьЃю ВюаВДђВЌћ ВйћВіцьіИвАю ВХЕвХё */
 308:Core/Src/drive.c ****     enter(DS_HOLD, in->now);
 309:Core/Src/drive.c **** }
ARM GAS  C:\Users\user\AppData\Local\Temp\cc6kGr5c.s 			page 14


 310:Core/Src/drive.c **** 
 311:Core/Src/drive.c **** /* ВИАвЕ┤ в░ЋЖИ░ВДЂВаё: вЇћ Ж░ђЖ╣їВџ┤(в░Ћьъї) Вфй в░ўвїђвАю ьџїВаёьЋўвЈёвАЮ въўВ╣ў ьЏё ВДёВъЁ.
 312:Core/Src/drive.c ****  * l<r=Вбїв▓й в░ЋьъўРєњВџ░ьџїВаё(turn_dir 1), r<l=Вџ░в▓й в░ЋьъўРєњВбїьџїВаё(0), вЈЎвЦа=ВДЂВаё ВюаВД
 313:Core/Src/drive.c **** static void side_avoid_enter(const DriveInputs *in)
 314:Core/Src/drive.c **** {
 431              		.loc 1 314 1 is_stmt 1 view -0
 432              		.cfi_startproc
 433              		@ args = 0, pretend = 0, frame = 0
 434              		@ frame_needed = 0, uses_anonymous_args = 0
 435              		.loc 1 314 1 is_stmt 0 view .LVU115
 436 0000 08B5     		push	{r3, lr}
 437              	.LCFI2:
 438              		.cfi_def_cfa_offset 8
 439              		.cfi_offset 3, -8
 440              		.cfi_offset 14, -4
 315:Core/Src/drive.c ****     if      (in->l < in->r) turn_dir = 1;   /* Вбїв▓й Ж░ђЖ╣їВЏђ Рєњ Вџ░ьџїВаёВю╝вАю вЕђВќ┤ВДљ */
 441              		.loc 1 315 5 is_stmt 1 view .LVU116
 442              		.loc 1 315 16 is_stmt 0 view .LVU117
 443 0002 4288     		ldrh	r2, [r0, #2]
 444              		.loc 1 315 24 view .LVU118
 445 0004 8388     		ldrh	r3, [r0, #4]
 446              		.loc 1 315 13 view .LVU119
 447 0006 9A42     		cmp	r2, r3
 448 0008 07D2     		bcs	.L28
 449              		.loc 1 315 29 is_stmt 1 discriminator 1 view .LVU120
 450              		.loc 1 315 38 is_stmt 0 discriminator 1 view .LVU121
 451 000a 074B     		ldr	r3, .L31
 452 000c 0122     		movs	r2, #1
 453 000e 1A70     		strb	r2, [r3]
 454              	.L29:
 316:Core/Src/drive.c ****     else if (in->r < in->l) turn_dir = 0;   /* Вџ░в▓й Ж░ђЖ╣їВЏђ Рєњ ВбїьџїВаё */
 317:Core/Src/drive.c ****     enter(DS_SIDE_AVOID, in->now);
 455              		.loc 1 317 5 is_stmt 1 view .LVU122
 456 0010 4169     		ldr	r1, [r0, #20]
 457 0012 0520     		movs	r0, #5
 458              	.LVL26:
 459              		.loc 1 317 5 is_stmt 0 view .LVU123
 460 0014 FFF7FEFF 		bl	enter
 461              	.LVL27:
 318:Core/Src/drive.c **** }
 462              		.loc 1 318 1 view .LVU124
 463 0018 08BD     		pop	{r3, pc}
 464              	.LVL28:
 465              	.L28:
 316:Core/Src/drive.c ****     else if (in->r < in->l) turn_dir = 0;   /* Вџ░в▓й Ж░ђЖ╣їВЏђ Рєњ ВбїьџїВаё */
 466              		.loc 1 316 10 is_stmt 1 view .LVU125
 316:Core/Src/drive.c ****     else if (in->r < in->l) turn_dir = 0;   /* Вџ░в▓й Ж░ђЖ╣їВЏђ Рєњ ВбїьџїВаё */
 467              		.loc 1 316 13 is_stmt 0 view .LVU126
 468 001a 9A42     		cmp	r2, r3
 469 001c F8D9     		bls	.L29
 316:Core/Src/drive.c ****     else if (in->r < in->l) turn_dir = 0;   /* Вџ░в▓й Ж░ђЖ╣їВЏђ Рєњ ВбїьџїВаё */
 470              		.loc 1 316 29 is_stmt 1 discriminator 1 view .LVU127
 316:Core/Src/drive.c ****     else if (in->r < in->l) turn_dir = 0;   /* Вџ░в▓й Ж░ђЖ╣їВЏђ Рєњ ВбїьџїВаё */
 471              		.loc 1 316 38 is_stmt 0 discriminator 1 view .LVU128
 472 001e 024B     		ldr	r3, .L31
 473 0020 0022     		movs	r2, #0
 474 0022 1A70     		strb	r2, [r3]
ARM GAS  C:\Users\user\AppData\Local\Temp\cc6kGr5c.s 			page 15


 475 0024 F4E7     		b	.L29
 476              	.L32:
 477 0026 00BF     		.align	2
 478              	.L31:
 479 0028 00000000 		.word	turn_dir
 480              		.cfi_endproc
 481              	.LFE146:
 483              		.section	.text.front_graze_suspected,"ax",%progbits
 484              		.align	1
 485              		.syntax unified
 486              		.thumb
 487              		.thumb_func
 489              	front_graze_suspected:
 490              	.LVL29:
 491              	.LFB147:
 319:Core/Src/drive.c **** 
 320:Core/Src/drive.c **** /* [req1] ВаёвЕ┤ Жи╝ВаЉЖ░њ(f<TURN)ВЮ┤ 'ВИАв▓й в╣ћ ЖиИваѕВЮ┤ВДЋ(ВбЂВЮђ в│хвЈё в╣ћ Ж░ёВёГ)'Вю╝вАю Вёц
 321:Core/Src/drive.c ****  *
 322:Core/Src/drive.c ****  * ЖИ░ьЋў вфевЇИ: Ваёв░Е В┤ѕВЮїьїї в╣ћВЮђ в░ўЖ░Ђ ╬И_bВЮў ВЏљв┐ћ. ВИАв░ЕЖ▒░вдг w(=В░еВ▓┤ Вўє в▓йЖ╣їВ
 323:Core/Src/drive.c ****  * В▓ўВЮї ВъАьъѕвіћ ВДђВаљВЮў ВігвъюьіИ(в╣Ќв│ђ) Ж▒░вдгвіћ R_min = w / sin(╬И_b) (Ваёв░ЕВХЋЖ▒░вдг x=
 324:Core/Src/drive.c ****  * R=Рѕџ(x┬▓+w┬▓)=w/sin╬И_b). ВдЅ ВИАв▓й вІевЈЁ в░ўВѓгвАювіћ R_min 'ВЮ┤ВЃЂ'вДї ВИАВаЋ Ж░ђвіЦ Рєњ
 325:Core/Src/drive.c ****  *   ┬и f РЅЦ w_near/sin(╬И_b)  : Жи╝ВаЉ ВИАв▓й ЖиИваѕВЮ┤ВДЋВю╝вАю ВёцвфЁ Ж░ђвіЦ = Ж░ђВДю(ВаЋвЕ┤в▓й
 326:Core/Src/drive.c ****  *   ┬и f <  w_near/sin(╬И_b) : Вќ┤вќц ВИАв▓йВю╝вАювЈё вф╗ вДївЊювіћ вЇћ Ж░ђЖ╣їВџ┤ ВІцВаю ьЉюВаЂ = 
 327:Core/Src/drive.c ****  * вХђвЈЎВєїВѕў вѓўвѕЌВЁѕ ьџїьћ╝ ВюёьЋ┤ 'w_near РЅц f┬иsin(╬И_b)'вАю в│ђьўЋ(вЈЎВ╣ў).
 328:Core/Src/drive.c ****  *
 329:Core/Src/drive.c ****  * IMU ЖхљВ░еЖ▓ђВдЮ: В░еВ▓┤Ж░ђ в│хвЈёВХЋ(h_ref)ВЌљВёю FRONT_OFFAXIS_DEG вёўЖ▓ї ьІђВќ┤ВДђвЕ┤ Ваёв░Ев
 330:Core/Src/drive.c ****  * ВХЋВЮё в▓ЌВќ┤вѓў ВИАв▓йВЮё ВДЂЖ▓Е Рєњ ЖиИ ВъљВ▓┤вАю ЖиИваѕВЮ┤ВДЋ ВЮўВІг(ЖИ░ьЋў Ж▓їВЮ┤ьіИ в│┤ВЎё)
 331:Core/Src/drive.c **** static uint8_t front_graze_suspected(const DriveInputs *in)
 332:Core/Src/drive.c **** {
 492              		.loc 1 332 1 is_stmt 1 view -0
 493              		.cfi_startproc
 494              		@ args = 0, pretend = 0, frame = 0
 495              		@ frame_needed = 0, uses_anonymous_args = 0
 496              		@ link register save eliminated.
 497              		.loc 1 332 1 is_stmt 0 view .LVU130
 498 0000 0346     		mov	r3, r0
 333:Core/Src/drive.c ****     uint16_t w_near = (in->l < in->r) ? in->l : in->r;
 499              		.loc 1 333 5 is_stmt 1 view .LVU131
 500              		.loc 1 333 34 is_stmt 0 view .LVU132
 501 0002 8288     		ldrh	r2, [r0, #4]
 502              		.loc 1 333 26 view .LVU133
 503 0004 4188     		ldrh	r1, [r0, #2]
 504              		.loc 1 333 14 view .LVU134
 505 0006 1046     		mov	r0, r2
 506              	.LVL30:
 507              		.loc 1 333 14 view .LVU135
 508 0008 8A42     		cmp	r2, r1
 509 000a 28BF     		it	cs
 510 000c 0846     		movcs	r0, r1
 511              	.LVL31:
 334:Core/Src/drive.c ****     uint16_t w_far  = (in->l < in->r) ? in->r : in->l;
 512              		.loc 1 334 5 is_stmt 1 view .LVU136
 513              		.loc 1 334 14 is_stmt 0 view .LVU137
 514 000e 8A42     		cmp	r2, r1
 515 0010 38BF     		it	cc
 516 0012 0A46     		movcc	r2, r1
 517              	.LVL32:
ARM GAS  C:\Users\user\AppData\Local\Temp\cc6kGr5c.s 			page 16


 335:Core/Src/drive.c **** 
 336:Core/Src/drive.c ****     /* РўЁ[fixРЉб] ьЋюВфйВЮ┤ CORNER_ASYM_CM ВЮ┤ВЃЂ вЇћ ьіИВъё = вїђВ╣Г ВбЂВЮђв│хвЈёЖ░ђ ВЋёвІѕвЮ╝ Ж│
 337:Core/Src/drive.c ****        ВаЋвЕ┤ВЮђ ВІцВаю Вйћвёѕв▓й(ЖиИваѕВЮ┤ВДЋ ВЋёвІў). ВаЋВѕў в╣ёЖхљвАю ЖИ░ьЋў/IMU Ж▓їВЮ┤ьіИв│┤вІц
 338:Core/Src/drive.c ****        вїђВ╣Г Жи╝ВаЉ(ВќЉв▓й в╣ёВіи)ВЮ╝ вЋївДї ВЋёвъў ЖиИваѕВЮ┤ВДЋ ьїљВаЋ Рђћ ВДёВДю в╣ћЖ░ёВёГВЮђ Жи
 339:Core/Src/drive.c ****     if (w_far >= (uint16_t)(w_near + CORNER_ASYM_CM))
 518              		.loc 1 339 5 is_stmt 1 view .LVU138
 519              		.loc 1 339 18 is_stmt 0 view .LVU139
 520 0014 00F10C01 		add	r1, r0, #12
 521 0018 89B2     		uxth	r1, r1
 522              		.loc 1 339 8 view .LVU140
 523 001a 9142     		cmp	r1, r2
 524 001c 3CD9     		bls	.L39
 340:Core/Src/drive.c ****         return 0U;
 341:Core/Src/drive.c **** 
 342:Core/Src/drive.c ****     /* ЖИ░ьЋў Ж▓їВЮ┤ьіИ: Жи╝ВаЉ ВИАв▓йВЮ┤ ьўёВъг fвЦ╝ ЖиИваѕВЮ┤ВДЋВю╝вАю вДївЊц Вѕў Въѕвіћ Ж▒░вдгВЌ
 343:Core/Src/drive.c ****     if ((float)w_near <= (float)in->f * FRONT_BEAM_HALF_SIN)
 525              		.loc 1 343 5 is_stmt 1 view .LVU141
 526              		.loc 1 343 9 is_stmt 0 view .LVU142
 527 001e 07EE900A 		vmov	s15, r0	@ int
 528 0022 F8EE677A 		vcvt.f32.u32	s15, s15
 529              		.loc 1 343 35 view .LVU143
 530 0026 1A88     		ldrh	r2, [r3]
 531              	.LVL33:
 532              		.loc 1 343 35 view .LVU144
 533 0028 07EE102A 		vmov	s14, r2	@ int
 534              		.loc 1 343 26 view .LVU145
 535 002c B8EE477A 		vcvt.f32.u32	s14, s14
 536              		.loc 1 343 39 view .LVU146
 537 0030 DFED1C6A 		vldr.32	s13, .L45
 538 0034 27EE267A 		vmul.f32	s14, s14, s13
 539              		.loc 1 343 8 view .LVU147
 540 0038 F4EEC77A 		vcmpe.f32	s15, s14
 541 003c F1EE10FA 		vmrs	APSR_nzcv, FPSCR
 542 0040 2CD9     		bls	.L40
 344:Core/Src/drive.c ****         return 1U;
 345:Core/Src/drive.c **** 
 346:Core/Src/drive.c ****     /* IMU Ж▓їВЮ┤ьіИ: в│хвЈёВХЋ вїђв╣ё Ж│╝вЈё yaw Рєњ Ваёв░Ев╣ћ ВХЋВЮ┤ьЃѕ Рєњ ВИАв▓й ВДЂЖ▓Е ВЮўВІг 
 347:Core/Src/drive.c ****     if (in->imu_live && fabsf(wrap180(in->heading - h_ref)) > FRONT_OFFAXIS_DEG)
 543              		.loc 1 347 5 is_stmt 1 view .LVU148
 544              		.loc 1 347 11 is_stmt 0 view .LVU149
 545 0042 187C     		ldrb	r0, [r3, #16]	@ zero_extendqisi2
 546              	.LVL34:
 547              		.loc 1 347 8 view .LVU150
 548 0044 68B3     		cbz	r0, .L34
 549              		.loc 1 347 41 discriminator 1 view .LVU151
 550 0046 D3ED037A 		vldr.32	s15, [r3, #12]
 551              		.loc 1 347 31 discriminator 1 view .LVU152
 552 004a 174B     		ldr	r3, .L45+4
 553              	.LVL35:
 554              		.loc 1 347 31 discriminator 1 view .LVU153
 555 004c 93ED007A 		vldr.32	s14, [r3]
 556 0050 77EEC77A 		vsub.f32	s15, s15, s14
 557              	.LVL36:
 558              	.LBB27:
 559              	.LBI27:
  89:Core/Src/drive.c **** {
 560              		.loc 1 89 21 is_stmt 1 view .LVU154
ARM GAS  C:\Users\user\AppData\Local\Temp\cc6kGr5c.s 			page 17


 561              	.LBB28:
  91:Core/Src/drive.c ****     else if (a <= -180.0f) a += 360.0f;
 562              		.loc 1 91 5 view .LVU155
  91:Core/Src/drive.c ****     else if (a <= -180.0f) a += 360.0f;
 563              		.loc 1 91 13 is_stmt 0 view .LVU156
 564 0054 9FED157A 		vldr.32	s14, .L45+8
 565 0058 F4EEC77A 		vcmpe.f32	s15, s14
 566 005c F1EE10FA 		vmrs	APSR_nzcv, FPSCR
 567 0060 0EDD     		ble	.L44
  91:Core/Src/drive.c ****     else if (a <= -180.0f) a += 360.0f;
 568              		.loc 1 91 28 is_stmt 1 discriminator 1 view .LVU157
  91:Core/Src/drive.c ****     else if (a <= -180.0f) a += 360.0f;
 569              		.loc 1 91 30 is_stmt 0 discriminator 1 view .LVU158
 570 0062 9FED137A 		vldr.32	s14, .L45+12
 571 0066 77EEC77A 		vsub.f32	s15, s15, s14
 572              	.LVL37:
 573              	.L37:
  93:Core/Src/drive.c **** }
 574              		.loc 1 93 5 is_stmt 1 view .LVU159
  93:Core/Src/drive.c **** }
 575              		.loc 1 93 5 is_stmt 0 view .LVU160
 576              	.LBE28:
 577              	.LBE27:
 578              		.loc 1 347 25 discriminator 1 view .LVU161
 579 006a F0EEE77A 		vabs.f32	s15, s15
 580              		.loc 1 347 22 discriminator 1 view .LVU162
 581 006e B3EE097A 		vmov.f32	s14, #2.5e+1
 582 0072 F4EEC77A 		vcmpe.f32	s15, s14
 583 0076 F1EE10FA 		vmrs	APSR_nzcv, FPSCR
 584 007a 11DC     		bgt	.L41
 348:Core/Src/drive.c ****         return 1U;
 349:Core/Src/drive.c **** 
 350:Core/Src/drive.c ****     return 0U;   /* вЉљ Ж▓їВЮ┤ьіИ вфевЉљ вХѕВё▒вдй Рєњ ВДёВДю ВаЋвЕ┤ ВъЦВЋавг╝ */
 585              		.loc 1 350 12 view .LVU163
 586 007c 0020     		movs	r0, #0
 587 007e 7047     		bx	lr
 588              	.LVL38:
 589              	.L44:
 590              	.LBB30:
 591              	.LBB29:
  92:Core/Src/drive.c ****     return a;
 592              		.loc 1 92 10 is_stmt 1 view .LVU164
  92:Core/Src/drive.c ****     return a;
 593              		.loc 1 92 13 is_stmt 0 view .LVU165
 594 0080 9FED0C7A 		vldr.32	s14, .L45+16
 595 0084 F4EEC77A 		vcmpe.f32	s15, s14
 596 0088 F1EE10FA 		vmrs	APSR_nzcv, FPSCR
 597 008c EDD8     		bhi	.L37
  92:Core/Src/drive.c ****     return a;
 598              		.loc 1 92 28 is_stmt 1 discriminator 1 view .LVU166
  92:Core/Src/drive.c ****     return a;
 599              		.loc 1 92 30 is_stmt 0 discriminator 1 view .LVU167
 600 008e 9FED087A 		vldr.32	s14, .L45+12
 601 0092 77EE877A 		vadd.f32	s15, s15, s14
 602              	.LVL39:
  92:Core/Src/drive.c ****     return a;
 603              		.loc 1 92 30 discriminator 1 view .LVU168
ARM GAS  C:\Users\user\AppData\Local\Temp\cc6kGr5c.s 			page 18


 604 0096 E8E7     		b	.L37
 605              	.LVL40:
 606              	.L39:
  92:Core/Src/drive.c ****     return a;
 607              		.loc 1 92 30 discriminator 1 view .LVU169
 608              	.LBE29:
 609              	.LBE30:
 340:Core/Src/drive.c **** 
 610              		.loc 1 340 16 view .LVU170
 611 0098 0020     		movs	r0, #0
 612              	.LVL41:
 340:Core/Src/drive.c **** 
 613              		.loc 1 340 16 view .LVU171
 614 009a 7047     		bx	lr
 615              	.LVL42:
 616              	.L40:
 344:Core/Src/drive.c **** 
 617              		.loc 1 344 16 view .LVU172
 618 009c 0120     		movs	r0, #1
 619              	.LVL43:
 344:Core/Src/drive.c **** 
 620              		.loc 1 344 16 view .LVU173
 621 009e 7047     		bx	lr
 622              	.LVL44:
 623              	.L41:
 348:Core/Src/drive.c **** 
 624              		.loc 1 348 16 view .LVU174
 625 00a0 0120     		movs	r0, #1
 626              	.L34:
 351:Core/Src/drive.c **** }
 627              		.loc 1 351 1 view .LVU175
 628 00a2 7047     		bx	lr
 629              	.L46:
 630              		.align	2
 631              	.L45:
 632 00a4 B81E853E 		.word	1048911544
 633 00a8 00000000 		.word	h_ref
 634 00ac 00003443 		.word	1127481344
 635 00b0 0000B443 		.word	1135869952
 636 00b4 000034C3 		.word	-1020002304
 637              		.cfi_endproc
 638              	.LFE147:
 640              		.section	.text.corner_enter,"ax",%progbits
 641              		.align	1
 642              		.syntax unified
 643              		.thumb
 644              		.thumb_func
 646              	corner_enter:
 647              	.LVL45:
 648              	.LFB148:
 352:Core/Src/drive.c **** 
 353:Core/Src/drive.c **** /* [req2] ВЋёьЂг Вйћвёѕ ВДёВъЁ: ВаЋВДђ ВЌєВЮ┤ ьіИВЮИ ВфйВю╝вАю в░ЕьќЦ въўВ╣ў + ВДёВъЁ heading ЖИ░вА
 354:Core/Src/drive.c **** static void corner_enter(const DriveInputs *in)
 355:Core/Src/drive.c **** {
 649              		.loc 1 355 1 is_stmt 1 view -0
 650              		.cfi_startproc
 651              		@ args = 0, pretend = 0, frame = 0
ARM GAS  C:\Users\user\AppData\Local\Temp\cc6kGr5c.s 			page 19


 652              		@ frame_needed = 0, uses_anonymous_args = 0
 653              		.loc 1 355 1 is_stmt 0 view .LVU177
 654 0000 08B5     		push	{r3, lr}
 655              	.LCFI3:
 656              		.cfi_def_cfa_offset 8
 657              		.cfi_offset 3, -8
 658              		.cfi_offset 14, -4
 356:Core/Src/drive.c ****     if      (in->l > in->r + SIDE_HYST) turn_dir = 0;   /* ВбїВИАВЮ┤ вЇћ ьіИВъё Рєњ ВбїВЋёьЂг */
 659              		.loc 1 356 5 is_stmt 1 view .LVU178
 660              		.loc 1 356 16 is_stmt 0 view .LVU179
 661 0002 4388     		ldrh	r3, [r0, #2]
 662              		.loc 1 356 24 view .LVU180
 663 0004 8288     		ldrh	r2, [r0, #4]
 664              		.loc 1 356 28 view .LVU181
 665 0006 511D     		adds	r1, r2, #5
 666              		.loc 1 356 13 view .LVU182
 667 0008 8B42     		cmp	r3, r1
 668 000a 10DD     		ble	.L48
 669              		.loc 1 356 41 is_stmt 1 discriminator 1 view .LVU183
 670              		.loc 1 356 50 is_stmt 0 discriminator 1 view .LVU184
 671 000c 0B4B     		ldr	r3, .L51
 672 000e 0022     		movs	r2, #0
 673 0010 1A70     		strb	r2, [r3]
 674              	.L49:
 357:Core/Src/drive.c ****     else if (in->r > in->l + SIDE_HYST) turn_dir = 1;   /* Вџ░ВИАВЮ┤ вЇћ ьіИВъё Рєњ Вџ░ВЋёьЂг */
 358:Core/Src/drive.c ****     /* вЈЎвЦа(ВќЉВфй ьіИВъё)ВЮ┤вЕ┤ ВДЂВаё turn_dir ВюаВДђ */
 359:Core/Src/drive.c ****     clear_cnt = 0;
 675              		.loc 1 359 5 is_stmt 1 view .LVU185
 676              		.loc 1 359 15 is_stmt 0 view .LVU186
 677 0012 0B4B     		ldr	r3, .L51+4
 678 0014 0022     		movs	r2, #0
 679 0016 1A70     		strb	r2, [r3]
 360:Core/Src/drive.c ****     h_entry   = in->heading;
 680              		.loc 1 360 5 is_stmt 1 view .LVU187
 681              		.loc 1 360 19 is_stmt 0 view .LVU188
 682 0018 C268     		ldr	r2, [r0, #12]	@ float
 683              		.loc 1 360 15 view .LVU189
 684 001a 0A4B     		ldr	r3, .L51+8
 685 001c 1A60     		str	r2, [r3]	@ float
 361:Core/Src/drive.c ****     h_entry_valid = in->imu_live;
 686              		.loc 1 361 5 is_stmt 1 view .LVU190
 687              		.loc 1 361 23 is_stmt 0 view .LVU191
 688 001e 027C     		ldrb	r2, [r0, #16]	@ zero_extendqisi2
 689              		.loc 1 361 19 view .LVU192
 690 0020 094B     		ldr	r3, .L51+12
 691 0022 1A70     		strb	r2, [r3]
 362:Core/Src/drive.c ****     enter(DS_CORNER, in->now);
 692              		.loc 1 362 5 is_stmt 1 view .LVU193
 693 0024 4169     		ldr	r1, [r0, #20]
 694 0026 0620     		movs	r0, #6
 695              	.LVL46:
 696              		.loc 1 362 5 is_stmt 0 view .LVU194
 697 0028 FFF7FEFF 		bl	enter
 698              	.LVL47:
 363:Core/Src/drive.c **** }
 699              		.loc 1 363 1 view .LVU195
 700 002c 08BD     		pop	{r3, pc}
ARM GAS  C:\Users\user\AppData\Local\Temp\cc6kGr5c.s 			page 20


 701              	.LVL48:
 702              	.L48:
 357:Core/Src/drive.c ****     /* вЈЎвЦа(ВќЉВфй ьіИВъё)ВЮ┤вЕ┤ ВДЂВаё turn_dir ВюаВДђ */
 703              		.loc 1 357 10 is_stmt 1 view .LVU196
 357:Core/Src/drive.c ****     /* вЈЎвЦа(ВќЉВфй ьіИВъё)ВЮ┤вЕ┤ ВДЂВаё turn_dir ВюаВДђ */
 704              		.loc 1 357 28 is_stmt 0 view .LVU197
 705 002e 0533     		adds	r3, r3, #5
 357:Core/Src/drive.c ****     /* вЈЎвЦа(ВќЉВфй ьіИВъё)ВЮ┤вЕ┤ ВДЂВаё turn_dir ВюаВДђ */
 706              		.loc 1 357 13 view .LVU198
 707 0030 9A42     		cmp	r2, r3
 708 0032 EEDD     		ble	.L49
 357:Core/Src/drive.c ****     /* вЈЎвЦа(ВќЉВфй ьіИВъё)ВЮ┤вЕ┤ ВДЂВаё turn_dir ВюаВДђ */
 709              		.loc 1 357 41 is_stmt 1 discriminator 1 view .LVU199
 357:Core/Src/drive.c ****     /* вЈЎвЦа(ВќЉВфй ьіИВъё)ВЮ┤вЕ┤ ВДЂВаё turn_dir ВюаВДђ */
 710              		.loc 1 357 50 is_stmt 0 discriminator 1 view .LVU200
 711 0034 014B     		ldr	r3, .L51
 712 0036 0122     		movs	r2, #1
 713 0038 1A70     		strb	r2, [r3]
 714 003a EAE7     		b	.L49
 715              	.L52:
 716              		.align	2
 717              	.L51:
 718 003c 00000000 		.word	turn_dir
 719 0040 00000000 		.word	clear_cnt
 720 0044 00000000 		.word	h_entry
 721 0048 00000000 		.word	h_entry_valid
 722              		.cfi_endproc
 723              	.LFE148:
 725              		.section	.text.hold_enter,"ax",%progbits
 726              		.align	1
 727              		.syntax unified
 728              		.thumb
 729              		.thumb_func
 731              	hold_enter:
 732              	.LVL49:
 733              	.LFB145:
 306:Core/Src/drive.c ****     Car_Stop();   /* ВаЋВДђ ВЃЂьЃю ВюаВДђВЌћ ВйћВіцьіИвАю ВХЕвХё */
 734              		.loc 1 306 1 is_stmt 1 view -0
 735              		.cfi_startproc
 736              		@ args = 0, pretend = 0, frame = 0
 737              		@ frame_needed = 0, uses_anonymous_args = 0
 306:Core/Src/drive.c ****     Car_Stop();   /* ВаЋВДђ ВЃЂьЃю ВюаВДђВЌћ ВйћВіцьіИвАю ВХЕвХё */
 738              		.loc 1 306 1 is_stmt 0 view .LVU202
 739 0000 10B5     		push	{r4, lr}
 740              	.LCFI4:
 741              		.cfi_def_cfa_offset 8
 742              		.cfi_offset 4, -8
 743              		.cfi_offset 14, -4
 744 0002 0446     		mov	r4, r0
 307:Core/Src/drive.c ****     enter(DS_HOLD, in->now);
 745              		.loc 1 307 5 is_stmt 1 view .LVU203
 746 0004 FFF7FEFF 		bl	Car_Stop
 747              	.LVL50:
 308:Core/Src/drive.c **** }
 748              		.loc 1 308 5 view .LVU204
 749 0008 6169     		ldr	r1, [r4, #20]
 750 000a 0420     		movs	r0, #4
ARM GAS  C:\Users\user\AppData\Local\Temp\cc6kGr5c.s 			page 21


 751 000c FFF7FEFF 		bl	enter
 752              	.LVL51:
 309:Core/Src/drive.c **** 
 753              		.loc 1 309 1 is_stmt 0 view .LVU205
 754 0010 10BD     		pop	{r4, pc}
 309:Core/Src/drive.c **** 
 755              		.loc 1 309 1 view .LVU206
 756              		.cfi_endproc
 757              	.LFE145:
 759              		.section	.text.Drive_CenteringPD_Run,"ax",%progbits
 760              		.align	1
 761              		.syntax unified
 762              		.thumb
 763              		.thumb_func
 765              	Drive_CenteringPD_Run:
 766              	.LVL52:
 767              	.LFB139:
 134:Core/Src/drive.c ****     if (ctx_center.fresh)
 768              		.loc 1 134 1 is_stmt 1 view -0
 769              		.cfi_startproc
 770              		@ args = 0, pretend = 0, frame = 8
 771              		@ frame_needed = 0, uses_anonymous_args = 0
 134:Core/Src/drive.c ****     if (ctx_center.fresh)
 772              		.loc 1 134 1 is_stmt 0 view .LVU208
 773 0000 F0B5     		push	{r4, r5, r6, r7, lr}
 774              	.LCFI5:
 775              		.cfi_def_cfa_offset 20
 776              		.cfi_offset 4, -20
 777              		.cfi_offset 5, -16
 778              		.cfi_offset 6, -12
 779              		.cfi_offset 7, -8
 780              		.cfi_offset 14, -4
 781 0002 2DED068B 		vpush.64	{d8, d9, d10}
 782              	.LCFI6:
 783              		.cfi_def_cfa_offset 44
 784              		.cfi_offset 80, -44
 785              		.cfi_offset 81, -40
 786              		.cfi_offset 82, -36
 787              		.cfi_offset 83, -32
 788              		.cfi_offset 84, -28
 789              		.cfi_offset 85, -24
 790 0006 83B0     		sub	sp, sp, #12
 791              	.LCFI7:
 792              		.cfi_def_cfa_offset 56
 793 0008 0446     		mov	r4, r0
 135:Core/Src/drive.c ****     {
 794              		.loc 1 135 5 is_stmt 1 view .LVU209
 135:Core/Src/drive.c ****     {
 795              		.loc 1 135 19 is_stmt 0 view .LVU210
 796 000a C04B     		ldr	r3, .L101
 797 000c 9B7B     		ldrb	r3, [r3, #14]	@ zero_extendqisi2
 135:Core/Src/drive.c ****     {
 798              		.loc 1 135 8 view .LVU211
 799 000e 63B1     		cbz	r3, .L56
 138:Core/Src/drive.c ****         {
 800              		.loc 1 138 9 is_stmt 1 view .LVU212
 138:Core/Src/drive.c ****         {
ARM GAS  C:\Users\user\AppData\Local\Temp\cc6kGr5c.s 			page 22


 801              		.loc 1 138 15 is_stmt 0 view .LVU213
 802 0010 037C     		ldrb	r3, [r0, #16]	@ zero_extendqisi2
 138:Core/Src/drive.c ****         {
 803              		.loc 1 138 12 view .LVU214
 804 0012 3BB1     		cbz	r3, .L57
 140:Core/Src/drive.c ****             h_prev = in->heading;
 805              		.loc 1 140 13 is_stmt 1 view .LVU215
 140:Core/Src/drive.c ****             h_prev = in->heading;
 806              		.loc 1 140 24 is_stmt 0 view .LVU216
 807 0014 C368     		ldr	r3, [r0, #12]	@ float
 140:Core/Src/drive.c ****             h_prev = in->heading;
 808              		.loc 1 140 20 view .LVU217
 809 0016 BE4A     		ldr	r2, .L101+4
 810 0018 1360     		str	r3, [r2]	@ float
 141:Core/Src/drive.c ****             ctx_center.imu_prev_live = 1U;
 811              		.loc 1 141 13 is_stmt 1 view .LVU218
 141:Core/Src/drive.c ****             ctx_center.imu_prev_live = 1U;
 812              		.loc 1 141 20 is_stmt 0 view .LVU219
 813 001a BE4A     		ldr	r2, .L101+8
 814 001c 1360     		str	r3, [r2]	@ float
 142:Core/Src/drive.c ****         }
 815              		.loc 1 142 13 is_stmt 1 view .LVU220
 142:Core/Src/drive.c ****         }
 816              		.loc 1 142 38 is_stmt 0 view .LVU221
 817 001e BB4B     		ldr	r3, .L101
 818 0020 0122     		movs	r2, #1
 819 0022 DA73     		strb	r2, [r3, #15]
 820              	.L57:
 144:Core/Src/drive.c ****     }
 821              		.loc 1 144 9 is_stmt 1 view .LVU222
 144:Core/Src/drive.c ****     }
 822              		.loc 1 144 26 is_stmt 0 view .LVU223
 823 0024 B94B     		ldr	r3, .L101
 824 0026 0022     		movs	r2, #0
 825 0028 9A73     		strb	r2, [r3, #14]
 826              	.L56:
 147:Core/Src/drive.c ****     {
 827              		.loc 1 147 5 is_stmt 1 view .LVU224
 147:Core/Src/drive.c ****     {
 828              		.loc 1 147 11 is_stmt 0 view .LVU225
 829 002a 277C     		ldrb	r7, [r4, #16]	@ zero_extendqisi2
 147:Core/Src/drive.c ****     {
 830              		.loc 1 147 8 view .LVU226
 831 002c 3FB1     		cbz	r7, .L58
 147:Core/Src/drive.c ****     {
 832              		.loc 1 147 36 discriminator 1 view .LVU227
 833 002e B74B     		ldr	r3, .L101
 834 0030 DB7B     		ldrb	r3, [r3, #15]	@ zero_extendqisi2
 147:Core/Src/drive.c ****     {
 835              		.loc 1 147 22 discriminator 1 view .LVU228
 836 0032 23B9     		cbnz	r3, .L58
 151:Core/Src/drive.c ****         h_prev = in->heading;
 837              		.loc 1 151 9 is_stmt 1 view .LVU229
 151:Core/Src/drive.c ****         h_prev = in->heading;
 838              		.loc 1 151 20 is_stmt 0 view .LVU230
 839 0034 E368     		ldr	r3, [r4, #12]	@ float
 151:Core/Src/drive.c ****         h_prev = in->heading;
ARM GAS  C:\Users\user\AppData\Local\Temp\cc6kGr5c.s 			page 23


 840              		.loc 1 151 16 view .LVU231
 841 0036 B64A     		ldr	r2, .L101+4
 842 0038 1360     		str	r3, [r2]	@ float
 152:Core/Src/drive.c ****     }
 843              		.loc 1 152 9 is_stmt 1 view .LVU232
 152:Core/Src/drive.c ****     }
 844              		.loc 1 152 16 is_stmt 0 view .LVU233
 845 003a B64A     		ldr	r2, .L101+8
 846 003c 1360     		str	r3, [r2]	@ float
 847              	.L58:
 155:Core/Src/drive.c ****     ctx_center.r_buf[ctx_center.idx] = center_sanitize_cm(in->r);
 848              		.loc 1 155 5 is_stmt 1 view .LVU234
 155:Core/Src/drive.c ****     ctx_center.r_buf[ctx_center.idx] = center_sanitize_cm(in->r);
 849              		.loc 1 155 32 is_stmt 0 view .LVU235
 850 003e B34E     		ldr	r6, .L101
 851 0040 357B     		ldrb	r5, [r6, #12]	@ zero_extendqisi2
 155:Core/Src/drive.c ****     ctx_center.r_buf[ctx_center.idx] = center_sanitize_cm(in->r);
 852              		.loc 1 155 40 view .LVU236
 853 0042 6088     		ldrh	r0, [r4, #2]
 854              	.LVL53:
 155:Core/Src/drive.c ****     ctx_center.r_buf[ctx_center.idx] = center_sanitize_cm(in->r);
 855              		.loc 1 155 40 view .LVU237
 856 0044 FFF7FEFF 		bl	center_sanitize_cm
 857              	.LVL54:
 155:Core/Src/drive.c ****     ctx_center.r_buf[ctx_center.idx] = center_sanitize_cm(in->r);
 858              		.loc 1 155 38 discriminator 1 view .LVU238
 859 0048 26F81500 		strh	r0, [r6, r5, lsl #1]	@ movhi
 156:Core/Src/drive.c **** 
 860              		.loc 1 156 5 is_stmt 1 view .LVU239
 156:Core/Src/drive.c **** 
 861              		.loc 1 156 40 is_stmt 0 view .LVU240
 862 004c A088     		ldrh	r0, [r4, #4]
 863 004e FFF7FEFF 		bl	center_sanitize_cm
 864              	.LVL55:
 156:Core/Src/drive.c **** 
 865              		.loc 1 156 38 discriminator 1 view .LVU241
 866 0052 06EB4503 		add	r3, r6, r5, lsl #1
 867 0056 D880     		strh	r0, [r3, #6]	@ movhi
 158:Core/Src/drive.c ****     if (ctx_center.count < CENTER_MA_WIN)
 868              		.loc 1 158 5 is_stmt 1 view .LVU242
 158:Core/Src/drive.c ****     if (ctx_center.count < CENTER_MA_WIN)
 869              		.loc 1 158 48 is_stmt 0 view .LVU243
 870 0058 0135     		adds	r5, r5, #1
 158:Core/Src/drive.c ****     if (ctx_center.count < CENTER_MA_WIN)
 871              		.loc 1 158 54 view .LVU244
 872 005a AF4B     		ldr	r3, .L101+12
 873 005c A3FB0523 		umull	r2, r3, r3, r5
 874 0060 03F4FF72 		and	r2, r3, #510
 875 0064 02EB5303 		add	r3, r2, r3, lsr #1
 876 0068 ED1A     		subs	r5, r5, r3
 158:Core/Src/drive.c ****     if (ctx_center.count < CENTER_MA_WIN)
 877              		.loc 1 158 20 view .LVU245
 878 006a 3573     		strb	r5, [r6, #12]
 159:Core/Src/drive.c ****         ctx_center.count++;
 879              		.loc 1 159 5 is_stmt 1 view .LVU246
 159:Core/Src/drive.c ****         ctx_center.count++;
 880              		.loc 1 159 19 is_stmt 0 view .LVU247
ARM GAS  C:\Users\user\AppData\Local\Temp\cc6kGr5c.s 			page 24


 881 006c 737B     		ldrb	r3, [r6, #13]	@ zero_extendqisi2
 159:Core/Src/drive.c ****         ctx_center.count++;
 882              		.loc 1 159 8 view .LVU248
 883 006e 022B     		cmp	r3, #2
 884 0070 01D8     		bhi	.L59
 160:Core/Src/drive.c **** 
 885              		.loc 1 160 9 is_stmt 1 view .LVU249
 160:Core/Src/drive.c **** 
 886              		.loc 1 160 25 is_stmt 0 view .LVU250
 887 0072 0133     		adds	r3, r3, #1
 888 0074 7373     		strb	r3, [r6, #13]
 889              	.L59:
 162:Core/Src/drive.c ****     float right_cm = center_avg_u16(ctx_center.r_buf, ctx_center.count);
 890              		.loc 1 162 5 is_stmt 1 view .LVU251
 162:Core/Src/drive.c ****     float right_cm = center_avg_u16(ctx_center.r_buf, ctx_center.count);
 891              		.loc 1 162 22 is_stmt 0 view .LVU252
 892 0076 A54D     		ldr	r5, .L101
 893 0078 6E7B     		ldrb	r6, [r5, #13]	@ zero_extendqisi2
 894 007a 3146     		mov	r1, r6
 895 007c 2846     		mov	r0, r5
 896 007e FFF7FEFF 		bl	center_avg_u16
 897              	.LVL56:
 898 0082 F0EE408A 		vmov.f32	s17, s0
 899              	.LVL57:
 163:Core/Src/drive.c ****     float error = left_cm - right_cm;
 900              		.loc 1 163 5 is_stmt 1 view .LVU253
 163:Core/Src/drive.c ****     float error = left_cm - right_cm;
 901              		.loc 1 163 22 is_stmt 0 view .LVU254
 902 0086 3146     		mov	r1, r6
 903 0088 A81D     		adds	r0, r5, #6
 904 008a FFF7FEFF 		bl	center_avg_u16
 905              	.LVL58:
 163:Core/Src/drive.c ****     float error = left_cm - right_cm;
 906              		.loc 1 163 22 view .LVU255
 907 008e B0EE409A 		vmov.f32	s18, s0
 908              	.LVL59:
 164:Core/Src/drive.c **** 
 909              		.loc 1 164 5 is_stmt 1 view .LVU256
 164:Core/Src/drive.c **** 
 910              		.loc 1 164 11 is_stmt 0 view .LVU257
 911 0092 38EEC08A 		vsub.f32	s16, s17, s0
 912              	.LVL60:
 167:Core/Src/drive.c **** 
 913              		.loc 1 167 5 is_stmt 1 view .LVU258
 170:Core/Src/drive.c ****     if (ctx_center.prev_ms != 0U && in->now > ctx_center.prev_ms)
 914              		.loc 1 170 5 view .LVU259
 171:Core/Src/drive.c ****         dt = clampf((float)(in->now - ctx_center.prev_ms) / 1000.0f, 0.005f, 0.100f);
 915              		.loc 1 171 5 view .LVU260
 171:Core/Src/drive.c ****         dt = clampf((float)(in->now - ctx_center.prev_ms) / 1000.0f, 0.005f, 0.100f);
 916              		.loc 1 171 19 is_stmt 0 view .LVU261
 917 0096 6D69     		ldr	r5, [r5, #20]
 171:Core/Src/drive.c ****         dt = clampf((float)(in->now - ctx_center.prev_ms) / 1000.0f, 0.005f, 0.100f);
 918              		.loc 1 171 8 view .LVU262
 919 0098 95B1     		cbz	r5, .L81
 171:Core/Src/drive.c ****         dt = clampf((float)(in->now - ctx_center.prev_ms) / 1000.0f, 0.005f, 0.100f);
 920              		.loc 1 171 39 discriminator 1 view .LVU263
 921 009a 6369     		ldr	r3, [r4, #20]
ARM GAS  C:\Users\user\AppData\Local\Temp\cc6kGr5c.s 			page 25


 171:Core/Src/drive.c ****         dt = clampf((float)(in->now - ctx_center.prev_ms) / 1000.0f, 0.005f, 0.100f);
 922              		.loc 1 171 34 discriminator 1 view .LVU264
 923 009c 9D42     		cmp	r5, r3
 924 009e 35D2     		bcs	.L82
 172:Core/Src/drive.c **** 
 925              		.loc 1 172 9 is_stmt 1 view .LVU265
 172:Core/Src/drive.c **** 
 926              		.loc 1 172 37 is_stmt 0 view .LVU266
 927 00a0 5B1B     		subs	r3, r3, r5
 928 00a2 00EE103A 		vmov	s0, r3	@ int
 929              	.LVL61:
 172:Core/Src/drive.c **** 
 930              		.loc 1 172 21 view .LVU267
 931 00a6 B8EE400A 		vcvt.f32.u32	s0, s0
 172:Core/Src/drive.c **** 
 932              		.loc 1 172 14 view .LVU268
 933 00aa 9FED9C1A 		vldr.32	s2, .L101+16
 934 00ae DFED9C0A 		vldr.32	s1, .L101+20
 935 00b2 DFED9C7A 		vldr.32	s15, .L101+24
 936 00b6 80EE270A 		vdiv.f32	s0, s0, s15
 937 00ba FFF7FEFF 		bl	clampf
 938              	.LVL62:
 172:Core/Src/drive.c **** 
 939              		.loc 1 172 14 view .LVU269
 940 00be 01E0     		b	.L60
 941              	.LVL63:
 942              	.L81:
 170:Core/Src/drive.c ****     if (ctx_center.prev_ms != 0U && in->now > ctx_center.prev_ms)
 943              		.loc 1 170 11 view .LVU270
 944 00c0 9FED990A 		vldr.32	s0, .L101+28
 945              	.LVL64:
 946              	.L60:
 174:Core/Src/drive.c **** 
 947              		.loc 1 174 5 is_stmt 1 view .LVU271
 174:Core/Src/drive.c **** 
 948              		.loc 1 174 55 is_stmt 0 view .LVU272
 949 00c4 2DB3     		cbz	r5, .L83
 174:Core/Src/drive.c **** 
 950              		.loc 1 174 76 discriminator 1 view .LVU273
 951 00c6 914B     		ldr	r3, .L101
 952 00c8 D3ED047A 		vldr.32	s15, [r3, #16]
 174:Core/Src/drive.c **** 
 953              		.loc 1 174 64 discriminator 1 view .LVU274
 954 00cc 78EE677A 		vsub.f32	s15, s16, s15
 174:Core/Src/drive.c **** 
 955              		.loc 1 174 55 discriminator 1 view .LVU275
 956 00d0 87EE807A 		vdiv.f32	s14, s15, s0
 957              	.L61:
 958              	.LVL65:
 177:Core/Src/drive.c ****                    ? wrap180(in->heading - h_prev) / dt
 959              		.loc 1 177 5 is_stmt 1 view .LVU276
 179:Core/Src/drive.c **** 
 960              		.loc 1 179 20 is_stmt 0 view .LVU277
 961 00d4 67B3     		cbz	r7, .L84
 177:Core/Src/drive.c ****                    ? wrap180(in->heading - h_prev) / dt
 962              		.loc 1 177 49 view .LVU278
 963 00d6 8D4B     		ldr	r3, .L101
ARM GAS  C:\Users\user\AppData\Local\Temp\cc6kGr5c.s 			page 26


 964 00d8 DB7B     		ldrb	r3, [r3, #15]	@ zero_extendqisi2
 177:Core/Src/drive.c ****                    ? wrap180(in->heading - h_prev) / dt
 965              		.loc 1 177 36 view .LVU279
 966 00da 002B     		cmp	r3, #0
 967 00dc 58D0     		beq	.L85
 177:Core/Src/drive.c ****                    ? wrap180(in->heading - h_prev) / dt
 968              		.loc 1 177 64 discriminator 1 view .LVU280
 969 00de 002D     		cmp	r5, #0
 970 00e0 59D0     		beq	.L86
 178:Core/Src/drive.c ****                    : 0.0f;
 971              		.loc 1 178 32 view .LVU281
 972 00e2 D4ED037A 		vldr.32	s15, [r4, #12]
 178:Core/Src/drive.c ****                    : 0.0f;
 973              		.loc 1 178 22 view .LVU282
 974 00e6 8B4B     		ldr	r3, .L101+8
 975 00e8 D3ED006A 		vldr.32	s13, [r3]
 976 00ec 77EEE67A 		vsub.f32	s15, s15, s13
 977              	.LVL66:
 978              	.LBB31:
 979              	.LBI31:
  89:Core/Src/drive.c **** {
 980              		.loc 1 89 21 is_stmt 1 view .LVU283
 981              	.LBB32:
  91:Core/Src/drive.c ****     else if (a <= -180.0f) a += 360.0f;
 982              		.loc 1 91 5 view .LVU284
  91:Core/Src/drive.c ****     else if (a <= -180.0f) a += 360.0f;
 983              		.loc 1 91 13 is_stmt 0 view .LVU285
 984 00f0 DFED8E6A 		vldr.32	s13, .L101+32
 985 00f4 F4EEE67A 		vcmpe.f32	s15, s13
 986 00f8 F1EE10FA 		vmrs	APSR_nzcv, FPSCR
 987 00fc 0CDD     		ble	.L97
  91:Core/Src/drive.c ****     else if (a <= -180.0f) a += 360.0f;
 988              		.loc 1 91 28 is_stmt 1 discriminator 1 view .LVU286
  91:Core/Src/drive.c ****     else if (a <= -180.0f) a += 360.0f;
 989              		.loc 1 91 30 is_stmt 0 discriminator 1 view .LVU287
 990 00fe DFED966A 		vldr.32	s13, .L101+76
 991 0102 77EEE67A 		vsub.f32	s15, s15, s13
 992              	.LVL67:
 993              	.L65:
  93:Core/Src/drive.c **** }
 994              		.loc 1 93 5 is_stmt 1 view .LVU288
  93:Core/Src/drive.c **** }
 995              		.loc 1 93 5 is_stmt 0 view .LVU289
 996              	.LBE32:
 997              	.LBE31:
 179:Core/Src/drive.c **** 
 998              		.loc 1 179 20 view .LVU290
 999 0106 C7EE809A 		vdiv.f32	s19, s15, s0
 1000 010a 13E0     		b	.L62
 1001              	.LVL68:
 1002              	.L82:
 170:Core/Src/drive.c ****     if (ctx_center.prev_ms != 0U && in->now > ctx_center.prev_ms)
 1003              		.loc 1 170 11 view .LVU291
 1004 010c 9FED860A 		vldr.32	s0, .L101+28
 1005              	.LVL69:
 170:Core/Src/drive.c ****     if (ctx_center.prev_ms != 0U && in->now > ctx_center.prev_ms)
 1006              		.loc 1 170 11 view .LVU292
ARM GAS  C:\Users\user\AppData\Local\Temp\cc6kGr5c.s 			page 27


 1007 0110 D8E7     		b	.L60
 1008              	.LVL70:
 1009              	.L83:
 174:Core/Src/drive.c **** 
 1010              		.loc 1 174 55 discriminator 2 view .LVU293
 1011 0112 9FED877A 		vldr.32	s14, .L101+36
 1012 0116 DDE7     		b	.L61
 1013              	.LVL71:
 1014              	.L97:
 1015              	.LBB34:
 1016              	.LBB33:
  92:Core/Src/drive.c ****     return a;
 1017              		.loc 1 92 10 is_stmt 1 view .LVU294
  92:Core/Src/drive.c ****     return a;
 1018              		.loc 1 92 13 is_stmt 0 view .LVU295
 1019 0118 DFED8E6A 		vldr.32	s13, .L101+72
 1020 011c F4EEE67A 		vcmpe.f32	s15, s13
 1021 0120 F1EE10FA 		vmrs	APSR_nzcv, FPSCR
 1022 0124 EFD8     		bhi	.L65
  92:Core/Src/drive.c ****     return a;
 1023              		.loc 1 92 28 is_stmt 1 discriminator 1 view .LVU296
  92:Core/Src/drive.c ****     return a;
 1024              		.loc 1 92 30 is_stmt 0 discriminator 1 view .LVU297
 1025 0126 DFED8C6A 		vldr.32	s13, .L101+76
 1026 012a 77EEA67A 		vadd.f32	s15, s15, s13
 1027              	.LVL72:
  92:Core/Src/drive.c ****     return a;
 1028              		.loc 1 92 30 discriminator 1 view .LVU298
 1029 012e EAE7     		b	.L65
 1030              	.LVL73:
 1031              	.L84:
  92:Core/Src/drive.c ****     return a;
 1032              		.loc 1 92 30 discriminator 1 view .LVU299
 1033              	.LBE33:
 1034              	.LBE34:
 179:Core/Src/drive.c **** 
 1035              		.loc 1 179 20 discriminator 1 view .LVU300
 1036 0130 DFED7F9A 		vldr.32	s19, .L101+36
 1037              	.L62:
 1038              	.LVL74:
 182:Core/Src/drive.c ****     ctx_center.prev_ms    = in->now;
 1039              		.loc 1 182 5 is_stmt 1 view .LVU301
 182:Core/Src/drive.c ****     ctx_center.prev_ms    = in->now;
 1040              		.loc 1 182 27 is_stmt 0 view .LVU302
 1041 0134 754B     		ldr	r3, .L101
 1042 0136 83ED048A 		vstr.32	s16, [r3, #16]
 183:Core/Src/drive.c ****     if (in->imu_live) h_prev = in->heading;
 1043              		.loc 1 183 5 is_stmt 1 view .LVU303
 183:Core/Src/drive.c ****     if (in->imu_live) h_prev = in->heading;
 1044              		.loc 1 183 31 is_stmt 0 view .LVU304
 1045 013a 6269     		ldr	r2, [r4, #20]
 183:Core/Src/drive.c ****     if (in->imu_live) h_prev = in->heading;
 1046              		.loc 1 183 27 view .LVU305
 1047 013c 5A61     		str	r2, [r3, #20]
 184:Core/Src/drive.c ****     ctx_center.imu_prev_live = in->imu_live;
 1048              		.loc 1 184 5 is_stmt 1 view .LVU306
 184:Core/Src/drive.c ****     ctx_center.imu_prev_live = in->imu_live;
ARM GAS  C:\Users\user\AppData\Local\Temp\cc6kGr5c.s 			page 28


 1049              		.loc 1 184 11 is_stmt 0 view .LVU307
 1050 013e 237C     		ldrb	r3, [r4, #16]	@ zero_extendqisi2
 184:Core/Src/drive.c ****     ctx_center.imu_prev_live = in->imu_live;
 1051              		.loc 1 184 8 view .LVU308
 1052 0140 13B1     		cbz	r3, .L67
 184:Core/Src/drive.c ****     ctx_center.imu_prev_live = in->imu_live;
 1053              		.loc 1 184 23 is_stmt 1 discriminator 1 view .LVU309
 184:Core/Src/drive.c ****     ctx_center.imu_prev_live = in->imu_live;
 1054              		.loc 1 184 34 is_stmt 0 discriminator 1 view .LVU310
 1055 0142 E168     		ldr	r1, [r4, #12]	@ float
 184:Core/Src/drive.c ****     ctx_center.imu_prev_live = in->imu_live;
 1056              		.loc 1 184 30 discriminator 1 view .LVU311
 1057 0144 734A     		ldr	r2, .L101+8
 1058 0146 1160     		str	r1, [r2]	@ float
 1059              	.L67:
 185:Core/Src/drive.c **** 
 1060              		.loc 1 185 5 is_stmt 1 view .LVU312
 185:Core/Src/drive.c **** 
 1061              		.loc 1 185 30 is_stmt 0 view .LVU313
 1062 0148 704A     		ldr	r2, .L101
 1063 014a D373     		strb	r3, [r2, #15]
 189:Core/Src/drive.c ****     uint8_t right_seen = (right_cm < (float)CENTER_SENSOR_MAX_CM);
 1064              		.loc 1 189 5 is_stmt 1 view .LVU314
 1065              	.LVL75:
 190:Core/Src/drive.c **** 
 1066              		.loc 1 190 5 view .LVU315
 192:Core/Src/drive.c ****     uint8_t mode;
 1067              		.loc 1 192 5 view .LVU316
 193:Core/Src/drive.c **** 
 1068              		.loc 1 193 5 view .LVU317
 195:Core/Src/drive.c ****     {
 1069              		.loc 1 195 5 view .LVU318
 195:Core/Src/drive.c ****     {
 1070              		.loc 1 195 8 is_stmt 0 view .LVU319
 1071 014c DFED797A 		vldr.32	s15, .L101+40
 1072 0150 F4EEE78A 		vcmpe.f32	s17, s15
 1073 0154 F1EE10FA 		vmrs	APSR_nzcv, FPSCR
 1074 0158 20D5     		bpl	.L68
 195:Core/Src/drive.c ****     {
 1075              		.loc 1 195 19 discriminator 1 view .LVU320
 1076 015a B4EEE79A 		vcmpe.f32	s18, s15
 1077 015e F1EE10FA 		vmrs	APSR_nzcv, FPSCR
 1078 0162 1BD5     		bpl	.L68
 198:Core/Src/drive.c ****         steer = (fabsf(error) <= CENTER_DEADZONE_CM)
 1079              		.loc 1 198 9 is_stmt 1 view .LVU321
 1080              	.LVL76:
 199:Core/Src/drive.c ****               ? 0.0f
 1081              		.loc 1 199 9 view .LVU322
 199:Core/Src/drive.c ****               ? 0.0f
 1082              		.loc 1 199 18 is_stmt 0 view .LVU323
 1083 0164 F0EEC87A 		vabs.f32	s15, s16
 201:Core/Src/drive.c ****     }
 1084              		.loc 1 201 15 view .LVU324
 1085 0168 F0EE086A 		vmov.f32	s13, #3.0e+0
 1086 016c F4EEE67A 		vcmpe.f32	s15, s13
 1087 0170 F1EE10FA 		vmrs	APSR_nzcv, FPSCR
 1088 0174 40F2C180 		bls	.L87
ARM GAS  C:\Users\user\AppData\Local\Temp\cc6kGr5c.s 			page 29


 201:Core/Src/drive.c ****     }
 1089              		.loc 1 201 28 discriminator 2 view .LVU325
 1090 0178 DFED6F7A 		vldr.32	s15, .L101+44
 1091 017c 28EE270A 		vmul.f32	s0, s16, s15
 1092              	.LVL77:
 201:Core/Src/drive.c ****     }
 1093              		.loc 1 201 50 discriminator 2 view .LVU326
 1094 0180 DFED6B7A 		vldr.32	s15, .L101+36
 1095 0184 27EE277A 		vmul.f32	s14, s14, s15
 1096              	.LVL78:
 201:Core/Src/drive.c ****     }
 1097              		.loc 1 201 15 discriminator 2 view .LVU327
 1098 0188 30EE070A 		vadd.f32	s0, s0, s14
 198:Core/Src/drive.c ****         steer = (fabsf(error) <= CENTER_DEADZONE_CM)
 1099              		.loc 1 198 15 view .LVU328
 1100 018c 0026     		movs	r6, #0
 1101 018e 20E0     		b	.L71
 1102              	.LVL79:
 1103              	.L85:
 179:Core/Src/drive.c **** 
 1104              		.loc 1 179 20 discriminator 1 view .LVU329
 1105 0190 DFED679A 		vldr.32	s19, .L101+36
 1106 0194 CEE7     		b	.L62
 1107              	.L86:
 1108 0196 DFED669A 		vldr.32	s19, .L101+36
 1109 019a CBE7     		b	.L62
 1110              	.LVL80:
 1111              	.L68:
 203:Core/Src/drive.c ****     {
 1112              		.loc 1 203 10 is_stmt 1 view .LVU330
 203:Core/Src/drive.c ****     {
 1113              		.loc 1 203 13 is_stmt 0 view .LVU331
 1114 019c 002B     		cmp	r3, #0
 1115 019e 00F0B080 		beq	.L88
 207:Core/Src/drive.c ****         steer = KP_HDG * wrap180(in->heading - h_ref);
 1116              		.loc 1 207 9 is_stmt 1 view .LVU332
 1117              	.LVL81:
 208:Core/Src/drive.c ****     }
 1118              		.loc 1 208 9 view .LVU333
 208:Core/Src/drive.c ****     }
 1119              		.loc 1 208 36 is_stmt 0 view .LVU334
 1120 01a2 94ED030A 		vldr.32	s0, [r4, #12]
 1121              	.LVL82:
 208:Core/Src/drive.c ****     }
 1122              		.loc 1 208 26 view .LVU335
 1123 01a6 5A4A     		ldr	r2, .L101+4
 1124 01a8 D2ED007A 		vldr.32	s15, [r2]
 1125 01ac 30EE670A 		vsub.f32	s0, s0, s15
 1126              	.LVL83:
 1127              	.LBB35:
 1128              	.LBI35:
  89:Core/Src/drive.c **** {
 1129              		.loc 1 89 21 is_stmt 1 view .LVU336
 1130              	.LBB36:
  91:Core/Src/drive.c ****     else if (a <= -180.0f) a += 360.0f;
 1131              		.loc 1 91 5 view .LVU337
  91:Core/Src/drive.c ****     else if (a <= -180.0f) a += 360.0f;
ARM GAS  C:\Users\user\AppData\Local\Temp\cc6kGr5c.s 			page 30


 1132              		.loc 1 91 13 is_stmt 0 view .LVU338
 1133 01b0 DFED5E7A 		vldr.32	s15, .L101+32
 1134 01b4 B4EEE70A 		vcmpe.f32	s0, s15
 1135 01b8 F1EE10FA 		vmrs	APSR_nzcv, FPSCR
 1136 01bc 40F39080 		ble	.L98
  91:Core/Src/drive.c ****     else if (a <= -180.0f) a += 360.0f;
 1137              		.loc 1 91 28 is_stmt 1 discriminator 1 view .LVU339
  91:Core/Src/drive.c ****     else if (a <= -180.0f) a += 360.0f;
 1138              		.loc 1 91 30 is_stmt 0 discriminator 1 view .LVU340
 1139 01c0 DFED657A 		vldr.32	s15, .L101+76
 1140 01c4 30EE670A 		vsub.f32	s0, s0, s15
 1141              	.LVL84:
 1142              	.L74:
  93:Core/Src/drive.c **** }
 1143              		.loc 1 93 5 is_stmt 1 view .LVU341
  93:Core/Src/drive.c **** }
 1144              		.loc 1 93 5 is_stmt 0 view .LVU342
 1145              	.LBE36:
 1146              	.LBE35:
 208:Core/Src/drive.c ****     }
 1147              		.loc 1 208 15 discriminator 1 view .LVU343
 1148 01c8 DFED5C7A 		vldr.32	s15, .L101+48
 1149 01cc 20EE270A 		vmul.f32	s0, s0, s15
 1150              	.LVL85:
 207:Core/Src/drive.c ****         steer = KP_HDG * wrap180(in->heading - h_ref);
 1151              		.loc 1 207 15 view .LVU344
 1152 01d0 0326     		movs	r6, #3
 1153              	.LVL86:
 1154              	.L71:
 221:Core/Src/drive.c ****         steer += KD_YAW * yaw_rate;
 1155              		.loc 1 221 5 is_stmt 1 view .LVU345
 221:Core/Src/drive.c ****         steer += KD_YAW * yaw_rate;
 1156              		.loc 1 221 8 is_stmt 0 view .LVU346
 1157 01d2 2BB1     		cbz	r3, .L76
 222:Core/Src/drive.c **** 
 1158              		.loc 1 222 9 is_stmt 1 view .LVU347
 222:Core/Src/drive.c **** 
 1159              		.loc 1 222 25 is_stmt 0 view .LVU348
 1160 01d4 DFED5A7A 		vldr.32	s15, .L101+52
 1161 01d8 69EEA77A 		vmul.f32	s15, s19, s15
 222:Core/Src/drive.c **** 
 1162              		.loc 1 222 15 view .LVU349
 1163 01dc 30EE270A 		vadd.f32	s0, s0, s15
 1164              	.LVL87:
 1165              	.L76:
 224:Core/Src/drive.c **** 
 1166              		.loc 1 224 5 is_stmt 1 view .LVU350
 224:Core/Src/drive.c **** 
 1167              		.loc 1 224 13 is_stmt 0 view .LVU351
 1168 01e0 B2EE0A1A 		vmov.f32	s2, #1.3e+1
 1169 01e4 FAEE0A0A 		vmov.f32	s1, #-1.3e+1
 1170 01e8 FFF7FEFF 		bl	clampf
 1171              	.LVL88:
 229:Core/Src/drive.c ****         ctx_center.steer_prev = steer;
 1172              		.loc 1 229 9 is_stmt 1 view .LVU352
 229:Core/Src/drive.c ****         ctx_center.steer_prev = steer;
 1173              		.loc 1 229 41 is_stmt 0 view .LVU353
ARM GAS  C:\Users\user\AppData\Local\Temp\cc6kGr5c.s 			page 31


 1174 01ec 474D     		ldr	r5, .L101
 1175 01ee D5ED060A 		vldr.32	s1, [r5, #24]
 229:Core/Src/drive.c ****         ctx_center.steer_prev = steer;
 1176              		.loc 1 229 17 view .LVU354
 1177 01f2 F1EE007A 		vmov.f32	s15, #4.0e+0
 1178 01f6 30EEA71A 		vadd.f32	s2, s1, s15
 1179 01fa 70EEE70A 		vsub.f32	s1, s1, s15
 1180 01fe FFF7FEFF 		bl	clampf
 1181              	.LVL89:
 229:Core/Src/drive.c ****         ctx_center.steer_prev = steer;
 1182              		.loc 1 229 17 view .LVU355
 1183 0202 B0EE409A 		vmov.f32	s18, s0
 1184              	.LVL90:
 230:Core/Src/drive.c ****     }
 1185              		.loc 1 230 9 is_stmt 1 view .LVU356
 230:Core/Src/drive.c ****     }
 1186              		.loc 1 230 31 is_stmt 0 view .LVU357
 1187 0206 85ED060A 		vstr.32	s0, [r5, #24]
 234:Core/Src/drive.c ****     float base = CENTER_BASE_SPEED_PCT
 1188              		.loc 1 234 5 is_stmt 1 view .LVU358
 234:Core/Src/drive.c ****     float base = CENTER_BASE_SPEED_PCT
 1189              		.loc 1 234 25 is_stmt 0 view .LVU359
 1190 020a B0EEC07A 		vabs.f32	s14, s0
 234:Core/Src/drive.c ****     float base = CENTER_BASE_SPEED_PCT
 1191              		.loc 1 234 11 view .LVU360
 1192 020e F2EE0A7A 		vmov.f32	s15, #1.3e+1
 1193 0212 87EE270A 		vdiv.f32	s0, s14, s15
 1194              	.LVL91:
 235:Core/Src/drive.c ****                - ((CENTER_BASE_SPEED_PCT - CENTER_MIN_SPEED_PCT) * steer_ratio);
 1195              		.loc 1 235 5 is_stmt 1 view .LVU361
 235:Core/Src/drive.c ****                - ((CENTER_BASE_SPEED_PCT - CENTER_MIN_SPEED_PCT) * steer_ratio);
 1196              		.loc 1 235 11 is_stmt 0 view .LVU362
 1197 0216 9FED4B1A 		vldr.32	s2, .L101+56
 1198              	.LVL92:
 237:Core/Src/drive.c **** 
 1199              		.loc 1 237 5 is_stmt 1 view .LVU363
 237:Core/Src/drive.c **** 
 1200              		.loc 1 237 12 is_stmt 0 view .LVU364
 1201 021a DFED4B0A 		vldr.32	s1, .L101+60
 1202 021e 31EE400A 		vsub.f32	s0, s2, s0
 1203              	.LVL93:
 237:Core/Src/drive.c **** 
 1204              		.loc 1 237 12 view .LVU365
 1205 0222 FFF7FEFF 		bl	clampf
 1206              	.LVL94:
 237:Core/Src/drive.c **** 
 1207              		.loc 1 237 12 view .LVU366
 1208 0226 B0EE408A 		vmov.f32	s16, s0
 1209              	.LVL95:
 239:Core/Src/drive.c ****     float rt = clampf(base + steer - (float)MOTOR_TRIM_PCT, 0.0f, 100.0f);
 1210              		.loc 1 239 5 is_stmt 1 view .LVU367
 239:Core/Src/drive.c ****     float rt = clampf(base + steer - (float)MOTOR_TRIM_PCT, 0.0f, 100.0f);
 1211              		.loc 1 239 28 is_stmt 0 view .LVU368
 1212 022a 30EE490A 		vsub.f32	s0, s0, s18
 1213              	.LVL96:
 239:Core/Src/drive.c ****     float rt = clampf(base + steer - (float)MOTOR_TRIM_PCT, 0.0f, 100.0f);
 1214              		.loc 1 239 16 view .LVU369
ARM GAS  C:\Users\user\AppData\Local\Temp\cc6kGr5c.s 			page 32


 1215 022e DFED47AA 		vldr.32	s21, .L101+64
 1216 0232 9FED3FAA 		vldr.32	s20, .L101+36
 1217 0236 B0EE6A1A 		vmov.f32	s2, s21
 1218 023a F0EE4A0A 		vmov.f32	s1, s20
 1219 023e 30EE0A0A 		vadd.f32	s0, s0, s20
 1220 0242 FFF7FEFF 		bl	clampf
 1221              	.LVL97:
 1222 0246 F0EE408A 		vmov.f32	s17, s0
 1223              	.LVL98:
 240:Core/Src/drive.c **** 
 1224              		.loc 1 240 5 is_stmt 1 view .LVU370
 240:Core/Src/drive.c **** 
 1225              		.loc 1 240 16 is_stmt 0 view .LVU371
 1226 024a B0EE6A1A 		vmov.f32	s2, s21
 1227 024e F0EE4A0A 		vmov.f32	s1, s20
 1228 0252 39EE080A 		vadd.f32	s0, s18, s16
 1229              	.LVL99:
 240:Core/Src/drive.c **** 
 1230              		.loc 1 240 16 view .LVU372
 1231 0256 FFF7FEFF 		bl	clampf
 1232              	.LVL100:
 1233 025a B0EE408A 		vmov.f32	s16, s0
 1234              	.LVL101:
 242:Core/Src/drive.c ****     Motor_Right((int8_t)(rt + 0.5f));
 1235              		.loc 1 242 5 is_stmt 1 view .LVU373
 242:Core/Src/drive.c ****     Motor_Right((int8_t)(rt + 0.5f));
 1236              		.loc 1 242 28 is_stmt 0 view .LVU374
 1237 025e B6EE00AA 		vmov.f32	s20, #5.0e-1
 1238 0262 78EE8A8A 		vadd.f32	s17, s17, s20
 1239              	.LVL102:
 242:Core/Src/drive.c ****     Motor_Right((int8_t)(rt + 0.5f));
 1240              		.loc 1 242 16 view .LVU375
 1241 0266 FDEEE87A 		vcvt.s32.f32	s15, s17
 1242 026a CDED017A 		vstr.32	s15, [sp, #4]	@ int
 242:Core/Src/drive.c ****     Motor_Right((int8_t)(rt + 0.5f));
 1243              		.loc 1 242 5 view .LVU376
 1244 026e 9DF90400 		ldrsb	r0, [sp, #4]
 1245 0272 FFF7FEFF 		bl	Motor_Left
 1246              	.LVL103:
 243:Core/Src/drive.c **** 
 1247              		.loc 1 243 5 is_stmt 1 view .LVU377
 243:Core/Src/drive.c **** 
 1248              		.loc 1 243 29 is_stmt 0 view .LVU378
 1249 0276 38EE0A8A 		vadd.f32	s16, s16, s20
 1250              	.LVL104:
 243:Core/Src/drive.c **** 
 1251              		.loc 1 243 17 view .LVU379
 1252 027a FDEEC87A 		vcvt.s32.f32	s15, s16
 1253 027e CDED017A 		vstr.32	s15, [sp, #4]	@ int
 243:Core/Src/drive.c **** 
 1254              		.loc 1 243 5 view .LVU380
 1255 0282 9DF90400 		ldrsb	r0, [sp, #4]
 1256 0286 FFF7FEFF 		bl	Motor_Right
 1257              	.LVL105:
 245:Core/Src/drive.c ****     dbg.steer_mode = mode;
 1258              		.loc 1 245 5 is_stmt 1 view .LVU381
 245:Core/Src/drive.c ****     dbg.steer_mode = mode;
ARM GAS  C:\Users\user\AppData\Local\Temp\cc6kGr5c.s 			page 33


 1259              		.loc 1 245 20 is_stmt 0 view .LVU382
 1260 028a 314B     		ldr	r3, .L101+68
 1261 028c 83ED019A 		vstr.32	s18, [r3, #4]
 246:Core/Src/drive.c ****     dbg.yaw_rate   = yaw_rate;
 1262              		.loc 1 246 5 is_stmt 1 view .LVU383
 246:Core/Src/drive.c ****     dbg.yaw_rate   = yaw_rate;
 1263              		.loc 1 246 20 is_stmt 0 view .LVU384
 1264 0290 5E70     		strb	r6, [r3, #1]
 247:Core/Src/drive.c ****     dbg.hdg_err    = wrap180(in->heading - h_ref);
 1265              		.loc 1 247 5 is_stmt 1 view .LVU385
 247:Core/Src/drive.c ****     dbg.hdg_err    = wrap180(in->heading - h_ref);
 1266              		.loc 1 247 20 is_stmt 0 view .LVU386
 1267 0292 C3ED049A 		vstr.32	s19, [r3, #16]
 248:Core/Src/drive.c ****     dbg.duty_l     = (int16_t)(lt + 0.5f);
 1268              		.loc 1 248 5 is_stmt 1 view .LVU387
 248:Core/Src/drive.c ****     dbg.duty_l     = (int16_t)(lt + 0.5f);
 1269              		.loc 1 248 32 is_stmt 0 view .LVU388
 1270 0296 D4ED037A 		vldr.32	s15, [r4, #12]
 248:Core/Src/drive.c ****     dbg.duty_l     = (int16_t)(lt + 0.5f);
 1271              		.loc 1 248 22 view .LVU389
 1272 029a 1D4B     		ldr	r3, .L101+4
 1273 029c 93ED007A 		vldr.32	s14, [r3]
 1274 02a0 77EEC77A 		vsub.f32	s15, s15, s14
 1275              	.LVL106:
 1276              	.LBB38:
 1277              	.LBI38:
  89:Core/Src/drive.c **** {
 1278              		.loc 1 89 21 is_stmt 1 view .LVU390
 1279              	.LBB39:
  91:Core/Src/drive.c ****     else if (a <= -180.0f) a += 360.0f;
 1280              		.loc 1 91 5 view .LVU391
  91:Core/Src/drive.c ****     else if (a <= -180.0f) a += 360.0f;
 1281              		.loc 1 91 13 is_stmt 0 view .LVU392
 1282 02a4 9FED217A 		vldr.32	s14, .L101+32
 1283 02a8 F4EEC77A 		vcmpe.f32	s15, s14
 1284 02ac F1EE10FA 		vmrs	APSR_nzcv, FPSCR
 1285 02b0 54DD     		ble	.L99
  91:Core/Src/drive.c ****     else if (a <= -180.0f) a += 360.0f;
 1286              		.loc 1 91 28 is_stmt 1 discriminator 1 view .LVU393
  91:Core/Src/drive.c ****     else if (a <= -180.0f) a += 360.0f;
 1287              		.loc 1 91 30 is_stmt 0 discriminator 1 view .LVU394
 1288 02b2 9FED297A 		vldr.32	s14, .L101+76
 1289 02b6 77EEC77A 		vsub.f32	s15, s15, s14
 1290              	.LVL107:
 1291              	.L79:
  93:Core/Src/drive.c **** }
 1292              		.loc 1 93 5 is_stmt 1 view .LVU395
  93:Core/Src/drive.c **** }
 1293              		.loc 1 93 5 is_stmt 0 view .LVU396
 1294              	.LBE39:
 1295              	.LBE38:
 248:Core/Src/drive.c ****     dbg.duty_l     = (int16_t)(lt + 0.5f);
 1296              		.loc 1 248 20 discriminator 1 view .LVU397
 1297 02ba 254A     		ldr	r2, .L101+68
 1298 02bc C2ED037A 		vstr.32	s15, [r2, #12]
 249:Core/Src/drive.c ****     dbg.duty_r     = (int16_t)(rt + 0.5f);
 1299              		.loc 1 249 5 is_stmt 1 view .LVU398
ARM GAS  C:\Users\user\AppData\Local\Temp\cc6kGr5c.s 			page 34


 249:Core/Src/drive.c ****     dbg.duty_r     = (int16_t)(rt + 0.5f);
 1300              		.loc 1 249 22 is_stmt 0 view .LVU399
 1301 02c0 FDEEE88A 		vcvt.s32.f32	s17, s17
 1302 02c4 18EE903A 		vmov	r3, s17	@ int
 1303 02c8 1BB2     		sxth	r3, r3
 249:Core/Src/drive.c ****     dbg.duty_r     = (int16_t)(rt + 0.5f);
 1304              		.loc 1 249 20 view .LVU400
 1305 02ca 1381     		strh	r3, [r2, #8]	@ movhi
 250:Core/Src/drive.c **** }
 1306              		.loc 1 250 5 is_stmt 1 view .LVU401
 250:Core/Src/drive.c **** }
 1307              		.loc 1 250 22 is_stmt 0 view .LVU402
 1308 02cc BDEEC88A 		vcvt.s32.f32	s16, s16
 1309 02d0 18EE103A 		vmov	r3, s16	@ int
 1310 02d4 1BB2     		sxth	r3, r3
 250:Core/Src/drive.c **** }
 1311              		.loc 1 250 20 view .LVU403
 1312 02d6 5381     		strh	r3, [r2, #10]	@ movhi
 251:Core/Src/drive.c **** 
 1313              		.loc 1 251 1 view .LVU404
 1314 02d8 03B0     		add	sp, sp, #12
 1315              	.LCFI8:
 1316              		.cfi_remember_state
 1317              		.cfi_def_cfa_offset 44
 1318              		@ sp needed
 1319 02da BDEC068B 		vldm	sp!, {d8-d10}
 1320              	.LCFI9:
 1321              		.cfi_restore 84
 1322              		.cfi_restore 85
 1323              		.cfi_restore 82
 1324              		.cfi_restore 83
 1325              		.cfi_restore 80
 1326              		.cfi_restore 81
 1327              		.cfi_def_cfa_offset 20
 1328              	.LVL108:
 251:Core/Src/drive.c **** 
 1329              		.loc 1 251 1 view .LVU405
 1330 02de F0BD     		pop	{r4, r5, r6, r7, pc}
 1331              	.LVL109:
 1332              	.L98:
 1333              	.LCFI10:
 1334              		.cfi_restore_state
 1335              	.LBB41:
 1336              	.LBB37:
  92:Core/Src/drive.c ****     return a;
 1337              		.loc 1 92 10 is_stmt 1 view .LVU406
  92:Core/Src/drive.c ****     return a;
 1338              		.loc 1 92 13 is_stmt 0 view .LVU407
 1339 02e0 DFED1C7A 		vldr.32	s15, .L101+72
 1340 02e4 B4EEE70A 		vcmpe.f32	s0, s15
 1341 02e8 F1EE10FA 		vmrs	APSR_nzcv, FPSCR
 1342 02ec 3FF66CAF 		bhi	.L74
  92:Core/Src/drive.c ****     return a;
 1343              		.loc 1 92 28 is_stmt 1 discriminator 1 view .LVU408
  92:Core/Src/drive.c ****     return a;
 1344              		.loc 1 92 30 is_stmt 0 discriminator 1 view .LVU409
 1345 02f0 DFED197A 		vldr.32	s15, .L101+76
ARM GAS  C:\Users\user\AppData\Local\Temp\cc6kGr5c.s 			page 35


 1346 02f4 30EE270A 		vadd.f32	s0, s0, s15
 1347              	.LVL110:
  92:Core/Src/drive.c ****     return a;
 1348              		.loc 1 92 30 discriminator 1 view .LVU410
 1349 02f8 66E7     		b	.L74
 1350              	.LVL111:
 1351              	.L87:
  92:Core/Src/drive.c ****     return a;
 1352              		.loc 1 92 30 discriminator 1 view .LVU411
 1353              	.LBE37:
 1354              	.LBE41:
 198:Core/Src/drive.c ****         steer = (fabsf(error) <= CENTER_DEADZONE_CM)
 1355              		.loc 1 198 15 view .LVU412
 1356 02fa 0026     		movs	r6, #0
 201:Core/Src/drive.c ****     }
 1357              		.loc 1 201 15 discriminator 1 view .LVU413
 1358 02fc 9FED0C0A 		vldr.32	s0, .L101+36
 1359              	.LVL112:
 201:Core/Src/drive.c ****     }
 1360              		.loc 1 201 15 discriminator 1 view .LVU414
 1361 0300 67E7     		b	.L71
 1362              	.LVL113:
 1363              	.L88:
 213:Core/Src/drive.c ****         steer = 0.0f;
 1364              		.loc 1 213 15 view .LVU415
 1365 0302 0426     		movs	r6, #4
 214:Core/Src/drive.c ****     }
 1366              		.loc 1 214 15 view .LVU416
 1367 0304 9FED0A0A 		vldr.32	s0, .L101+36
 1368              	.LVL114:
 214:Core/Src/drive.c ****     }
 1369              		.loc 1 214 15 view .LVU417
 1370 0308 63E7     		b	.L71
 1371              	.L102:
 1372 030a 00BF     		.align	2
 1373              	.L101:
 1374 030c 00000000 		.word	ctx_center
 1375 0310 00000000 		.word	h_ref
 1376 0314 00000000 		.word	h_prev
 1377 0318 ABAAAAAA 		.word	-1431655765
 1378 031c CDCCCC3D 		.word	1036831949
 1379 0320 0AD7A33B 		.word	1000593162
 1380 0324 00007A44 		.word	1148846080
 1381 0328 0AD7A33C 		.word	1017370378
 1382 032c 00003443 		.word	1127481344
 1383 0330 00000000 		.word	0
 1384 0334 0000A042 		.word	1117782016
 1385 0338 9A99193E 		.word	1041865114
 1386 033c CDCC4C3F 		.word	1061997773
 1387 0340 9A99993E 		.word	1050253722
 1388 0344 00003042 		.word	1110441984
 1389 0348 00002C42 		.word	1110179840
 1390 034c 0000C842 		.word	1120403456
 1391 0350 00000000 		.word	dbg
 1392 0354 000034C3 		.word	-1020002304
 1393 0358 0000B443 		.word	1135869952
 1394              	.LVL115:
ARM GAS  C:\Users\user\AppData\Local\Temp\cc6kGr5c.s 			page 36


 1395              	.L99:
 1396              	.LBB42:
 1397              	.LBB40:
  92:Core/Src/drive.c ****     return a;
 1398              		.loc 1 92 10 is_stmt 1 view .LVU418
  92:Core/Src/drive.c ****     return a;
 1399              		.loc 1 92 13 is_stmt 0 view .LVU419
 1400 035c 1FED037A 		vldr.32	s14, .L101+72
 1401 0360 F4EEC77A 		vcmpe.f32	s15, s14
 1402 0364 F1EE10FA 		vmrs	APSR_nzcv, FPSCR
 1403 0368 A7D8     		bhi	.L79
  92:Core/Src/drive.c ****     return a;
 1404              		.loc 1 92 28 is_stmt 1 discriminator 1 view .LVU420
  92:Core/Src/drive.c ****     return a;
 1405              		.loc 1 92 30 is_stmt 0 discriminator 1 view .LVU421
 1406 036a 1FED057A 		vldr.32	s14, .L101+76
 1407 036e 77EE877A 		vadd.f32	s15, s15, s14
 1408              	.LVL116:
  92:Core/Src/drive.c ****     return a;
 1409              		.loc 1 92 30 discriminator 1 view .LVU422
 1410 0372 A2E7     		b	.L79
 1411              	.LBE40:
 1412              	.LBE42:
 1413              		.cfi_endproc
 1414              	.LFE139:
 1416              		.section	.text.brake_enter,"ax",%progbits
 1417              		.align	1
 1418              		.syntax unified
 1419              		.thumb
 1420              		.thumb_func
 1422              	brake_enter:
 1423              	.LVL117:
 1424              	.LFB142:
 273:Core/Src/drive.c ****     if (BRAKE_MS > 0) Car_Brake();   /* BRAKE_MS=0 Рєњ ваѕЖ▒░ВІю ВйћВіцьіИ ьЈ┤в░▒ */
 1425              		.loc 1 273 1 is_stmt 1 view -0
 1426              		.cfi_startproc
 1427              		@ args = 0, pretend = 0, frame = 0
 1428              		@ frame_needed = 0, uses_anonymous_args = 0
 273:Core/Src/drive.c ****     if (BRAKE_MS > 0) Car_Brake();   /* BRAKE_MS=0 Рєњ ваѕЖ▒░ВІю ВйћВіцьіИ ьЈ┤в░▒ */
 1429              		.loc 1 273 1 is_stmt 0 view .LVU424
 1430 0000 10B5     		push	{r4, lr}
 1431              	.LCFI11:
 1432              		.cfi_def_cfa_offset 8
 1433              		.cfi_offset 4, -8
 1434              		.cfi_offset 14, -4
 1435 0002 0446     		mov	r4, r0
 274:Core/Src/drive.c ****     else              Car_Stop();
 1436              		.loc 1 274 5 is_stmt 1 view .LVU425
 274:Core/Src/drive.c ****     else              Car_Stop();
 1437              		.loc 1 274 23 discriminator 1 view .LVU426
 1438 0004 FFF7FEFF 		bl	Car_Brake
 1439              	.LVL118:
 276:Core/Src/drive.c **** }
 1440              		.loc 1 276 5 view .LVU427
 1441 0008 6169     		ldr	r1, [r4, #20]
 1442 000a 0120     		movs	r0, #1
 1443 000c FFF7FEFF 		bl	enter
ARM GAS  C:\Users\user\AppData\Local\Temp\cc6kGr5c.s 			page 37


 1444              	.LVL119:
 277:Core/Src/drive.c **** 
 1445              		.loc 1 277 1 is_stmt 0 view .LVU428
 1446 0010 10BD     		pop	{r4, pc}
 277:Core/Src/drive.c **** 
 1447              		.loc 1 277 1 view .LVU429
 1448              		.cfi_endproc
 1449              	.LFE142:
 1451              		.section	.text.cruise_run,"ax",%progbits
 1452              		.align	1
 1453              		.syntax unified
 1454              		.thumb
 1455              		.thumb_func
 1457              	cruise_run:
 1458              	.LVL120:
 1459              	.LFB149:
 364:Core/Src/drive.c **** 
 365:Core/Src/drive.c **** /* ---- ВЃЂьЃюв│ё ВІцьќЅ ---- */
 366:Core/Src/drive.c **** 
 367:Core/Src/drive.c **** /* CRUISE: ВДЂВДё Вё╝ьё░вДЂ ВБ╝ьќЅ + Вйћвёѕ/ВъЦВЋавг╝ ВаёВЮ┤. Вџ░ВёаВѕюВюё(ВюёРєњВЋёвъў):
 368:Core/Src/drive.c ****    1) ВаЋвЕ┤ вг┤ВЌљВйћ Рєњ HOLD
 369:Core/Src/drive.c ****    2) [req2] Вйћвёѕ(ВаЋвЕ┤ ВбЂВЋёВДљ + ьЋюВфй ьіИВъё) Рєњ ВаёВДёВё▒ ВЋёьЂг(DS_CORNER) Рђћ 'Жх┤вЪгВё
 370:Core/Src/drive.c ****    3) [req1] ВаЋвЕ┤ ВъЦВЋавг╝ Рєњ ЖиИваѕВЮ┤ВДЋ ьЋёьё░ ьєхЖ│╝ + Nьџї ьЎЋВаЋ ВІюВЌљвДї BRAKE(РєњвДЅвІ
 371:Core/Src/drive.c ****    4) ВИАв▓й в░ЋЖИ░ВДЂВаё Рєњ SIDE_AVOID
 372:Core/Src/drive.c ****    5) Вё╝ьё░вДЂ PD */
 373:Core/Src/drive.c **** static void cruise_run(const DriveInputs *in)
 374:Core/Src/drive.c **** {
 1460              		.loc 1 374 1 is_stmt 1 view -0
 1461              		.cfi_startproc
 1462              		@ args = 0, pretend = 0, frame = 8
 1463              		@ frame_needed = 0, uses_anonymous_args = 0
 1464              		.loc 1 374 1 is_stmt 0 view .LVU431
 1465 0000 30B5     		push	{r4, r5, lr}
 1466              	.LCFI12:
 1467              		.cfi_def_cfa_offset 12
 1468              		.cfi_offset 4, -12
 1469              		.cfi_offset 5, -8
 1470              		.cfi_offset 14, -4
 1471 0002 2DED028B 		vpush.64	{d8}
 1472              	.LCFI13:
 1473              		.cfi_def_cfa_offset 20
 1474              		.cfi_offset 80, -20
 1475              		.cfi_offset 81, -16
 1476 0006 83B0     		sub	sp, sp, #12
 1477              	.LCFI14:
 1478              		.cfi_def_cfa_offset 32
 1479 0008 0446     		mov	r4, r0
 375:Core/Src/drive.c ****     /* 1) fail-safe: ВаЋвЕ┤ ВЌ░ВєЇ вг┤ВЌљВйћ Рєњ HOLD. CRUISEВЌљВёювДї Рђћ SPIN/REVERSEвіћ Ваёв░Е в
 376:Core/Src/drive.c ****     if (in->front_miss >= FRONT_FAIL_LIMIT) { hold_enter(in); return; }
 1480              		.loc 1 376 5 is_stmt 1 view .LVU432
 1481              		.loc 1 376 11 is_stmt 0 view .LVU433
 1482 000a 037A     		ldrb	r3, [r0, #8]	@ zero_extendqisi2
 1483              		.loc 1 376 8 view .LVU434
 1484 000c 042B     		cmp	r3, #4
 1485 000e 13D8     		bhi	.L130
 377:Core/Src/drive.c **** 
 378:Core/Src/drive.c ****     /* 1.5) РўЁ[fix] вЪ░В╣ў ВДЂВДё В╗цв░І: ВъљВюе ВІюВъЉ ВДЂьЏё LAUNCH_MS вЈЎВЋѕ Вйћвёѕ/ВіцьЋђ ьїљв
ARM GAS  C:\Users\user\AppData\Local\Temp\cc6kGr5c.s 			page 38


 379:Core/Src/drive.c ****        (a) вфеьё░ ВЮИвЪгВІю ВаёвЦўВЮў 5V brownout/I2C ЖИђвдгВ╣ўвАю imu_liveЖ░ђ ВБйвіћ В░йВЮё ьєхЖ│╝
 380:Core/Src/drive.c ****            вг┤ваЦРєњ180┬░ ВЌГВБ╝ьќЅ ВЏљВЮИ), (b) gyro heading ВаЋВ░Е + h_ref ЖИ░ВцђВЮё ЖиИ ВѓгВЮ┤ Ж
 381:Core/Src/drive.c ****        'вЈї ВЮ╝' ВъљВ▓┤вЦ╝ ВЌєВЋа ВйћВіцвАю ВаёВДё ВДёВъЁВІюьѓевІц. вІе ВаЋвЕ┤ Ж▓йЖ│а(f<TURN)вѓў ВИ
 382:Core/Src/drive.c ****     if (launching)
 1486              		.loc 1 382 5 is_stmt 1 view .LVU435
 1487              		.loc 1 382 9 is_stmt 0 view .LVU436
 1488 0010 644B     		ldr	r3, .L134
 1489 0012 1B78     		ldrb	r3, [r3]	@ zero_extendqisi2
 1490              		.loc 1 382 8 view .LVU437
 1491 0014 5BB3     		cbz	r3, .L108
 1492              	.LBB43:
 383:Core/Src/drive.c ****     {
 384:Core/Src/drive.c ****         if (t_launch == 0U) t_launch = in->now;   /* В▓Ф cruise ьћёваѕВъёВЌљ въўВ╣ў */
 1493              		.loc 1 384 9 is_stmt 1 view .LVU438
 1494              		.loc 1 384 22 is_stmt 0 view .LVU439
 1495 0016 644B     		ldr	r3, .L134+4
 1496 0018 1B68     		ldr	r3, [r3]
 1497              		.loc 1 384 12 view .LVU440
 1498 001a 13B9     		cbnz	r3, .L109
 1499              		.loc 1 384 29 is_stmt 1 discriminator 1 view .LVU441
 1500              		.loc 1 384 42 is_stmt 0 discriminator 1 view .LVU442
 1501 001c 4269     		ldr	r2, [r0, #20]
 1502              		.loc 1 384 38 discriminator 1 view .LVU443
 1503 001e 624B     		ldr	r3, .L134+4
 1504 0020 1A60     		str	r2, [r3]
 1505              	.L109:
 385:Core/Src/drive.c ****         uint8_t window      = ((in->now - t_launch) < (uint32_t)LAUNCH_MS);
 1506              		.loc 1 385 9 is_stmt 1 view .LVU444
 1507              		.loc 1 385 35 is_stmt 0 view .LVU445
 1508 0022 6369     		ldr	r3, [r4, #20]
 1509              		.loc 1 385 41 view .LVU446
 1510 0024 604A     		ldr	r2, .L134+4
 1511 0026 1268     		ldr	r2, [r2]
 1512 0028 9A1A     		subs	r2, r3, r2
 1513              	.LVL121:
 386:Core/Src/drive.c ****         uint8_t front_warn  = (in->f < FRONT_TURN_CM && in->f_valid);
 1514              		.loc 1 386 9 is_stmt 1 view .LVU447
 1515              		.loc 1 386 34 is_stmt 0 view .LVU448
 1516 002a 2388     		ldrh	r3, [r4]
 1517              		.loc 1 386 54 view .LVU449
 1518 002c 1D2B     		cmp	r3, #29
 1519 002e 06D8     		bhi	.L125
 1520              		.loc 1 386 59 discriminator 1 view .LVU450
 1521 0030 A379     		ldrb	r3, [r4, #6]	@ zero_extendqisi2
 1522              		.loc 1 386 54 discriminator 1 view .LVU451
 1523 0032 2BB1     		cbz	r3, .L110
 1524              		.loc 1 386 54 discriminator 3 view .LVU452
 1525 0034 0123     		movs	r3, #1
 1526 0036 03E0     		b	.L110
 1527              	.LVL122:
 1528              	.L130:
 1529              		.loc 1 386 54 discriminator 3 view .LVU453
 1530              	.LBE43:
 376:Core/Src/drive.c **** 
 1531              		.loc 1 376 47 is_stmt 1 discriminator 1 view .LVU454
 1532 0038 FFF7FEFF 		bl	hold_enter
 1533              	.LVL123:
ARM GAS  C:\Users\user\AppData\Local\Temp\cc6kGr5c.s 			page 39


 376:Core/Src/drive.c **** 
 1534              		.loc 1 376 63 discriminator 1 view .LVU455
 376:Core/Src/drive.c **** 
 1535              		.loc 1 376 63 is_stmt 0 view .LVU456
 1536 003c A7E0     		b	.L105
 1537              	.LVL124:
 1538              	.L125:
 1539              	.LBB46:
 1540              		.loc 1 386 54 discriminator 4 view .LVU457
 1541 003e 0023     		movs	r3, #0
 1542              	.L110:
 1543              		.loc 1 386 17 discriminator 6 view .LVU458
 1544 0040 D9B2     		uxtb	r1, r3
 1545              	.LVL125:
 387:Core/Src/drive.c ****         uint8_t side_emerg  = 0U;
 1546              		.loc 1 387 9 is_stmt 1 view .LVU459
 388:Core/Src/drive.c ****         if (in->side_valid)
 1547              		.loc 1 388 9 view .LVU460
 1548              		.loc 1 388 15 is_stmt 0 view .LVU461
 1549 0042 E379     		ldrb	r3, [r4, #7]	@ zero_extendqisi2
 1550              		.loc 1 388 12 view .LVU462
 1551 0044 43B1     		cbz	r3, .L111
 1552              	.LBB44:
 389:Core/Src/drive.c ****         {
 390:Core/Src/drive.c ****             uint16_t smin_launch = (in->l < in->r) ? in->l : in->r;
 1553              		.loc 1 390 13 is_stmt 1 view .LVU463
 1554              		.loc 1 390 47 is_stmt 0 view .LVU464
 1555 0046 A388     		ldrh	r3, [r4, #4]
 1556              		.loc 1 390 39 view .LVU465
 1557 0048 6088     		ldrh	r0, [r4, #2]
 1558              	.LVL126:
 1559              		.loc 1 390 22 view .LVU466
 1560 004a 8342     		cmp	r3, r0
 1561 004c 28BF     		it	cs
 1562 004e 0346     		movcs	r3, r0
 1563              	.LVL127:
 391:Core/Src/drive.c ****             side_emerg = (smin_launch < SIDE_AVOID_CM);
 1564              		.loc 1 391 13 is_stmt 1 view .LVU467
 1565              		.loc 1 391 39 is_stmt 0 view .LVU468
 1566 0050 032B     		cmp	r3, #3
 1567 0052 8CBF     		ite	hi
 1568 0054 0023     		movhi	r3, #0
 1569              	.LVL128:
 1570              		.loc 1 391 39 view .LVU469
 1571 0056 0123     		movls	r3, #1
 1572              	.LVL129:
 1573              	.L111:
 1574              		.loc 1 391 39 view .LVU470
 1575              	.LBE44:
 392:Core/Src/drive.c ****         }
 393:Core/Src/drive.c ****         if (window && !front_warn && !side_emerg)
 1576              		.loc 1 393 9 is_stmt 1 view .LVU471
 1577              		.loc 1 393 12 is_stmt 0 view .LVU472
 1578 0058 B2F5487F 		cmp	r2, #800
 1579 005c 01D2     		bcs	.L112
 1580              		.loc 1 393 20 discriminator 1 view .LVU473
 1581 005e 01B9     		cbnz	r1, .L112
ARM GAS  C:\Users\user\AppData\Local\Temp\cc6kGr5c.s 			page 40


 1582              		.loc 1 393 35 discriminator 2 view .LVU474
 1583 0060 23B3     		cbz	r3, .L131
 1584              	.L112:
 394:Core/Src/drive.c ****         {
 395:Core/Src/drive.c ****             if (in->imu_live)
 396:Core/Src/drive.c ****             {
 397:Core/Src/drive.c ****                 h_ref  = in->heading;   /* gyro Вѕўва┤ ВцЉ datum ВДђВєЇ Ж░▒ВІа Рєњ вЪ░В╣ў ВбЁвБї ВІ
 398:Core/Src/drive.c ****                 h_prev = in->heading;
 399:Core/Src/drive.c ****             }
 400:Core/Src/drive.c ****             dbg.launch = 1;
 401:Core/Src/drive.c ****             /* РўЁ[fixРЉа] вЪ░В╣ўВЌћ в▓йВё╝ьё░вДЂ ьўИВХю ЖИѕВДђ Рђћ ВІюВъЉВаљ brownoutВю╝вАю imu_li
 402:Core/Src/drive.c ****                P-only Вё╝ьё░вДЂВЮ┤ Жи╝ВаЉ ВИАв▓йВёю Вўцв▓ёВіцьІ░Вќ┤Рєњв▓й ьЋЉьљЂ. ВбїВџ░ вЈЎВЮ╝ bas
 403:Core/Src/drive.c ****                Ж░ЋВаю(ВИАв▓й вг┤ВІю). lt/rtвіћ ephemeral local(ВЃЂьЃю ВЋёвІў). emerg(f<STOP)вЕ┤ Вюё
 404:Core/Src/drive.c ****             float base = CENTER_BASE_SPEED_PCT;
 405:Core/Src/drive.c ****             float lt = clampf(base + (float)MOTOR_TRIM_PCT, 0.0f, 100.0f);
 406:Core/Src/drive.c ****             float rt = clampf(base - (float)MOTOR_TRIM_PCT, 0.0f, 100.0f);
 407:Core/Src/drive.c ****             Motor_Left ((int8_t)(lt + 0.5f));
 408:Core/Src/drive.c ****             Motor_Right((int8_t)(rt + 0.5f));
 409:Core/Src/drive.c ****             dbg.steer  = 0.0f;
 410:Core/Src/drive.c ****             dbg.duty_l = (int16_t)(lt + 0.5f);
 411:Core/Src/drive.c ****             dbg.duty_r = (int16_t)(rt + 0.5f);
 412:Core/Src/drive.c ****             return;
 413:Core/Src/drive.c ****         }
 414:Core/Src/drive.c ****         launching  = 0U;            /* ВюѕвЈё ВбЁвБї вўљвіћ ВЋѕВаё Ж▓йЖ│а Рєњ вЪ░В╣ў ьЋ┤Ваю, ВаЋВЃЂ
 1585              		.loc 1 414 9 is_stmt 1 view .LVU475
 1586              		.loc 1 414 20 is_stmt 0 view .LVU476
 1587 0062 0023     		movs	r3, #0
 1588              	.LVL130:
 1589              		.loc 1 414 20 view .LVU477
 1590 0064 4F4A     		ldr	r2, .L134
 1591              	.LVL131:
 1592              		.loc 1 414 20 view .LVU478
 1593 0066 1370     		strb	r3, [r2]
 415:Core/Src/drive.c ****         dbg.launch = 0;
 1594              		.loc 1 415 9 is_stmt 1 view .LVU479
 1595              		.loc 1 415 20 is_stmt 0 view .LVU480
 1596 0068 504A     		ldr	r2, .L134+8
 1597 006a 82F82230 		strb	r3, [r2, #34]
 1598              	.LVL132:
 1599              	.L108:
 1600              		.loc 1 415 20 view .LVU481
 1601              	.LBE46:
 416:Core/Src/drive.c ****     }
 417:Core/Src/drive.c **** 
 418:Core/Src/drive.c ****     /* ВаёвЕ┤ Жи╝ВаЉ ВІю ЖиИваѕВЮ┤ВДЋ(ВИАв▓й в╣ћ Ж░ёВёГ) ВЌгвХђвЦ╝ 1ьџї Вѓ░ВаЋ Рђћ Вйћвёѕ ВДёВъЁ Ж▓
 419:Core/Src/drive.c ****        (ВцЉв│х ьЈЅЖ░ђ в░ЕВДђ + dbg.graze ВЮ╝Ж┤ђВё▒). f<ARC в▓ћВюёВЌљВёювДї ьЈЅЖ░ђ, ЖиИ в░ќВЮђ 0 */
 420:Core/Src/drive.c ****     uint8_t front_near = (in->f < FRONT_ARC_CM && in->f_valid);
 1602              		.loc 1 420 5 is_stmt 1 view .LVU482
 1603              		.loc 1 420 29 is_stmt 0 view .LVU483
 1604 006e 2388     		ldrh	r3, [r4]
 1605              		.loc 1 420 48 view .LVU484
 1606 0070 362B     		cmp	r3, #54
 1607 0072 47D8     		bhi	.L114
 1608              		.loc 1 420 53 discriminator 1 view .LVU485
 1609 0074 A379     		ldrb	r3, [r4, #6]	@ zero_extendqisi2
 1610              		.loc 1 420 48 discriminator 1 view .LVU486
 1611 0076 002B     		cmp	r3, #0
ARM GAS  C:\Users\user\AppData\Local\Temp\cc6kGr5c.s 			page 41


 1612 0078 44D0     		beq	.L114
 1613              	.LVL133:
 421:Core/Src/drive.c ****     uint8_t graze      = (front_near && in->side_valid) ? front_graze_suspected(in) : 0U;
 1614              		.loc 1 421 5 is_stmt 1 view .LVU487
 1615              		.loc 1 421 43 is_stmt 0 discriminator 1 view .LVU488
 1616 007a E079     		ldrb	r0, [r4, #7]	@ zero_extendqisi2
 1617              		.loc 1 421 38 discriminator 1 view .LVU489
 1618 007c 0028     		cmp	r0, #0
 1619 007e 4FD1     		bne	.L115
 1620              	.L116:
 1621              	.LVL134:
 422:Core/Src/drive.c ****     dbg.graze = graze;
 1622              		.loc 1 422 5 is_stmt 1 view .LVU490
 1623              		.loc 1 422 15 is_stmt 0 view .LVU491
 1624 0080 4A4B     		ldr	r3, .L134+8
 1625 0082 83F82000 		strb	r0, [r3, #32]
 423:Core/Src/drive.c **** 
 424:Core/Src/drive.c ****     /* 2) РўЁВйћвёѕ ВДёВъЁ(ВЋёьЂг Вџ░Вёа): ВаЋвЕ┤ ARCвАю ВбЂьўђВДљ + РўЁЖиИваѕВЮ┤ВДЋ ВЋёвІў(ВДёВДю 
 425:Core/Src/drive.c ****           ВаёВДёВё▒ ВЋёьЂгвАю ьєхЖ│╝. РўЁЖ│аВєЇ ьџАВЈавд╝ ВІю ВИАв▓й ВіцВ╣е(Ж░ђВДю f<ARC)ВЮё 'в░ўвї
 426:Core/Src/drive.c ****           вЈїВДёьЋўвЇў В╣ўвфЁ ВўцВъЉвЈЎ В░евІе Рђћ Ж░ђВДювЕ┤ Вйћвёѕ ВќхВаю, ВЋёвъўвАю ВюёВъёьЋ┤ Вё╝
 427:Core/Src/drive.c ****     if (front_near && in->side_valid && !graze)
 1626              		.loc 1 427 5 is_stmt 1 view .LVU492
 1627              		.loc 1 427 25 is_stmt 0 discriminator 1 view .LVU493
 1628 0086 E379     		ldrb	r3, [r4, #7]	@ zero_extendqisi2
 1629              		.loc 1 427 20 discriminator 1 view .LVU494
 1630 0088 002B     		cmp	r3, #0
 1631 008a 3FD0     		beq	.L117
 1632              		.loc 1 427 38 discriminator 2 view .LVU495
 1633 008c 0028     		cmp	r0, #0
 1634 008e 3DD1     		bne	.L117
 1635              	.LBB47:
 428:Core/Src/drive.c ****     {
 429:Core/Src/drive.c ****         uint8_t left_open  = (in->l >= SIDE_OPEN_CM);
 1636              		.loc 1 429 9 is_stmt 1 view .LVU496
 1637              		.loc 1 429 33 is_stmt 0 view .LVU497
 1638 0090 6288     		ldrh	r2, [r4, #2]
 1639              	.LVL135:
 430:Core/Src/drive.c ****         uint8_t right_open = (in->r >= SIDE_OPEN_CM);
 1640              		.loc 1 430 9 is_stmt 1 view .LVU498
 1641              		.loc 1 430 33 is_stmt 0 view .LVU499
 1642 0092 A188     		ldrh	r1, [r4, #4]
 1643              	.LVL136:
 431:Core/Src/drive.c ****         /* РўЁ[fixРЉб] Ваѕвїђ ьіИВъё в»ИвІгВЮ┤вЮ╝вЈё ВбїВџ░ в╣ёвїђВ╣Г(ВЎёвДїЖ│АВёа)ВЮ┤вЕ┤ вЇћ ьіИВЮ
 432:Core/Src/drive.c ****            (corner_enterЖ░ђ l>r+SIDE_HYSTвАю в░ЕьќЦ въўВ╣ў Рєњ ьіИВЮИ Вфй Ж│АВёа) */
 433:Core/Src/drive.c ****         uint8_t asym = (in->l >= (uint16_t)(in->r + CORNER_ASYM_CM)) ||
 1644              		.loc 1 433 9 is_stmt 1 view .LVU500
 1645              		.loc 1 433 34 is_stmt 0 view .LVU501
 1646 0094 01F10C03 		add	r3, r1, #12
 1647 0098 9BB2     		uxth	r3, r3
 1648              		.loc 1 433 70 view .LVU502
 1649 009a 9A42     		cmp	r2, r3
 1650 009c 44D2     		bcs	.L127
 434:Core/Src/drive.c ****                        (in->r >= (uint16_t)(in->l + CORNER_ASYM_CM));
 1651              		.loc 1 434 34 view .LVU503
 1652 009e 02F10C03 		add	r3, r2, #12
 1653 00a2 9BB2     		uxth	r3, r3
 433:Core/Src/drive.c ****                        (in->r >= (uint16_t)(in->l + CORNER_ASYM_CM));
ARM GAS  C:\Users\user\AppData\Local\Temp\cc6kGr5c.s 			page 42


 1654              		.loc 1 433 70 discriminator 2 view .LVU504
 1655 00a4 9942     		cmp	r1, r3
 1656 00a6 4BD3     		bcc	.L128
 433:Core/Src/drive.c ****                        (in->r >= (uint16_t)(in->l + CORNER_ASYM_CM));
 1657              		.loc 1 433 70 discriminator 3 view .LVU505
 1658 00a8 0123     		movs	r3, #1
 1659 00aa 3EE0     		b	.L118
 1660              	.LVL137:
 1661              	.L131:
 433:Core/Src/drive.c ****                        (in->r >= (uint16_t)(in->l + CORNER_ASYM_CM));
 1662              		.loc 1 433 70 discriminator 3 view .LVU506
 1663              	.LBE47:
 1664              	.LBB48:
 1665              	.LBB45:
 395:Core/Src/drive.c ****             {
 1666              		.loc 1 395 13 is_stmt 1 view .LVU507
 395:Core/Src/drive.c ****             {
 1667              		.loc 1 395 19 is_stmt 0 view .LVU508
 1668 00ac 237C     		ldrb	r3, [r4, #16]	@ zero_extendqisi2
 1669              	.LVL138:
 395:Core/Src/drive.c ****             {
 1670              		.loc 1 395 16 view .LVU509
 1671 00ae 23B1     		cbz	r3, .L113
 397:Core/Src/drive.c ****                 h_prev = in->heading;
 1672              		.loc 1 397 17 is_stmt 1 view .LVU510
 397:Core/Src/drive.c ****                 h_prev = in->heading;
 1673              		.loc 1 397 28 is_stmt 0 view .LVU511
 1674 00b0 E368     		ldr	r3, [r4, #12]	@ float
 397:Core/Src/drive.c ****                 h_prev = in->heading;
 1675              		.loc 1 397 24 view .LVU512
 1676 00b2 3F4A     		ldr	r2, .L134+12
 1677              	.LVL139:
 397:Core/Src/drive.c ****                 h_prev = in->heading;
 1678              		.loc 1 397 24 view .LVU513
 1679 00b4 1360     		str	r3, [r2]	@ float
 398:Core/Src/drive.c ****             }
 1680              		.loc 1 398 17 is_stmt 1 view .LVU514
 398:Core/Src/drive.c ****             }
 1681              		.loc 1 398 24 is_stmt 0 view .LVU515
 1682 00b6 3F4A     		ldr	r2, .L134+16
 1683 00b8 1360     		str	r3, [r2]	@ float
 1684              	.L113:
 400:Core/Src/drive.c ****             /* РўЁ[fixРЉа] вЪ░В╣ўВЌћ в▓йВё╝ьё░вДЂ ьўИВХю ЖИѕВДђ Рђћ ВІюВъЉВаљ brownoutВю╝вАю imu_li
 1685              		.loc 1 400 13 is_stmt 1 view .LVU516
 400:Core/Src/drive.c ****             /* РўЁ[fixРЉа] вЪ░В╣ўВЌћ в▓йВё╝ьё░вДЂ ьўИВХю ЖИѕВДђ Рђћ ВІюВъЉВаљ brownoutВю╝вАю imu_li
 1686              		.loc 1 400 24 is_stmt 0 view .LVU517
 1687 00ba 3C4C     		ldr	r4, .L134+8
 1688              	.LVL140:
 400:Core/Src/drive.c ****             /* РўЁ[fixРЉа] вЪ░В╣ўВЌћ в▓йВё╝ьё░вДЂ ьўИВХю ЖИѕВДђ Рђћ ВІюВъЉВаљ brownoutВю╝вАю imu_li
 1689              		.loc 1 400 24 view .LVU518
 1690 00bc 0123     		movs	r3, #1
 1691 00be 84F82230 		strb	r3, [r4, #34]
 1692              	.LVL141:
 404:Core/Src/drive.c ****             float lt = clampf(base + (float)MOTOR_TRIM_PCT, 0.0f, 100.0f);
 1693              		.loc 1 404 13 is_stmt 1 view .LVU519
 405:Core/Src/drive.c ****             float rt = clampf(base - (float)MOTOR_TRIM_PCT, 0.0f, 100.0f);
 1694              		.loc 1 405 13 view .LVU520
ARM GAS  C:\Users\user\AppData\Local\Temp\cc6kGr5c.s 			page 43


 405:Core/Src/drive.c ****             float rt = clampf(base - (float)MOTOR_TRIM_PCT, 0.0f, 100.0f);
 1695              		.loc 1 405 24 is_stmt 0 view .LVU521
 1696 00c2 9FED3D8A 		vldr.32	s16, .L134+20
 1697 00c6 9FED3D1A 		vldr.32	s2, .L134+24
 1698 00ca F0EE480A 		vmov.f32	s1, s16
 1699 00ce 9FED3C0A 		vldr.32	s0, .L134+28
 1700 00d2 FFF7FEFF 		bl	clampf
 1701              	.LVL142:
 406:Core/Src/drive.c ****             Motor_Left ((int8_t)(lt + 0.5f));
 1702              		.loc 1 406 13 is_stmt 1 view .LVU522
 407:Core/Src/drive.c ****             Motor_Right((int8_t)(rt + 0.5f));
 1703              		.loc 1 407 13 view .LVU523
 407:Core/Src/drive.c ****             Motor_Right((int8_t)(rt + 0.5f));
 1704              		.loc 1 407 37 is_stmt 0 view .LVU524
 1705 00d6 F6EE007A 		vmov.f32	s15, #5.0e-1
 1706 00da 30EE270A 		vadd.f32	s0, s0, s15
 1707              	.LVL143:
 407:Core/Src/drive.c ****             Motor_Right((int8_t)(rt + 0.5f));
 1708              		.loc 1 407 25 view .LVU525
 1709 00de FDEEC07A 		vcvt.s32.f32	s15, s0
 1710 00e2 CDED017A 		vstr.32	s15, [sp, #4]	@ int
 1711 00e6 9DF90450 		ldrsb	r5, [sp, #4]
 407:Core/Src/drive.c ****             Motor_Right((int8_t)(rt + 0.5f));
 1712              		.loc 1 407 13 view .LVU526
 1713 00ea 2846     		mov	r0, r5
 1714 00ec FFF7FEFF 		bl	Motor_Left
 1715              	.LVL144:
 408:Core/Src/drive.c ****             dbg.steer  = 0.0f;
 1716              		.loc 1 408 13 is_stmt 1 view .LVU527
 1717 00f0 2846     		mov	r0, r5
 1718 00f2 FFF7FEFF 		bl	Motor_Right
 1719              	.LVL145:
 409:Core/Src/drive.c ****             dbg.duty_l = (int16_t)(lt + 0.5f);
 1720              		.loc 1 409 13 view .LVU528
 409:Core/Src/drive.c ****             dbg.duty_l = (int16_t)(lt + 0.5f);
 1721              		.loc 1 409 24 is_stmt 0 view .LVU529
 1722 00f6 84ED018A 		vstr.32	s16, [r4, #4]
 410:Core/Src/drive.c ****             dbg.duty_r = (int16_t)(rt + 0.5f);
 1723              		.loc 1 410 13 is_stmt 1 view .LVU530
 410:Core/Src/drive.c ****             dbg.duty_r = (int16_t)(rt + 0.5f);
 1724              		.loc 1 410 26 is_stmt 0 view .LVU531
 1725 00fa BDF90430 		ldrsh	r3, [sp, #4]
 410:Core/Src/drive.c ****             dbg.duty_r = (int16_t)(rt + 0.5f);
 1726              		.loc 1 410 24 view .LVU532
 1727 00fe 2381     		strh	r3, [r4, #8]	@ movhi
 411:Core/Src/drive.c ****             return;
 1728              		.loc 1 411 13 is_stmt 1 view .LVU533
 411:Core/Src/drive.c ****             return;
 1729              		.loc 1 411 24 is_stmt 0 view .LVU534
 1730 0100 6381     		strh	r3, [r4, #10]	@ movhi
 412:Core/Src/drive.c ****         }
 1731              		.loc 1 412 13 is_stmt 1 view .LVU535
 1732 0102 44E0     		b	.L105
 1733              	.LVL146:
 1734              	.L114:
 412:Core/Src/drive.c ****         }
 1735              		.loc 1 412 13 is_stmt 0 view .LVU536
ARM GAS  C:\Users\user\AppData\Local\Temp\cc6kGr5c.s 			page 44


 1736              	.LBE45:
 1737              	.LBE48:
 421:Core/Src/drive.c ****     dbg.graze = graze;
 1738              		.loc 1 421 5 is_stmt 1 view .LVU537
 422:Core/Src/drive.c **** 
 1739              		.loc 1 422 5 view .LVU538
 422:Core/Src/drive.c **** 
 1740              		.loc 1 422 15 is_stmt 0 view .LVU539
 1741 0104 0020     		movs	r0, #0
 1742 0106 294B     		ldr	r3, .L134+8
 1743 0108 83F82000 		strb	r0, [r3, #32]
 427:Core/Src/drive.c ****     {
 1744              		.loc 1 427 5 is_stmt 1 view .LVU540
 1745              	.LVL147:
 1746              	.L117:
 435:Core/Src/drive.c ****         if (left_open || right_open || asym) { corner_enter(in); return; }
 436:Core/Src/drive.c ****         /* ВќЉВИА вІц в▓й + вїђВ╣Г = Вйћвёѕ ВЋёвІў(вДЅьъў/ВІцьЉюВаЂ) Рєњ ВЋёвъў ВаЋвЕ┤ ьЎЋВаЋ Ж▓їВЮ
 437:Core/Src/drive.c ****     }
 438:Core/Src/drive.c **** 
 439:Core/Src/drive.c ****     /* 3) РўЁ[req1] ВаЋвЕ┤ ВъЦВЋавг╝ ьЎЋВаЋ Ж▓їВЮ┤ьіИ: f<TURNВЮ┤вЮ╝вЈё ЖиИваѕВЮ┤ВДЋ/ВХЋВЮ┤ьЃѕвАю Вё
 440:Core/Src/drive.c ****           ЖиИваѕВЮ┤ВДЋ ВЋёвІї ВДёВДю Жи╝ВаЉВЮ┤ FRONT_CONFIRM_Nьџї ВЌ░ВєЇВЮ╝ вЋївДї BRAKE. grazeвіћ 
 441:Core/Src/drive.c ****     if (in->f < FRONT_TURN_CM && in->f_valid)
 1747              		.loc 1 441 5 view .LVU541
 1748              		.loc 1 441 11 is_stmt 0 view .LVU542
 1749 010c 2388     		ldrh	r3, [r4]
 1750              		.loc 1 441 8 view .LVU543
 1751 010e 1D2B     		cmp	r3, #29
 1752 0110 29D8     		bhi	.L120
 1753              		.loc 1 441 36 discriminator 1 view .LVU544
 1754 0112 A379     		ldrb	r3, [r4, #6]	@ zero_extendqisi2
 1755              		.loc 1 441 31 discriminator 1 view .LVU545
 1756 0114 3BB3     		cbz	r3, .L120
 442:Core/Src/drive.c ****     {
 443:Core/Src/drive.c ****         if (graze)
 1757              		.loc 1 443 9 is_stmt 1 view .LVU546
 1758              		.loc 1 443 12 is_stmt 0 view .LVU547
 1759 0116 A8B1     		cbz	r0, .L121
 444:Core/Src/drive.c ****         {
 445:Core/Src/drive.c ****             front_near_cnt = 0;   /* Ж░ђВДю ВЮўВІг Рєњ В╣┤Вџ┤ьіИ вдгВЁІ, Вё╝ьё░вДЂ/ВИАвЕ┤ьџїьћ╝ВЌљ 
 1760              		.loc 1 445 13 is_stmt 1 view .LVU548
 1761              		.loc 1 445 28 is_stmt 0 view .LVU549
 1762 0118 2A4B     		ldr	r3, .L134+32
 1763 011a 0022     		movs	r2, #0
 1764 011c 1A70     		strb	r2, [r3]
 1765 011e 25E0     		b	.L122
 1766              	.LVL148:
 1767              	.L115:
 421:Core/Src/drive.c ****     dbg.graze = graze;
 1768              		.loc 1 421 59 discriminator 3 view .LVU550
 1769 0120 2046     		mov	r0, r4
 1770 0122 FFF7FEFF 		bl	front_graze_suspected
 1771              	.LVL149:
 421:Core/Src/drive.c ****     dbg.graze = graze;
 1772              		.loc 1 421 13 view .LVU551
 1773 0126 ABE7     		b	.L116
 1774              	.LVL150:
 1775              	.L127:
ARM GAS  C:\Users\user\AppData\Local\Temp\cc6kGr5c.s 			page 45


 1776              	.LBB49:
 433:Core/Src/drive.c ****                        (in->r >= (uint16_t)(in->l + CORNER_ASYM_CM));
 1777              		.loc 1 433 70 discriminator 3 view .LVU552
 1778 0128 0123     		movs	r3, #1
 1779              	.L118:
 433:Core/Src/drive.c ****                        (in->r >= (uint16_t)(in->l + CORNER_ASYM_CM));
 1780              		.loc 1 433 17 discriminator 6 view .LVU553
 1781 012a DBB2     		uxtb	r3, r3
 1782              	.LVL151:
 435:Core/Src/drive.c ****         /* ВќЉВИА вІц в▓й + вїђВ╣Г = Вйћвёѕ ВЋёвІў(вДЅьъў/ВІцьЉюВаЂ) Рєњ ВЋёвъў ВаЋвЕ┤ ьЎЋВаЋ Ж▓їВЮ
 1783              		.loc 1 435 9 is_stmt 1 view .LVU554
 435:Core/Src/drive.c ****         /* ВќЉВИА вІц в▓й + вїђВ╣Г = Вйћвёѕ ВЋёвІў(вДЅьъў/ВІцьЉюВаЂ) Рєњ ВЋёвъў ВаЋвЕ┤ ьЎЋВаЋ Ж▓їВЮ
 1784              		.loc 1 435 12 is_stmt 0 view .LVU555
 1785 012c 1B2A     		cmp	r2, #27
 1786 012e 03D8     		bhi	.L119
 435:Core/Src/drive.c ****         /* ВќЉВИА вІц в▓й + вїђВ╣Г = Вйћвёѕ ВЋёвІў(вДЅьъў/ВІцьЉюВаЂ) Рєњ ВЋёвъў ВаЋвЕ┤ ьЎЋВаЋ Ж▓їВЮ
 1787              		.loc 1 435 23 discriminator 2 view .LVU556
 1788 0130 1B29     		cmp	r1, #27
 1789 0132 01D8     		bhi	.L119
 435:Core/Src/drive.c ****         /* ВќЉВИА вІц в▓й + вїђВ╣Г = Вйћвёѕ ВЋёвІў(вДЅьъў/ВІцьЉюВаЂ) Рєњ ВЋёвъў ВаЋвЕ┤ ьЎЋВаЋ Ж▓їВЮ
 1790              		.loc 1 435 37 discriminator 4 view .LVU557
 1791 0134 002B     		cmp	r3, #0
 1792 0136 E9D0     		beq	.L117
 1793              	.L119:
 435:Core/Src/drive.c ****         /* ВќЉВИА вІц в▓й + вїђВ╣Г = Вйћвёѕ ВЋёвІў(вДЅьъў/ВІцьЉюВаЂ) Рєњ ВЋёвъў ВаЋвЕ┤ ьЎЋВаЋ Ж▓їВЮ
 1794              		.loc 1 435 48 is_stmt 1 discriminator 5 view .LVU558
 1795 0138 2046     		mov	r0, r4
 1796              	.LVL152:
 435:Core/Src/drive.c ****         /* ВќЉВИА вІц в▓й + вїђВ╣Г = Вйћвёѕ ВЋёвІў(вДЅьъў/ВІцьЉюВаЂ) Рєњ ВЋёвъў ВаЋвЕ┤ ьЎЋВаЋ Ж▓їВЮ
 1797              		.loc 1 435 48 is_stmt 0 discriminator 5 view .LVU559
 1798 013a FFF7FEFF 		bl	corner_enter
 1799              	.LVL153:
 435:Core/Src/drive.c ****         /* ВќЉВИА вІц в▓й + вїђВ╣Г = Вйћвёѕ ВЋёвІў(вДЅьъў/ВІцьЉюВаЂ) Рєњ ВЋёвъў ВаЋвЕ┤ ьЎЋВаЋ Ж▓їВЮ
 1800              		.loc 1 435 66 is_stmt 1 discriminator 1 view .LVU560
 435:Core/Src/drive.c ****         /* ВќЉВИА вІц в▓й + вїђВ╣Г = Вйћвёѕ ВЋёвІў(вДЅьъў/ВІцьЉюВаЂ) Рєњ ВЋёвъў ВаЋвЕ┤ ьЎЋВаЋ Ж▓їВЮ
 1801              		.loc 1 435 66 is_stmt 0 view .LVU561
 1802 013e 26E0     		b	.L105
 1803              	.LVL154:
 1804              	.L128:
 433:Core/Src/drive.c ****                        (in->r >= (uint16_t)(in->l + CORNER_ASYM_CM));
 1805              		.loc 1 433 70 discriminator 4 view .LVU562
 1806 0140 0023     		movs	r3, #0
 1807 0142 F2E7     		b	.L118
 1808              	.LVL155:
 1809              	.L121:
 433:Core/Src/drive.c ****                        (in->r >= (uint16_t)(in->l + CORNER_ASYM_CM));
 1810              		.loc 1 433 70 discriminator 4 view .LVU563
 1811              	.LBE49:
 446:Core/Src/drive.c ****         }
 447:Core/Src/drive.c ****         else if (front_near_cnt < 255 && ++front_near_cnt >= FRONT_CONFIRM_N)
 1812              		.loc 1 447 14 is_stmt 1 view .LVU564
 1813              		.loc 1 447 33 is_stmt 0 view .LVU565
 1814 0144 1F4B     		ldr	r3, .L134+32
 1815 0146 1B78     		ldrb	r3, [r3]	@ zero_extendqisi2
 1816              		.loc 1 447 17 view .LVU566
 1817 0148 FF2B     		cmp	r3, #255
 1818 014a 0FD0     		beq	.L122
ARM GAS  C:\Users\user\AppData\Local\Temp\cc6kGr5c.s 			page 46


 1819              		.loc 1 447 42 discriminator 1 view .LVU567
 1820 014c 0133     		adds	r3, r3, #1
 1821 014e DBB2     		uxtb	r3, r3
 1822              		.loc 1 447 39 discriminator 1 view .LVU568
 1823 0150 1C4A     		ldr	r2, .L134+32
 1824 0152 1370     		strb	r3, [r2]
 1825 0154 022B     		cmp	r3, #2
 1826 0156 09D9     		bls	.L122
 448:Core/Src/drive.c ****         {
 449:Core/Src/drive.c ****             dbg.front_near = front_near_cnt;
 1827              		.loc 1 449 13 is_stmt 1 view .LVU569
 1828              		.loc 1 449 28 is_stmt 0 view .LVU570
 1829 0158 144A     		ldr	r2, .L134+8
 1830 015a 82F82130 		strb	r3, [r2, #33]
 450:Core/Src/drive.c ****             brake_enter(in);      /* ВДёВДю ВаЋвЕ┤в▓й ьЎЋВаЋ Рєњ віЦвЈЎ ВаювЈЎ Рєњ brake_runВЮ┤ REV
 1831              		.loc 1 450 13 is_stmt 1 view .LVU571
 1832 015e 2046     		mov	r0, r4
 1833 0160 FFF7FEFF 		bl	brake_enter
 1834              	.LVL156:
 451:Core/Src/drive.c ****             return;
 1835              		.loc 1 451 13 view .LVU572
 1836 0164 13E0     		b	.L105
 1837              	.L120:
 452:Core/Src/drive.c ****         }
 453:Core/Src/drive.c ****     }
 454:Core/Src/drive.c ****     else
 455:Core/Src/drive.c ****     {
 456:Core/Src/drive.c ****         front_near_cnt = 0;       /* ВаЋвЕ┤ ьіИВъё вўљвіћ вг┤ьџе ВИАВаЋ Рєњ вдгВЁІ */
 1838              		.loc 1 456 9 view .LVU573
 1839              		.loc 1 456 24 is_stmt 0 view .LVU574
 1840 0166 174B     		ldr	r3, .L134+32
 1841 0168 0022     		movs	r2, #0
 1842 016a 1A70     		strb	r2, [r3]
 1843              	.L122:
 457:Core/Src/drive.c ****     }
 458:Core/Src/drive.c ****     dbg.front_near = front_near_cnt;
 1844              		.loc 1 458 5 is_stmt 1 view .LVU575
 1845              		.loc 1 458 20 is_stmt 0 view .LVU576
 1846 016c 154B     		ldr	r3, .L134+32
 1847 016e 1A78     		ldrb	r2, [r3]	@ zero_extendqisi2
 1848 0170 0E4B     		ldr	r3, .L134+8
 1849 0172 83F82120 		strb	r2, [r3, #33]
 459:Core/Src/drive.c **** 
 460:Core/Src/drive.c ****     if (!in->side_valid)
 1850              		.loc 1 460 5 is_stmt 1 view .LVU577
 1851              		.loc 1 460 12 is_stmt 0 view .LVU578
 1852 0176 E379     		ldrb	r3, [r4, #7]	@ zero_extendqisi2
 1853              		.loc 1 460 8 view .LVU579
 1854 0178 6BB1     		cbz	r3, .L132
 461:Core/Src/drive.c ****     {
 462:Core/Src/drive.c ****         /* early front-only ьћёваѕВъёВЮђ stale l/rвАю Вйћвёѕ/ВИАвЕ┤ьџїьћ╝/Вё╝ьё░вДЂ ьїљвІеВЮё ьЋўВД
 463:Core/Src/drive.c ****          * full ьћёваѕВъёВЮ┤ Ж│Д вЈёВ░ЕьЋўв»ђвАю ЖиИ ВаёЖ╣їВДђвіћ ВЋѕВаёьЋўЖ▓ї ВйћВіцьіИ ВаЋВДђ. */
 464:Core/Src/drive.c ****         Car_Stop();
 465:Core/Src/drive.c ****         return;
 466:Core/Src/drive.c ****     }
 467:Core/Src/drive.c **** 
 468:Core/Src/drive.c ****     /* 4) ВИАвЕ┤ в░ЋЖИ░ВДЂВаё Рєњ в╣ёВЃЂ ьџїьћ╝(вЕѕВХц+ьћ╝в▓Ќ). ВА░ьќЦВю╝вАа вф╗ вДЅвіћ ВИАв▓й ЖИЂь
ARM GAS  C:\Users\user\AppData\Local\Temp\cc6kGr5c.s 			page 47


 469:Core/Src/drive.c ****     uint16_t smin = (in->l < in->r) ? in->l : in->r;
 1855              		.loc 1 469 5 is_stmt 1 view .LVU580
 1856              		.loc 1 469 32 is_stmt 0 view .LVU581
 1857 017a A388     		ldrh	r3, [r4, #4]
 1858              		.loc 1 469 24 view .LVU582
 1859 017c 6288     		ldrh	r2, [r4, #2]
 1860              		.loc 1 469 14 view .LVU583
 1861 017e 9342     		cmp	r3, r2
 1862 0180 28BF     		it	cs
 1863 0182 1346     		movcs	r3, r2
 1864              	.LVL157:
 470:Core/Src/drive.c ****     if (smin < SIDE_AVOID_CM) { side_avoid_enter(in); return; }
 1865              		.loc 1 470 5 is_stmt 1 view .LVU584
 1866              		.loc 1 470 8 is_stmt 0 view .LVU585
 1867 0184 032B     		cmp	r3, #3
 1868 0186 09D9     		bls	.L133
 471:Core/Src/drive.c **** 
 472:Core/Src/drive.c ****     /* 5) Вё╝ьё░вДЂ PD ВДЂВДё ВБ╝ьќЅ */
 473:Core/Src/drive.c ****     Drive_CenteringPD_Run(in);
 1869              		.loc 1 473 5 is_stmt 1 view .LVU586
 1870 0188 2046     		mov	r0, r4
 1871 018a FFF7FEFF 		bl	Drive_CenteringPD_Run
 1872              	.LVL158:
 474:Core/Src/drive.c ****     return;
 1873              		.loc 1 474 5 view .LVU587
 1874              	.L105:
 475:Core/Src/drive.c **** }
 1875              		.loc 1 475 1 is_stmt 0 view .LVU588
 1876 018e 03B0     		add	sp, sp, #12
 1877              	.LCFI15:
 1878              		.cfi_remember_state
 1879              		.cfi_def_cfa_offset 20
 1880              		@ sp needed
 1881 0190 BDEC028B 		vldm	sp!, {d8}
 1882              	.LCFI16:
 1883              		.cfi_restore 80
 1884              		.cfi_restore 81
 1885              		.cfi_def_cfa_offset 12
 1886 0194 30BD     		pop	{r4, r5, pc}
 1887              	.LVL159:
 1888              	.L132:
 1889              	.LCFI17:
 1890              		.cfi_restore_state
 464:Core/Src/drive.c ****         return;
 1891              		.loc 1 464 9 is_stmt 1 view .LVU589
 1892 0196 FFF7FEFF 		bl	Car_Stop
 1893              	.LVL160:
 465:Core/Src/drive.c ****     }
 1894              		.loc 1 465 9 view .LVU590
 1895 019a F8E7     		b	.L105
 1896              	.LVL161:
 1897              	.L133:
 470:Core/Src/drive.c **** 
 1898              		.loc 1 470 33 discriminator 1 view .LVU591
 1899 019c 2046     		mov	r0, r4
 1900 019e FFF7FEFF 		bl	side_avoid_enter
 1901              	.LVL162:
ARM GAS  C:\Users\user\AppData\Local\Temp\cc6kGr5c.s 			page 48


 470:Core/Src/drive.c **** 
 1902              		.loc 1 470 55 discriminator 1 view .LVU592
 470:Core/Src/drive.c **** 
 1903              		.loc 1 470 55 is_stmt 0 view .LVU593
 1904 01a2 F4E7     		b	.L105
 1905              	.L135:
 1906              		.align	2
 1907              	.L134:
 1908 01a4 00000000 		.word	launching
 1909 01a8 00000000 		.word	t_launch
 1910 01ac 00000000 		.word	dbg
 1911 01b0 00000000 		.word	h_ref
 1912 01b4 00000000 		.word	h_prev
 1913 01b8 00000000 		.word	0
 1914 01bc 0000C842 		.word	1120403456
 1915 01c0 00003042 		.word	1110441984
 1916 01c4 00000000 		.word	front_near_cnt
 1917              		.cfi_endproc
 1918              	.LFE149:
 1920              		.section	.text.hold_run,"ax",%progbits
 1921              		.align	1
 1922              		.syntax unified
 1923              		.thumb
 1924              		.thumb_func
 1926              	hold_run:
 1927              	.LVL163:
 1928              	.LFB154:
 476:Core/Src/drive.c **** 
 477:Core/Src/drive.c **** /* BRAKE: BRAKE_MS вЈЎВЋѕ вІевЮй ВаювЈЎ ВюаВДђ Рєњ ьЋ┤Ваю ьЏё вДЅвІцвЦИЖ││ВЮ┤вЕ┤ REVERSE, ВЋёвІѕвЕ┤
 478:Core/Src/drive.c **** static void brake_run(const DriveInputs *in)
 479:Core/Src/drive.c **** {
 480:Core/Src/drive.c ****     if ((in->now - t_state) < (uint32_t)BRAKE_MS) return;   /* ВаювЈЎ ВюаВДђ ВцЉ */
 481:Core/Src/drive.c **** 
 482:Core/Src/drive.c ****     Car_Stop();   /* вІевЮй ВаювЈЎ ьЋ┤Ваю */
 483:Core/Src/drive.c **** 
 484:Core/Src/drive.c ****     if (!in->side_valid)
 485:Core/Src/drive.c ****         return;   /* вДЅвІцвЦИЖИИ/ьџїВаёв░ЕьќЦ ьїљвІеВЮђ ВІаВёаьЋю ВИАвЕ┤Ж░њВЮ┤ Вўг вЋїЖ╣їВДђ в│┤вЦ
 486:Core/Src/drive.c **** 
 487:Core/Src/drive.c ****     uint8_t dead_end = (in->f < FRONT_DANGER_CM &&
 488:Core/Src/drive.c ****                         in->l < SIDE_BLOCK_CM   &&
 489:Core/Src/drive.c ****                         in->r < SIDE_BLOCK_CM);
 490:Core/Src/drive.c ****     if (dead_end && rev_cnt < REV_MAX_CHUNKS)
 491:Core/Src/drive.c ****         reverse_enter(in);
 492:Core/Src/drive.c ****     else
 493:Core/Src/drive.c ****         spin_enter(in, (rev_cnt > 0));   /* ьЏёВДёВЮё Ж▒░В│цВю╝вЕ┤ вЈЎвЦа ВІю в░ўвїђВфй ВІювЈё */
 494:Core/Src/drive.c **** }
 495:Core/Src/drive.c **** 
 496:Core/Src/drive.c **** /* SPIN: ВаюВъљвдг ьџїВаё(ВаёВДё ВЮ┤вЈЎ 0). вДц вБеьћё Вё╝Вёю Ж░▒ВІаьЋўвЕ░ ьЃѕВХюЖ░Ђ/Віцьё▒/ьЃђВъёВ
 497:Core/Src/drive.c **** static void spin_run(const DriveInputs *in)
 498:Core/Src/drive.c **** {
 499:Core/Src/drive.c ****     /* вДЅвІцвЦИ Ж││ Рєњ ьЏёВДё (chunk ВўѕВѓ░ вѓ┤ВЌљВёювДї) */
 500:Core/Src/drive.c ****     if (in->side_valid
 501:Core/Src/drive.c ****         && in->f < FRONT_DANGER_CM && in->l < SIDE_BLOCK_CM && in->r < SIDE_BLOCK_CM
 502:Core/Src/drive.c ****         && rev_cnt < REV_MAX_CHUNKS)
 503:Core/Src/drive.c ****     {
 504:Core/Src/drive.c ****         reverse_enter(in);
 505:Core/Src/drive.c ****         return;
ARM GAS  C:\Users\user\AppData\Local\Temp\cc6kGr5c.s 			page 49


 506:Core/Src/drive.c ****     }
 507:Core/Src/drive.c **** 
 508:Core/Src/drive.c ****     if (in->imu_live)
 509:Core/Src/drive.c ****     {
 510:Core/Src/drive.c ****         if (!h_entry_valid)
 511:Core/Src/drive.c ****         {
 512:Core/Src/drive.c ****             h_entry = in->heading;
 513:Core/Src/drive.c ****             h_stuck = in->heading;
 514:Core/Src/drive.c ****             t_stuck = in->now;
 515:Core/Src/drive.c ****             h_entry_valid = 1U;
 516:Core/Src/drive.c ****         }
 517:Core/Src/drive.c ****         dbg.spin_deg = wrap180(in->heading - h_entry);
 518:Core/Src/drive.c **** 
 519:Core/Src/drive.c ****         /* Віцьё▒: ROT_STUCK_MS ВюѕвЈё вЈЎВЋѕ ьџїВаё вфЁва╣ВЌљвЈё heading ВаЋВ▓┤ Рєњ в░ћьђ┤ ьЌЏвЈј/
 520:Core/Src/drive.c ****         if ((in->now - t_stuck) >= (uint32_t)ROT_STUCK_MS)
 521:Core/Src/drive.c ****         {
 522:Core/Src/drive.c ****             if (fabsf(wrap180(in->heading - h_stuck)) < ROT_STUCK_DEG
 523:Core/Src/drive.c ****                 && rev_cnt < REV_MAX_CHUNKS)
 524:Core/Src/drive.c ****             {
 525:Core/Src/drive.c ****                 reverse_enter(in);
 526:Core/Src/drive.c ****                 return;
 527:Core/Src/drive.c ****             }
 528:Core/Src/drive.c ****             h_stuck = in->heading;
 529:Core/Src/drive.c ****             t_stuck = in->now;
 530:Core/Src/drive.c ****         }
 531:Core/Src/drive.c ****     }
 532:Core/Src/drive.c **** 
 533:Core/Src/drive.c ****     /* ьЃђВъёВЋёВЏЃ в░▒Віцьє▒ (IMU ВѓгвДЮ ВІю Віцьё▒ В╗цв▓ё): ьЏёВДё ВўѕВѓ░ ВъѕВю╝вЕ┤ ьЏёВДё, ВЌєВю
 534:Core/Src/drive.c ****     if ((in->now - t_state) > (uint32_t)SPIN_MAX_MS)
 535:Core/Src/drive.c ****     {
 536:Core/Src/drive.c ****         if (rev_cnt < REV_MAX_CHUNKS) { reverse_enter(in); return; }
 537:Core/Src/drive.c ****         turn_dir ^= 1;
 538:Core/Src/drive.c ****         t_state = in->now;
 539:Core/Src/drive.c ****         h_entry = in->heading;
 540:Core/Src/drive.c ****         h_entry_valid = in->imu_live;
 541:Core/Src/drive.c ****     }
 542:Core/Src/drive.c **** 
 543:Core/Src/drive.c ****     /* в░ЕьќЦ ВъгьЈЅЖ░ђ: ВхюВєїВюаВДђ(SPIN_COMMIT_MS) ьЏё, въўВ╣ўВфй вДЅьъў && в░ўвїђВфй SIDE_HYST 
 544:Core/Src/drive.c ****     if (in->side_valid && (in->now - t_state) >= (uint32_t)SPIN_COMMIT_MS && swap_cnt < SWAP_LIMIT)
 545:Core/Src/drive.c ****     {
 546:Core/Src/drive.c ****         uint16_t latched = (turn_dir == 0) ? in->l : in->r;
 547:Core/Src/drive.c ****         uint16_t other   = (turn_dir == 0) ? in->r : in->l;
 548:Core/Src/drive.c ****         if (latched < SIDE_BLOCK_CM && other > (uint16_t)(latched + SIDE_HYST))
 549:Core/Src/drive.c ****         {
 550:Core/Src/drive.c ****             turn_dir ^= 1;
 551:Core/Src/drive.c ****             swap_cnt++;
 552:Core/Src/drive.c ****             t_state = in->now;
 553:Core/Src/drive.c ****             h_entry = in->heading;
 554:Core/Src/drive.c ****             h_entry_valid = in->imu_live;
 555:Core/Src/drive.c ****         }
 556:Core/Src/drive.c ****     }
 557:Core/Src/drive.c **** 
 558:Core/Src/drive.c ****     /* [req4] ьўёВъг leg ВаЋв░ЕьќЦ(course_heading) вїђв╣ё ьјИВ░е Рђћ ВЌГв░ЕьќЦ(РЅЦCOURSE_REV_DEG)ВЮ
 559:Core/Src/drive.c ****        imu ВѓгвДЮ ВІю heading вг┤ВЮўв»И Рєњ Ж▓їВЮ┤ьіИ в╣ёьЎюВё▒(fwd_ok=1)вАю вЇ░вЊювЮй в░ЕВДђ(вИћвЮ
 560:Core/Src/drive.c ****     float course_dev = in->imu_live ? fabsf(wrap180(in->heading - course_heading)) : 0.0f;
 561:Core/Src/drive.c ****     dbg.course_dev   = course_dev;
 562:Core/Src/drive.c ****     dbg.reverse      = (in->imu_live && course_dev >= COURSE_REV_DEG) ? 1U : 0U;
ARM GAS  C:\Users\user\AppData\Local\Temp\cc6kGr5c.s 			page 50


 563:Core/Src/drive.c ****     uint8_t fwd_ok   = (!in->imu_live || course_dev < COURSE_REV_DEG);   /* ВаЋв░ЕьќЦ(вўљвіћ IMUВѓг
 564:Core/Src/drive.c **** 
 565:Core/Src/drive.c ****     /* ьЃѕВХю Рєњ CRUISE: ВаЋвЕ┤ ьіИВъёВЮ┤ 'Вюаьџе ВИАВаЋВю╝вАю' CLEAR_CONFIRMьџї ВЌ░ВєЇ
 566:Core/Src/drive.c ****        + (IMU ВІю) ВДёВъЁ вїђв╣ё TURN_MIN_DEG ВЮ┤ВЃЂ ьџїВаё Рђћ Ж▓йВѓгв▓й specular Ж░ђВДю-ьіИВъё ВА
 567:Core/Src/drive.c ****        + [req4] ВаЋв░ЕьќЦ(fwd_ok) Рђћ вњцЖ░ђ вџФвацвЈё ВЌГв░ЕьќЦВЮ┤вЕ┤ ьЃѕВХю ЖИѕВДђ */
 568:Core/Src/drive.c ****     if (in->f >= FRONT_CLEAR_CM && in->f_valid)
 569:Core/Src/drive.c ****     {
 570:Core/Src/drive.c ****         if (clear_cnt < 255) clear_cnt++;
 571:Core/Src/drive.c ****         if (clear_cnt >= CLEAR_CONFIRM && fwd_ok &&
 572:Core/Src/drive.c ****             (!in->imu_live || (h_entry_valid && fabsf(wrap180(in->heading - h_entry)) >= TURN_MIN_D
 573:Core/Src/drive.c ****         {
 574:Core/Src/drive.c ****             cruise_enter(in);
 575:Core/Src/drive.c ****             return;
 576:Core/Src/drive.c ****         }
 577:Core/Src/drive.c ****     }
 578:Core/Src/drive.c ****     else if (in->f < FRONT_CLEAR_CM)
 579:Core/Src/drive.c ****     {
 580:Core/Src/drive.c ****         clear_cnt = 0;   /* вг┤ьџе ВИАВаЋ(f_valid=0)ВЮђ вдгВЁІвЈё Ж░ђВѓ░вЈё ВЋѕ ьЋе Рђћ ВДЂВаё В╣┤В
 581:Core/Src/drive.c ****     }
 582:Core/Src/drive.c **** 
 583:Core/Src/drive.c ****     /* РўЁьћ╝в▓Ќ ьџїВаёЖ░Ђ ВЎёвБї ьЃѕВХю(ВДДВЮђ в»ИвАю в│хвЈё вїђВЮЉ): ВаЋвЕ┤ВЮ┤ FRONT_CLEARЖ╣їВДђ 
 584:Core/Src/drive.c ****        (~90┬░) вЈїВЋўЖ│а ьўёВъг ВаЋвЕ┤ВЮ┤ в▓йВЮ┤ ВЋёвІў(РЅЦFRONT_TURN_CM)ВЮ┤вЕ┤ ВДёьќЅ. ВбЂВЮђ в░ЋВ
 585:Core/Src/drive.c ****        ВЋѕ ьіИВЮ┤віћ ВйћвёѕВЌљВёювЈё ьЋю в▓ѕвДї Ж╣ћвЂћьъѕ Ж║ЙЖ│а в╣аВаИвѓўЖ░ђЖ▓ї ьЋе(Ж│╝ьџїВаё/ВаюВ
 586:Core/Src/drive.c ****     if (in->imu_live && h_entry_valid && in->f_valid && fwd_ok
 587:Core/Src/drive.c ****         && fabsf(wrap180(in->heading - h_entry)) >= TURN_TARGET_DEG
 588:Core/Src/drive.c ****         && in->f >= FRONT_TURN_CM)
 589:Core/Src/drive.c ****     {
 590:Core/Src/drive.c ****         cruise_enter(in);
 591:Core/Src/drive.c ****         return;
 592:Core/Src/drive.c ****     }
 593:Core/Src/drive.c **** 
 594:Core/Src/drive.c ****     /* РўЁ[req1] Ж│╝ьџїВаё/ВЌГВБ╝ьќЅ В╗иВўцьћё: TURN_TARGET ьЏёВЌљвЈё ВаЋвЕ┤ВЮ┤ ВЋѕ ьіИВЌг(f<FRONT_
 595:Core/Src/drive.c ****        вф╗ ьЋўвЕ┤, вѕёВаЂ ьџїВаёЖ░ЂВЮ┤ TURN_CUTOFF_DEG(>target) В┤ѕЖ│╝ ВІю 'ВаЋвЕ┤ Ж▒░вдг ВА░Ж▒┤ВЮё
 596:Core/Src/drive.c ****        ВбЁвБї Рєњ CRUISE. ВбЂВЮђ в»ИвАюВёю 90┬░ Ж║ЙВќ┤вЈё ВаёвЕ┤в▓й<FRONT_TURNВЮ┤вЮ╝ вг┤ьЋю ВіцьЋђР
 597:Core/Src/drive.c ****        в│хЖиђ ьЏё cruise_runВЮ┤ (ВИАвЕ┤ ьіИВъё ВъѕВю╝вЕ┤)ВЋёьЂг / (вДЅьъўВЮ┤вЕ┤)ВъгВаювЈЎВю╝вАю Въг
 598:Core/Src/drive.c ****        Ж│╝ьџїВаёвДї вЂіЖ│а ьїљвІеВЮђ вЕћВЮИ Вџ░ВёаВѕюВюёВЌљ ВюёВъё. imu_liveВЮ╝ вЋївДї(Ж░ЂвЈё ьЋёВџ
 599:Core/Src/drive.c ****     if (in->imu_live && h_entry_valid && fwd_ok
 600:Core/Src/drive.c ****         && fabsf(wrap180(in->heading - h_entry)) >= TURN_CUTOFF_DEG)
 601:Core/Src/drive.c ****     {
 602:Core/Src/drive.c ****         cruise_enter(in);
 603:Core/Src/drive.c ****         return;
 604:Core/Src/drive.c ****     }
 605:Core/Src/drive.c **** 
 606:Core/Src/drive.c ****     /* РўЁ[fix] вИћвЮ╝ВЮИвЊю/В┤Ю ВіцьЋђ ВІюЖ░ёВ╗и (IMU вг┤Ж┤ђ): вфеьё░ ВЮИвЪгВІю I2C ЖИђвдгВ╣ўвАю i
 607:Core/Src/drive.c ****        В╗иВўцьћёЖ░ђ ВБйВќ┤ вг┤ьЋю ВіцьЋђРєњ180┬░ ВЌГВБ╝ьќЅ. ВіцьЋђ ВДёВъЁ(t_spin0) ьЏё В┤Ю Ж▓йЖ│╝Ж░
 608:Core/Src/drive.c ****        ВаЋвЕ┤/IMU вг┤Ж┤ђ Ж░ЋВаю ВбЁвБї Рєњ CRUISE ВъгьЈЅЖ░ђ. Ж░ЂвЈёВ╗иВЮў ВІюЖ░ё ьћёвАЮВІю(РЅѕ110┬░
 609:Core/Src/drive.c ****     if ((in->now - t_spin0) >= (uint32_t)SPIN_BLIND_MS && fwd_ok)
 610:Core/Src/drive.c ****     {
 611:Core/Src/drive.c ****         cruise_enter(in);
 612:Core/Src/drive.c ****         return;
 613:Core/Src/drive.c ****     }
 614:Core/Src/drive.c **** 
 615:Core/Src/drive.c ****     /* ьџїВаё вфЁва╣ (вДц вБеьћё ВъгЖ░ђ) */
 616:Core/Src/drive.c ****     if (turn_dir == 0) Car_PivotLeft(TURN_SPEED, TURN_INNER);
 617:Core/Src/drive.c ****     else               Car_PivotRight(TURN_SPEED, TURN_INNER);
 618:Core/Src/drive.c **** }
 619:Core/Src/drive.c **** 
ARM GAS  C:\Users\user\AppData\Local\Temp\cc6kGr5c.s 			page 51


 620:Core/Src/drive.c **** /* [req2] CORNER: ВаёВДёВё▒ ВЋёьЂгвАю Вйћвёѕ ьєхЖ│╝ (ВаюВъљвдг ьћ╝в▓Ќ вїђВІа). вДц вБеьћё Вё╝Вёю Ж░
 621:Core/Src/drive.c ****    - ВЋѕВаё 1: ВЋёьЂгЖ░ђ в░ўЖ▓й ВЋѕВЌљВёю вф╗ вЈїЖ│а ВаЋвЕ┤ ВюёЖИЅ(<STOP) Рєњ BRAKE Рєњ (brake_runВ
 622:Core/Src/drive.c ****    - ВЋѕВаё 2: вДЅвІцвЦИ ьЈгВ╝Њ(ВаЋвЕ┤ danger + ВќЉВИА вДЅьъў) Рєњ BRAKE Рєњ REVERSE
 623:Core/Src/drive.c ****    - ьЃѕВХю A(IMU): ВДёВъЁ вїђв╣ё TURN_TARGET_DEG ьџїВаё + ВаЋвЕ┤ВЮ┤ в▓й ВЋёвІў(РЅЦTURN) Рєњ CRUISE
 624:Core/Src/drive.c ****    - ьЃѕВХю B(ьЈ┤в░▒/IMUВѓгвДЮ): ВаЋвЕ┤ CLEARЖ░ђ CLEAR_CONFIRMьџї ВЌ░ВєЇ Рєњ CRUISE
 625:Core/Src/drive.c ****    - ьЃђВъёВЋёВЏЃ: ARC_MAX_MS В┤ѕЖ│╝(Ж░юьЎюВДђВёю вг┤ьЋюВЋёьЂг в░ЕВДђ) Рєњ BRAKE ьЈ┤в░▒ */
 626:Core/Src/drive.c **** static void corner_run(const DriveInputs *in)
 627:Core/Src/drive.c **** {
 628:Core/Src/drive.c ****     if (in->imu_live && !h_entry_valid)
 629:Core/Src/drive.c ****     {
 630:Core/Src/drive.c ****         h_entry = in->heading;
 631:Core/Src/drive.c ****         h_entry_valid = 1U;
 632:Core/Src/drive.c ****     }
 633:Core/Src/drive.c **** 
 634:Core/Src/drive.c ****     /* ВЋѕВаё 1: ВЋёьЂг ВІцьїе(ВаЋвЕ┤ ВюёЖИЅ) Рєњ ВаЋВДђ ьЏё ВаюВъљвдг ьћ╝в▓ЌВю╝вАю вДѕвг┤вдг */
 635:Core/Src/drive.c ****     if (in->f < FRONT_STOP_CM && in->f_valid) { brake_enter(in); return; }
 636:Core/Src/drive.c **** 
 637:Core/Src/drive.c ****     /* ВЋѕВаё 2: вДЅвІцвЦИ ьЈгВ╝Њ Рєњ ВаЋВДђРєњьЏёВДё(brake_runВЌљВёю dead_end вХёЖИ░) */
 638:Core/Src/drive.c ****     if (in->side_valid && in->f < FRONT_DANGER_CM && in->l < SIDE_BLOCK_CM && in->r < SIDE_BLOCK_CM
 639:Core/Src/drive.c ****     {
 640:Core/Src/drive.c ****         brake_enter(in);
 641:Core/Src/drive.c ****         return;
 642:Core/Src/drive.c ****     }
 643:Core/Src/drive.c **** 
 644:Core/Src/drive.c ****     /* ьЃђВъёВЋёВЏЃ в░▒Віцьє▒ (IMU ВѓгвДЮ + ВаЋвЕ┤ВЮ┤ CLEARЖ╣їВДђ ВЋѕ ьіИВЮ┤віћ Ж░юьЎю Ж│АВёа): ьћ╝
 645:Core/Src/drive.c ****     if ((in->now - t_state) > (uint32_t)ARC_MAX_MS) { brake_enter(in); return; }
 646:Core/Src/drive.c **** 
 647:Core/Src/drive.c ****     /* ьЃѕВХю A (IMU): вфЕьЉюЖ░Ђ ьџїВаё ВЎёвБї + ВаЋвЕ┤ в▓й ВЋёвІў Рєњ ВДЂВДё в│хЖиђ */
 648:Core/Src/drive.c ****     if (in->imu_live && h_entry_valid && in->f_valid
 649:Core/Src/drive.c ****         && fabsf(wrap180(in->heading - h_entry)) >= TURN_TARGET_DEG
 650:Core/Src/drive.c ****         && in->f >= FRONT_TURN_CM)
 651:Core/Src/drive.c ****     {
 652:Core/Src/drive.c ****         cruise_enter(in);
 653:Core/Src/drive.c ****         return;
 654:Core/Src/drive.c ****     }
 655:Core/Src/drive.c **** 
 656:Core/Src/drive.c ****     /* ьЃѕВХю B (ьЈ┤в░▒/IMU ВѓгвДЮ): ВаЋвЕ┤ ьіИВъёВЮ┤ Вюаьџе ВИАВаЋВю╝вАю CLEAR_CONFIRMьџї ВЌ░ВєЇ *
 657:Core/Src/drive.c ****     if (in->f >= FRONT_CLEAR_CM && in->f_valid)
 658:Core/Src/drive.c ****     {
 659:Core/Src/drive.c ****         if (clear_cnt < 255) clear_cnt++;
 660:Core/Src/drive.c ****         if (clear_cnt >= CLEAR_CONFIRM) { cruise_enter(in); return; }
 661:Core/Src/drive.c ****     }
 662:Core/Src/drive.c ****     else if (in->f < FRONT_CLEAR_CM)
 663:Core/Src/drive.c ****     {
 664:Core/Src/drive.c ****         clear_cnt = 0;   /* вг┤ьџе ВИАВаЋВЮђ ВюаВДђ, в▓й ВъгЖи╝ВаЉвДї вдгВЁІ */
 665:Core/Src/drive.c ****     }
 666:Core/Src/drive.c **** 
 667:Core/Src/drive.c ****     /* ВЋёьЂг вфЁва╣ (вДц вБеьћё ВъгЖ░ђ): ВќЉв░ћьђ┤ ВаёВДё, ьіИВЮИ ВфйВю╝вАю Ж│АВёа (ВаёВДёВё▒ = вї
 668:Core/Src/drive.c ****     if (turn_dir == 0) Car_ArcLeft(ARC_OUTER, ARC_INNER);
 669:Core/Src/drive.c ****     else               Car_ArcRight(ARC_OUTER, ARC_INNER);
 670:Core/Src/drive.c **** }
 671:Core/Src/drive.c **** 
 672:Core/Src/drive.c **** /* REVERSE: ьЏёВДё chunk 1ьџї Рєњ ВаювЈЎ Рєњ BRAKEЖ░ђ ВъгьЈЅЖ░ђ (вДЅвІцвЦИЖ││ ВДђВєЇ=ВХћЖ░ђ chunk, 
 673:Core/Src/drive.c **** static void reverse_run(const DriveInputs *in)
 674:Core/Src/drive.c **** {
 675:Core/Src/drive.c ****     if ((in->now - t_state) >= (uint32_t)BACK_CHUNK_MS)
 676:Core/Src/drive.c ****     {
ARM GAS  C:\Users\user\AppData\Local\Temp\cc6kGr5c.s 			page 52


 677:Core/Src/drive.c ****         brake_enter(in);
 678:Core/Src/drive.c ****         return;
 679:Core/Src/drive.c ****     }
 680:Core/Src/drive.c ****     Car_Backward(DRIVE_SPEED);
 681:Core/Src/drive.c **** }
 682:Core/Src/drive.c **** 
 683:Core/Src/drive.c **** /* HOLD: ВаЋвЕ┤ Вё╝Вёю ВЃЂВІц ВЋѕВаёВаЋВДђ. ВЌљВйћ ьџїв│х Рєњ ВдЅВІю в│хЖиђ, ВъЦЖИ░ьЎћ Рєњ SPINВю╝в
 684:Core/Src/drive.c **** static void hold_run(const DriveInputs *in)
 685:Core/Src/drive.c **** {
 1929              		.loc 1 685 1 is_stmt 1 view -0
 1930              		.cfi_startproc
 1931              		@ args = 0, pretend = 0, frame = 0
 1932              		@ frame_needed = 0, uses_anonymous_args = 0
 1933              		.loc 1 685 1 is_stmt 0 view .LVU595
 1934 0000 08B5     		push	{r3, lr}
 1935              	.LCFI18:
 1936              		.cfi_def_cfa_offset 8
 1937              		.cfi_offset 3, -8
 1938              		.cfi_offset 14, -4
 686:Core/Src/drive.c ****     if (in->f_valid)
 1939              		.loc 1 686 5 is_stmt 1 view .LVU596
 1940              		.loc 1 686 11 is_stmt 0 view .LVU597
 1941 0002 8379     		ldrb	r3, [r0, #6]	@ zero_extendqisi2
 1942              		.loc 1 686 8 view .LVU598
 1943 0004 53B9     		cbnz	r3, .L143
 687:Core/Src/drive.c ****     {
 688:Core/Src/drive.c ****         if (in->f < FRONT_STOP_CM) brake_enter(in);
 689:Core/Src/drive.c ****         else                       cruise_enter(in);
 690:Core/Src/drive.c ****         return;
 691:Core/Src/drive.c ****     }
 692:Core/Src/drive.c ****     if ((in->now - t_state) > (uint32_t)HOLD_MAX_MS)
 1944              		.loc 1 692 5 is_stmt 1 view .LVU599
 1945              		.loc 1 692 12 is_stmt 0 view .LVU600
 1946 0006 4369     		ldr	r3, [r0, #20]
 1947              		.loc 1 692 18 view .LVU601
 1948 0008 0B4A     		ldr	r2, .L145
 1949 000a 1268     		ldr	r2, [r2]
 1950 000c 9B1A     		subs	r3, r3, r2
 1951              		.loc 1 692 8 view .LVU602
 1952 000e 40F2DC52 		movw	r2, #1500
 1953 0012 9342     		cmp	r3, r2
 1954 0014 0BD8     		bhi	.L144
 693:Core/Src/drive.c ****     {
 694:Core/Src/drive.c ****         spin_enter(in, 0);   /* ьџїВаёВЮђ вг┤ВЮ┤вЈЎВЮ┤вЮ╝ ВаЋвЕ┤ вИћвЮ╝ВЮИвЊю ВЃЂьЃювАювЈё ВЋѕВаё *
 695:Core/Src/drive.c ****         return;
 696:Core/Src/drive.c ****     }
 697:Core/Src/drive.c ****     Car_Stop();
 1955              		.loc 1 697 5 is_stmt 1 view .LVU603
 1956 0016 FFF7FEFF 		bl	Car_Stop
 1957              	.LVL164:
 1958              	.L136:
 698:Core/Src/drive.c **** }
 1959              		.loc 1 698 1 is_stmt 0 view .LVU604
 1960 001a 08BD     		pop	{r3, pc}
 1961              	.LVL165:
 1962              	.L143:
 688:Core/Src/drive.c ****         else                       cruise_enter(in);
ARM GAS  C:\Users\user\AppData\Local\Temp\cc6kGr5c.s 			page 53


 1963              		.loc 1 688 9 is_stmt 1 view .LVU605
 688:Core/Src/drive.c ****         else                       cruise_enter(in);
 1964              		.loc 1 688 15 is_stmt 0 view .LVU606
 1965 001c 0388     		ldrh	r3, [r0]
 688:Core/Src/drive.c ****         else                       cruise_enter(in);
 1966              		.loc 1 688 12 view .LVU607
 1967 001e 132B     		cmp	r3, #19
 1968 0020 02D8     		bhi	.L138
 688:Core/Src/drive.c ****         else                       cruise_enter(in);
 1969              		.loc 1 688 36 is_stmt 1 discriminator 1 view .LVU608
 1970 0022 FFF7FEFF 		bl	brake_enter
 1971              	.LVL166:
 688:Core/Src/drive.c ****         else                       cruise_enter(in);
 1972              		.loc 1 688 36 is_stmt 0 discriminator 1 view .LVU609
 1973 0026 F8E7     		b	.L136
 1974              	.LVL167:
 1975              	.L138:
 689:Core/Src/drive.c ****         return;
 1976              		.loc 1 689 36 is_stmt 1 view .LVU610
 1977 0028 FFF7FEFF 		bl	cruise_enter
 1978              	.LVL168:
 690:Core/Src/drive.c ****     }
 1979              		.loc 1 690 9 view .LVU611
 1980 002c F5E7     		b	.L136
 1981              	.LVL169:
 1982              	.L144:
 694:Core/Src/drive.c ****         return;
 1983              		.loc 1 694 9 view .LVU612
 1984 002e 0021     		movs	r1, #0
 1985 0030 FFF7FEFF 		bl	spin_enter
 1986              	.LVL170:
 695:Core/Src/drive.c ****     }
 1987              		.loc 1 695 9 view .LVU613
 1988 0034 F1E7     		b	.L136
 1989              	.L146:
 1990 0036 00BF     		.align	2
 1991              	.L145:
 1992 0038 00000000 		.word	t_state
 1993              		.cfi_endproc
 1994              	.LFE154:
 1996              		.section	.text.reverse_enter,"ax",%progbits
 1997              		.align	1
 1998              		.syntax unified
 1999              		.thumb
 2000              		.thumb_func
 2002              	reverse_enter:
 2003              	.LVL171:
 2004              	.LFB144:
 299:Core/Src/drive.c ****     Car_Backward(DRIVE_SPEED);
 2005              		.loc 1 299 1 view -0
 2006              		.cfi_startproc
 2007              		@ args = 0, pretend = 0, frame = 0
 2008              		@ frame_needed = 0, uses_anonymous_args = 0
 299:Core/Src/drive.c ****     Car_Backward(DRIVE_SPEED);
 2009              		.loc 1 299 1 is_stmt 0 view .LVU615
 2010 0000 10B5     		push	{r4, lr}
 2011              	.LCFI19:
ARM GAS  C:\Users\user\AppData\Local\Temp\cc6kGr5c.s 			page 54


 2012              		.cfi_def_cfa_offset 8
 2013              		.cfi_offset 4, -8
 2014              		.cfi_offset 14, -4
 2015 0002 0446     		mov	r4, r0
 300:Core/Src/drive.c ****     if (rev_cnt < 255) rev_cnt++;
 2016              		.loc 1 300 5 is_stmt 1 view .LVU616
 2017 0004 2820     		movs	r0, #40
 2018              	.LVL172:
 300:Core/Src/drive.c ****     if (rev_cnt < 255) rev_cnt++;
 2019              		.loc 1 300 5 is_stmt 0 view .LVU617
 2020 0006 FFF7FEFF 		bl	Car_Backward
 2021              	.LVL173:
 301:Core/Src/drive.c ****     enter(DS_REVERSE, in->now);
 2022              		.loc 1 301 5 is_stmt 1 view .LVU618
 301:Core/Src/drive.c ****     enter(DS_REVERSE, in->now);
 2023              		.loc 1 301 17 is_stmt 0 view .LVU619
 2024 000a 064B     		ldr	r3, .L150
 2025 000c 1B78     		ldrb	r3, [r3]	@ zero_extendqisi2
 301:Core/Src/drive.c ****     enter(DS_REVERSE, in->now);
 2026              		.loc 1 301 8 view .LVU620
 2027 000e FF2B     		cmp	r3, #255
 2028 0010 02D0     		beq	.L148
 301:Core/Src/drive.c ****     enter(DS_REVERSE, in->now);
 2029              		.loc 1 301 24 is_stmt 1 discriminator 1 view .LVU621
 301:Core/Src/drive.c ****     enter(DS_REVERSE, in->now);
 2030              		.loc 1 301 31 is_stmt 0 discriminator 1 view .LVU622
 2031 0012 0133     		adds	r3, r3, #1
 2032 0014 034A     		ldr	r2, .L150
 2033 0016 1370     		strb	r3, [r2]
 2034              	.L148:
 302:Core/Src/drive.c **** }
 2035              		.loc 1 302 5 is_stmt 1 view .LVU623
 2036 0018 6169     		ldr	r1, [r4, #20]
 2037 001a 0320     		movs	r0, #3
 2038 001c FFF7FEFF 		bl	enter
 2039              	.LVL174:
 303:Core/Src/drive.c **** 
 2040              		.loc 1 303 1 is_stmt 0 view .LVU624
 2041 0020 10BD     		pop	{r4, pc}
 2042              	.LVL175:
 2043              	.L151:
 303:Core/Src/drive.c **** 
 2044              		.loc 1 303 1 view .LVU625
 2045 0022 00BF     		.align	2
 2046              	.L150:
 2047 0024 00000000 		.word	rev_cnt
 2048              		.cfi_endproc
 2049              	.LFE144:
 2051              		.section	.text.brake_run,"ax",%progbits
 2052              		.align	1
 2053              		.syntax unified
 2054              		.thumb
 2055              		.thumb_func
 2057              	brake_run:
 2058              	.LVL176:
 2059              	.LFB150:
 479:Core/Src/drive.c ****     if ((in->now - t_state) < (uint32_t)BRAKE_MS) return;   /* ВаювЈЎ ВюаВДђ ВцЉ */
ARM GAS  C:\Users\user\AppData\Local\Temp\cc6kGr5c.s 			page 55


 2060              		.loc 1 479 1 is_stmt 1 view -0
 2061              		.cfi_startproc
 2062              		@ args = 0, pretend = 0, frame = 0
 2063              		@ frame_needed = 0, uses_anonymous_args = 0
 480:Core/Src/drive.c **** 
 2064              		.loc 1 480 5 view .LVU627
 480:Core/Src/drive.c **** 
 2065              		.loc 1 480 12 is_stmt 0 view .LVU628
 2066 0000 4369     		ldr	r3, [r0, #20]
 480:Core/Src/drive.c **** 
 2067              		.loc 1 480 18 view .LVU629
 2068 0002 134A     		ldr	r2, .L161
 2069 0004 1268     		ldr	r2, [r2]
 2070 0006 9B1A     		subs	r3, r3, r2
 480:Core/Src/drive.c **** 
 2071              		.loc 1 480 8 view .LVU630
 2072 0008 772B     		cmp	r3, #119
 2073 000a 00D8     		bhi	.L159
 2074 000c 7047     		bx	lr
 2075              	.L159:
 479:Core/Src/drive.c ****     if ((in->now - t_state) < (uint32_t)BRAKE_MS) return;   /* ВаювЈЎ ВюаВДђ ВцЉ */
 2076              		.loc 1 479 1 view .LVU631
 2077 000e 10B5     		push	{r4, lr}
 2078              	.LCFI20:
 2079              		.cfi_def_cfa_offset 8
 2080              		.cfi_offset 4, -8
 2081              		.cfi_offset 14, -4
 2082 0010 0446     		mov	r4, r0
 482:Core/Src/drive.c **** 
 2083              		.loc 1 482 5 is_stmt 1 view .LVU632
 2084 0012 FFF7FEFF 		bl	Car_Stop
 2085              	.LVL177:
 484:Core/Src/drive.c ****         return;   /* вДЅвІцвЦИЖИИ/ьџїВаёв░ЕьќЦ ьїљвІеВЮђ ВІаВёаьЋю ВИАвЕ┤Ж░њВЮ┤ Вўг вЋїЖ╣їВДђ в│┤вЦ
 2086              		.loc 1 484 5 view .LVU633
 484:Core/Src/drive.c ****         return;   /* вДЅвІцвЦИЖИИ/ьџїВаёв░ЕьќЦ ьїљвІеВЮђ ВІаВёаьЋю ВИАвЕ┤Ж░њВЮ┤ Вўг вЋїЖ╣їВДђ в│┤вЦ
 2087              		.loc 1 484 12 is_stmt 0 view .LVU634
 2088 0016 E379     		ldrb	r3, [r4, #7]	@ zero_extendqisi2
 484:Core/Src/drive.c ****         return;   /* вДЅвІцвЦИЖИИ/ьџїВаёв░ЕьќЦ ьїљвІеВЮђ ВІаВёаьЋю ВИАвЕ┤Ж░њВЮ┤ Вўг вЋїЖ╣їВДђ в│┤вЦ
 2089              		.loc 1 484 8 view .LVU635
 2090 0018 A3B1     		cbz	r3, .L152
 487:Core/Src/drive.c ****                         in->l < SIDE_BLOCK_CM   &&
 2091              		.loc 1 487 5 is_stmt 1 view .LVU636
 487:Core/Src/drive.c ****                         in->l < SIDE_BLOCK_CM   &&
 2092              		.loc 1 487 27 is_stmt 0 view .LVU637
 2093 001a 2388     		ldrh	r3, [r4]
 488:Core/Src/drive.c ****                         in->r < SIDE_BLOCK_CM);
 2094              		.loc 1 488 49 view .LVU638
 2095 001c 072B     		cmp	r3, #7
 2096 001e 09D8     		bhi	.L154
 488:Core/Src/drive.c ****                         in->r < SIDE_BLOCK_CM);
 2097              		.loc 1 488 27 discriminator 1 view .LVU639
 2098 0020 6388     		ldrh	r3, [r4, #2]
 487:Core/Src/drive.c ****                         in->l < SIDE_BLOCK_CM   &&
 2099              		.loc 1 487 49 view .LVU640
 2100 0022 032B     		cmp	r3, #3
 2101 0024 06D8     		bhi	.L154
 489:Core/Src/drive.c ****     if (dead_end && rev_cnt < REV_MAX_CHUNKS)
ARM GAS  C:\Users\user\AppData\Local\Temp\cc6kGr5c.s 			page 56


 2102              		.loc 1 489 27 view .LVU641
 2103 0026 A388     		ldrh	r3, [r4, #4]
 488:Core/Src/drive.c ****                         in->r < SIDE_BLOCK_CM);
 2104              		.loc 1 488 49 discriminator 4 view .LVU642
 2105 0028 032B     		cmp	r3, #3
 2106 002a 03D8     		bhi	.L154
 2107              	.LVL178:
 490:Core/Src/drive.c ****         reverse_enter(in);
 2108              		.loc 1 490 5 is_stmt 1 view .LVU643
 490:Core/Src/drive.c ****         reverse_enter(in);
 2109              		.loc 1 490 29 is_stmt 0 discriminator 1 view .LVU644
 2110 002c 094B     		ldr	r3, .L161+4
 2111 002e 1B78     		ldrb	r3, [r3]	@ zero_extendqisi2
 490:Core/Src/drive.c ****         reverse_enter(in);
 2112              		.loc 1 490 18 discriminator 1 view .LVU645
 2113 0030 022B     		cmp	r3, #2
 2114 0032 08D9     		bls	.L160
 2115              	.LVL179:
 2116              	.L154:
 493:Core/Src/drive.c **** }
 2117              		.loc 1 493 9 is_stmt 1 view .LVU646
 2118 0034 074B     		ldr	r3, .L161+4
 2119 0036 1978     		ldrb	r1, [r3]	@ zero_extendqisi2
 2120 0038 0039     		subs	r1, r1, #0
 2121 003a 18BF     		it	ne
 2122 003c 0121     		movne	r1, #1
 2123 003e 2046     		mov	r0, r4
 2124 0040 FFF7FEFF 		bl	spin_enter
 2125              	.LVL180:
 2126              	.L152:
 494:Core/Src/drive.c **** 
 2127              		.loc 1 494 1 is_stmt 0 view .LVU647
 2128 0044 10BD     		pop	{r4, pc}
 2129              	.LVL181:
 2130              	.L160:
 491:Core/Src/drive.c ****     else
 2131              		.loc 1 491 9 is_stmt 1 view .LVU648
 2132 0046 2046     		mov	r0, r4
 2133 0048 FFF7FEFF 		bl	reverse_enter
 2134              	.LVL182:
 2135 004c FAE7     		b	.L152
 2136              	.L162:
 2137 004e 00BF     		.align	2
 2138              	.L161:
 2139 0050 00000000 		.word	t_state
 2140 0054 00000000 		.word	rev_cnt
 2141              		.cfi_endproc
 2142              	.LFE150:
 2144              		.section	.text.reverse_run,"ax",%progbits
 2145              		.align	1
 2146              		.syntax unified
 2147              		.thumb
 2148              		.thumb_func
 2150              	reverse_run:
 2151              	.LVL183:
 2152              	.LFB153:
 674:Core/Src/drive.c ****     if ((in->now - t_state) >= (uint32_t)BACK_CHUNK_MS)
ARM GAS  C:\Users\user\AppData\Local\Temp\cc6kGr5c.s 			page 57


 2153              		.loc 1 674 1 view -0
 2154              		.cfi_startproc
 2155              		@ args = 0, pretend = 0, frame = 0
 2156              		@ frame_needed = 0, uses_anonymous_args = 0
 674:Core/Src/drive.c ****     if ((in->now - t_state) >= (uint32_t)BACK_CHUNK_MS)
 2157              		.loc 1 674 1 is_stmt 0 view .LVU650
 2158 0000 08B5     		push	{r3, lr}
 2159              	.LCFI21:
 2160              		.cfi_def_cfa_offset 8
 2161              		.cfi_offset 3, -8
 2162              		.cfi_offset 14, -4
 675:Core/Src/drive.c ****     {
 2163              		.loc 1 675 5 is_stmt 1 view .LVU651
 675:Core/Src/drive.c ****     {
 2164              		.loc 1 675 12 is_stmt 0 view .LVU652
 2165 0002 4369     		ldr	r3, [r0, #20]
 675:Core/Src/drive.c ****     {
 2166              		.loc 1 675 18 view .LVU653
 2167 0004 064A     		ldr	r2, .L168
 2168 0006 1268     		ldr	r2, [r2]
 2169 0008 9B1A     		subs	r3, r3, r2
 675:Core/Src/drive.c ****     {
 2170              		.loc 1 675 8 view .LVU654
 2171 000a B3F5AF7F 		cmp	r3, #350
 2172 000e 03D2     		bcs	.L167
 680:Core/Src/drive.c **** }
 2173              		.loc 1 680 5 is_stmt 1 view .LVU655
 2174 0010 2820     		movs	r0, #40
 2175              	.LVL184:
 680:Core/Src/drive.c **** }
 2176              		.loc 1 680 5 is_stmt 0 view .LVU656
 2177 0012 FFF7FEFF 		bl	Car_Backward
 2178              	.LVL185:
 2179              	.L163:
 681:Core/Src/drive.c **** 
 2180              		.loc 1 681 1 view .LVU657
 2181 0016 08BD     		pop	{r3, pc}
 2182              	.LVL186:
 2183              	.L167:
 677:Core/Src/drive.c ****         return;
 2184              		.loc 1 677 9 is_stmt 1 view .LVU658
 2185 0018 FFF7FEFF 		bl	brake_enter
 2186              	.LVL187:
 678:Core/Src/drive.c ****     }
 2187              		.loc 1 678 9 view .LVU659
 2188 001c FBE7     		b	.L163
 2189              	.L169:
 2190 001e 00BF     		.align	2
 2191              	.L168:
 2192 0020 00000000 		.word	t_state
 2193              		.cfi_endproc
 2194              	.LFE153:
 2196              		.section	.text.spin_run,"ax",%progbits
 2197              		.align	1
 2198              		.syntax unified
 2199              		.thumb
 2200              		.thumb_func
ARM GAS  C:\Users\user\AppData\Local\Temp\cc6kGr5c.s 			page 58


 2202              	spin_run:
 2203              	.LVL188:
 2204              	.LFB151:
 498:Core/Src/drive.c ****     /* вДЅвІцвЦИ Ж││ Рєњ ьЏёВДё (chunk ВўѕВѓ░ вѓ┤ВЌљВёювДї) */
 2205              		.loc 1 498 1 view -0
 2206              		.cfi_startproc
 2207              		@ args = 0, pretend = 0, frame = 0
 2208              		@ frame_needed = 0, uses_anonymous_args = 0
 498:Core/Src/drive.c ****     /* вДЅвІцвЦИ Ж││ Рєњ ьЏёВДё (chunk ВўѕВѓ░ вѓ┤ВЌљВёювДї) */
 2209              		.loc 1 498 1 is_stmt 0 view .LVU661
 2210 0000 38B5     		push	{r3, r4, r5, lr}
 2211              	.LCFI22:
 2212              		.cfi_def_cfa_offset 16
 2213              		.cfi_offset 3, -16
 2214              		.cfi_offset 4, -12
 2215              		.cfi_offset 5, -8
 2216              		.cfi_offset 14, -4
 500:Core/Src/drive.c ****         && in->f < FRONT_DANGER_CM && in->l < SIDE_BLOCK_CM && in->r < SIDE_BLOCK_CM
 2217              		.loc 1 500 5 is_stmt 1 view .LVU662
 500:Core/Src/drive.c ****         && in->f < FRONT_DANGER_CM && in->l < SIDE_BLOCK_CM && in->r < SIDE_BLOCK_CM
 2218              		.loc 1 500 11 is_stmt 0 view .LVU663
 2219 0002 C379     		ldrb	r3, [r0, #7]	@ zero_extendqisi2
 500:Core/Src/drive.c ****         && in->f < FRONT_DANGER_CM && in->l < SIDE_BLOCK_CM && in->r < SIDE_BLOCK_CM
 2220              		.loc 1 500 8 view .LVU664
 2221 0004 6BB1     		cbz	r3, .L171
 501:Core/Src/drive.c ****         && rev_cnt < REV_MAX_CHUNKS)
 2222              		.loc 1 501 14 view .LVU665
 2223 0006 0388     		ldrh	r3, [r0]
 501:Core/Src/drive.c ****         && rev_cnt < REV_MAX_CHUNKS)
 2224              		.loc 1 501 9 view .LVU666
 2225 0008 072B     		cmp	r3, #7
 2226 000a 0AD8     		bhi	.L171
 501:Core/Src/drive.c ****         && rev_cnt < REV_MAX_CHUNKS)
 2227              		.loc 1 501 41 discriminator 1 view .LVU667
 2228 000c 4388     		ldrh	r3, [r0, #2]
 501:Core/Src/drive.c ****         && rev_cnt < REV_MAX_CHUNKS)
 2229              		.loc 1 501 36 discriminator 1 view .LVU668
 2230 000e 032B     		cmp	r3, #3
 2231 0010 07D8     		bhi	.L171
 501:Core/Src/drive.c ****         && rev_cnt < REV_MAX_CHUNKS)
 2232              		.loc 1 501 66 discriminator 2 view .LVU669
 2233 0012 8388     		ldrh	r3, [r0, #4]
 501:Core/Src/drive.c ****         && rev_cnt < REV_MAX_CHUNKS)
 2234              		.loc 1 501 61 discriminator 2 view .LVU670
 2235 0014 032B     		cmp	r3, #3
 2236 0016 04D8     		bhi	.L171
 502:Core/Src/drive.c ****     {
 2237              		.loc 1 502 20 view .LVU671
 2238 0018 A54B     		ldr	r3, .L258
 2239 001a 1B78     		ldrb	r3, [r3]	@ zero_extendqisi2
 502:Core/Src/drive.c ****     {
 2240              		.loc 1 502 9 view .LVU672
 2241 001c 022B     		cmp	r3, #2
 2242 001e 40F2BA80 		bls	.L252
 2243              	.L171:
 508:Core/Src/drive.c ****     {
 2244              		.loc 1 508 5 is_stmt 1 view .LVU673
ARM GAS  C:\Users\user\AppData\Local\Temp\cc6kGr5c.s 			page 59


 508:Core/Src/drive.c ****     {
 2245              		.loc 1 508 11 is_stmt 0 view .LVU674
 2246 0022 037C     		ldrb	r3, [r0, #16]	@ zero_extendqisi2
 508:Core/Src/drive.c ****     {
 2247              		.loc 1 508 8 view .LVU675
 2248 0024 002B     		cmp	r3, #0
 2249 0026 50D0     		beq	.L173
 510:Core/Src/drive.c ****         {
 2250              		.loc 1 510 9 is_stmt 1 view .LVU676
 510:Core/Src/drive.c ****         {
 2251              		.loc 1 510 13 is_stmt 0 view .LVU677
 2252 0028 A24B     		ldr	r3, .L258+4
 2253 002a 1B78     		ldrb	r3, [r3]	@ zero_extendqisi2
 510:Core/Src/drive.c ****         {
 2254              		.loc 1 510 12 view .LVU678
 2255 002c 53B9     		cbnz	r3, .L174
 512:Core/Src/drive.c ****             h_stuck = in->heading;
 2256              		.loc 1 512 13 is_stmt 1 view .LVU679
 512:Core/Src/drive.c ****             h_stuck = in->heading;
 2257              		.loc 1 512 25 is_stmt 0 view .LVU680
 2258 002e C368     		ldr	r3, [r0, #12]	@ float
 512:Core/Src/drive.c ****             h_stuck = in->heading;
 2259              		.loc 1 512 21 view .LVU681
 2260 0030 A14A     		ldr	r2, .L258+8
 2261 0032 1360     		str	r3, [r2]	@ float
 513:Core/Src/drive.c ****             t_stuck = in->now;
 2262              		.loc 1 513 13 is_stmt 1 view .LVU682
 513:Core/Src/drive.c ****             t_stuck = in->now;
 2263              		.loc 1 513 21 is_stmt 0 view .LVU683
 2264 0034 A14A     		ldr	r2, .L258+12
 2265 0036 1360     		str	r3, [r2]	@ float
 514:Core/Src/drive.c ****             h_entry_valid = 1U;
 2266              		.loc 1 514 13 is_stmt 1 view .LVU684
 514:Core/Src/drive.c ****             h_entry_valid = 1U;
 2267              		.loc 1 514 25 is_stmt 0 view .LVU685
 2268 0038 4269     		ldr	r2, [r0, #20]
 514:Core/Src/drive.c ****             h_entry_valid = 1U;
 2269              		.loc 1 514 21 view .LVU686
 2270 003a A14B     		ldr	r3, .L258+16
 2271 003c 1A60     		str	r2, [r3]
 515:Core/Src/drive.c ****         }
 2272              		.loc 1 515 13 is_stmt 1 view .LVU687
 515:Core/Src/drive.c ****         }
 2273              		.loc 1 515 27 is_stmt 0 view .LVU688
 2274 003e 9D4B     		ldr	r3, .L258+4
 2275 0040 0122     		movs	r2, #1
 2276 0042 1A70     		strb	r2, [r3]
 2277              	.L174:
 517:Core/Src/drive.c **** 
 2278              		.loc 1 517 9 is_stmt 1 view .LVU689
 517:Core/Src/drive.c **** 
 2279              		.loc 1 517 34 is_stmt 0 view .LVU690
 2280 0044 D0ED037A 		vldr.32	s15, [r0, #12]
 517:Core/Src/drive.c **** 
 2281              		.loc 1 517 24 view .LVU691
 2282 0048 9B4B     		ldr	r3, .L258+8
 2283 004a 93ED007A 		vldr.32	s14, [r3]
ARM GAS  C:\Users\user\AppData\Local\Temp\cc6kGr5c.s 			page 60


 2284 004e 77EEC77A 		vsub.f32	s15, s15, s14
 2285              	.LVL189:
 2286              	.LBB50:
 2287              	.LBI50:
  89:Core/Src/drive.c **** {
 2288              		.loc 1 89 21 is_stmt 1 view .LVU692
 2289              	.LBB51:
  91:Core/Src/drive.c ****     else if (a <= -180.0f) a += 360.0f;
 2290              		.loc 1 91 5 view .LVU693
  91:Core/Src/drive.c ****     else if (a <= -180.0f) a += 360.0f;
 2291              		.loc 1 91 13 is_stmt 0 view .LVU694
 2292 0052 9FED9C7A 		vldr.32	s14, .L258+20
 2293 0056 F4EEC77A 		vcmpe.f32	s15, s14
 2294 005a F1EE10FA 		vmrs	APSR_nzcv, FPSCR
 2295 005e 40F39D80 		ble	.L244
  91:Core/Src/drive.c ****     else if (a <= -180.0f) a += 360.0f;
 2296              		.loc 1 91 28 is_stmt 1 discriminator 1 view .LVU695
  91:Core/Src/drive.c ****     else if (a <= -180.0f) a += 360.0f;
 2297              		.loc 1 91 30 is_stmt 0 discriminator 1 view .LVU696
 2298 0062 9FED997A 		vldr.32	s14, .L258+24
 2299 0066 77EEC77A 		vsub.f32	s15, s15, s14
 2300              	.LVL190:
 2301              	.L177:
  93:Core/Src/drive.c **** }
 2302              		.loc 1 93 5 is_stmt 1 view .LVU697
  93:Core/Src/drive.c **** }
 2303              		.loc 1 93 5 is_stmt 0 view .LVU698
 2304              	.LBE51:
 2305              	.LBE50:
 517:Core/Src/drive.c **** 
 2306              		.loc 1 517 22 discriminator 1 view .LVU699
 2307 006a 984B     		ldr	r3, .L258+28
 2308 006c C3ED057A 		vstr.32	s15, [r3, #20]
 520:Core/Src/drive.c ****         {
 2309              		.loc 1 520 9 is_stmt 1 view .LVU700
 520:Core/Src/drive.c ****         {
 2310              		.loc 1 520 16 is_stmt 0 view .LVU701
 2311 0070 4269     		ldr	r2, [r0, #20]
 520:Core/Src/drive.c ****         {
 2312              		.loc 1 520 22 view .LVU702
 2313 0072 934B     		ldr	r3, .L258+16
 2314 0074 1B68     		ldr	r3, [r3]
 2315 0076 D31A     		subs	r3, r2, r3
 520:Core/Src/drive.c ****         {
 2316              		.loc 1 520 12 view .LVU703
 2317 0078 B3F5C87F 		cmp	r3, #400
 2318 007c 25D3     		bcc	.L173
 522:Core/Src/drive.c ****                 && rev_cnt < REV_MAX_CHUNKS)
 2319              		.loc 1 522 13 is_stmt 1 view .LVU704
 522:Core/Src/drive.c ****                 && rev_cnt < REV_MAX_CHUNKS)
 2320              		.loc 1 522 33 is_stmt 0 view .LVU705
 2321 007e 90ED037A 		vldr.32	s14, [r0, #12]
 522:Core/Src/drive.c ****                 && rev_cnt < REV_MAX_CHUNKS)
 2322              		.loc 1 522 23 view .LVU706
 2323 0082 8E4B     		ldr	r3, .L258+12
 2324 0084 D3ED007A 		vldr.32	s15, [r3]
 2325 0088 77EE677A 		vsub.f32	s15, s14, s15
ARM GAS  C:\Users\user\AppData\Local\Temp\cc6kGr5c.s 			page 61


 2326              	.LVL191:
 2327              	.LBB53:
 2328              	.LBI53:
  89:Core/Src/drive.c **** {
 2329              		.loc 1 89 21 is_stmt 1 view .LVU707
 2330              	.LBB54:
  91:Core/Src/drive.c ****     else if (a <= -180.0f) a += 360.0f;
 2331              		.loc 1 91 5 view .LVU708
  91:Core/Src/drive.c ****     else if (a <= -180.0f) a += 360.0f;
 2332              		.loc 1 91 13 is_stmt 0 view .LVU709
 2333 008c DFED8D6A 		vldr.32	s13, .L258+20
 2334 0090 F4EEE67A 		vcmpe.f32	s15, s13
 2335 0094 F1EE10FA 		vmrs	APSR_nzcv, FPSCR
 2336 0098 40F38D80 		ble	.L245
  91:Core/Src/drive.c ****     else if (a <= -180.0f) a += 360.0f;
 2337              		.loc 1 91 28 is_stmt 1 discriminator 1 view .LVU710
  91:Core/Src/drive.c ****     else if (a <= -180.0f) a += 360.0f;
 2338              		.loc 1 91 30 is_stmt 0 discriminator 1 view .LVU711
 2339 009c DFED8A6A 		vldr.32	s13, .L258+24
 2340 00a0 77EEE67A 		vsub.f32	s15, s15, s13
 2341              	.LVL192:
 2342              	.L181:
  93:Core/Src/drive.c **** }
 2343              		.loc 1 93 5 is_stmt 1 view .LVU712
  93:Core/Src/drive.c **** }
 2344              		.loc 1 93 5 is_stmt 0 view .LVU713
 2345              	.LBE54:
 2346              	.LBE53:
 522:Core/Src/drive.c ****                 && rev_cnt < REV_MAX_CHUNKS)
 2347              		.loc 1 522 17 discriminator 1 view .LVU714
 2348 00a4 F0EEE77A 		vabs.f32	s15, s15
 522:Core/Src/drive.c ****                 && rev_cnt < REV_MAX_CHUNKS)
 2349              		.loc 1 522 16 discriminator 1 view .LVU715
 2350 00a8 F2EE006A 		vmov.f32	s13, #8.0e+0
 2351 00ac F4EEE67A 		vcmpe.f32	s15, s13
 2352 00b0 F1EE10FA 		vmrs	APSR_nzcv, FPSCR
 2353 00b4 04D5     		bpl	.L183
 523:Core/Src/drive.c ****             {
 2354              		.loc 1 523 28 view .LVU716
 2355 00b6 7E4B     		ldr	r3, .L258
 2356 00b8 1B78     		ldrb	r3, [r3]	@ zero_extendqisi2
 523:Core/Src/drive.c ****             {
 2357              		.loc 1 523 17 view .LVU717
 2358 00ba 022B     		cmp	r3, #2
 2359 00bc 40F28880 		bls	.L253
 2360              	.L183:
 528:Core/Src/drive.c ****             t_stuck = in->now;
 2361              		.loc 1 528 13 is_stmt 1 view .LVU718
 528:Core/Src/drive.c ****             t_stuck = in->now;
 2362              		.loc 1 528 21 is_stmt 0 view .LVU719
 2363 00c0 7E4B     		ldr	r3, .L258+12
 2364 00c2 83ED007A 		vstr.32	s14, [r3]
 529:Core/Src/drive.c ****         }
 2365              		.loc 1 529 13 is_stmt 1 view .LVU720
 529:Core/Src/drive.c ****         }
 2366              		.loc 1 529 21 is_stmt 0 view .LVU721
 2367 00c6 7E4B     		ldr	r3, .L258+16
ARM GAS  C:\Users\user\AppData\Local\Temp\cc6kGr5c.s 			page 62


 2368 00c8 1A60     		str	r2, [r3]
 2369              	.L173:
 534:Core/Src/drive.c ****     {
 2370              		.loc 1 534 5 is_stmt 1 view .LVU722
 534:Core/Src/drive.c ****     {
 2371              		.loc 1 534 12 is_stmt 0 view .LVU723
 2372 00ca 4169     		ldr	r1, [r0, #20]
 534:Core/Src/drive.c ****     {
 2373              		.loc 1 534 18 view .LVU724
 2374 00cc 804B     		ldr	r3, .L258+32
 2375 00ce 1B68     		ldr	r3, [r3]
 2376 00d0 CB1A     		subs	r3, r1, r3
 534:Core/Src/drive.c ****     {
 2377              		.loc 1 534 8 view .LVU725
 2378 00d2 40F6C412 		movw	r2, #2500
 2379 00d6 9342     		cmp	r3, r2
 2380 00d8 10D9     		bls	.L185
 536:Core/Src/drive.c ****         turn_dir ^= 1;
 2381              		.loc 1 536 9 is_stmt 1 view .LVU726
 536:Core/Src/drive.c ****         turn_dir ^= 1;
 2382              		.loc 1 536 21 is_stmt 0 view .LVU727
 2383 00da 754B     		ldr	r3, .L258
 2384 00dc 1B78     		ldrb	r3, [r3]	@ zero_extendqisi2
 536:Core/Src/drive.c ****         turn_dir ^= 1;
 2385              		.loc 1 536 12 view .LVU728
 2386 00de 022B     		cmp	r3, #2
 2387 00e0 79D9     		bls	.L254
 537:Core/Src/drive.c ****         t_state = in->now;
 2388              		.loc 1 537 9 is_stmt 1 view .LVU729
 537:Core/Src/drive.c ****         t_state = in->now;
 2389              		.loc 1 537 18 is_stmt 0 view .LVU730
 2390 00e2 7C4A     		ldr	r2, .L258+36
 2391 00e4 1378     		ldrb	r3, [r2]	@ zero_extendqisi2
 2392 00e6 83F00103 		eor	r3, r3, #1
 2393 00ea 1370     		strb	r3, [r2]
 538:Core/Src/drive.c ****         h_entry = in->heading;
 2394              		.loc 1 538 9 is_stmt 1 view .LVU731
 538:Core/Src/drive.c ****         h_entry = in->heading;
 2395              		.loc 1 538 17 is_stmt 0 view .LVU732
 2396 00ec 784B     		ldr	r3, .L258+32
 2397 00ee 1960     		str	r1, [r3]
 539:Core/Src/drive.c ****         h_entry_valid = in->imu_live;
 2398              		.loc 1 539 9 is_stmt 1 view .LVU733
 539:Core/Src/drive.c ****         h_entry_valid = in->imu_live;
 2399              		.loc 1 539 21 is_stmt 0 view .LVU734
 2400 00f0 C268     		ldr	r2, [r0, #12]	@ float
 539:Core/Src/drive.c ****         h_entry_valid = in->imu_live;
 2401              		.loc 1 539 17 view .LVU735
 2402 00f2 714B     		ldr	r3, .L258+8
 2403 00f4 1A60     		str	r2, [r3]	@ float
 540:Core/Src/drive.c ****     }
 2404              		.loc 1 540 9 is_stmt 1 view .LVU736
 540:Core/Src/drive.c ****     }
 2405              		.loc 1 540 27 is_stmt 0 view .LVU737
 2406 00f6 027C     		ldrb	r2, [r0, #16]	@ zero_extendqisi2
 540:Core/Src/drive.c ****     }
 2407              		.loc 1 540 23 view .LVU738
ARM GAS  C:\Users\user\AppData\Local\Temp\cc6kGr5c.s 			page 63


 2408 00f8 6E4B     		ldr	r3, .L258+4
 2409 00fa 1A70     		strb	r2, [r3]
 2410              	.L185:
 544:Core/Src/drive.c ****     {
 2411              		.loc 1 544 5 is_stmt 1 view .LVU739
 544:Core/Src/drive.c ****     {
 2412              		.loc 1 544 11 is_stmt 0 view .LVU740
 2413 00fc C379     		ldrb	r3, [r0, #7]	@ zero_extendqisi2
 544:Core/Src/drive.c ****     {
 2414              		.loc 1 544 8 view .LVU741
 2415 00fe 23B3     		cbz	r3, .L187
 544:Core/Src/drive.c ****     {
 2416              		.loc 1 544 36 discriminator 1 view .LVU742
 2417 0100 734B     		ldr	r3, .L258+32
 2418 0102 1B68     		ldr	r3, [r3]
 2419 0104 CB1A     		subs	r3, r1, r3
 544:Core/Src/drive.c ****     {
 2420              		.loc 1 544 24 discriminator 1 view .LVU743
 2421 0106 952B     		cmp	r3, #149
 2422 0108 1FD9     		bls	.L187
 544:Core/Src/drive.c ****     {
 2423              		.loc 1 544 87 discriminator 2 view .LVU744
 2424 010a 734B     		ldr	r3, .L258+40
 2425 010c 1B78     		ldrb	r3, [r3]	@ zero_extendqisi2
 544:Core/Src/drive.c ****     {
 2426              		.loc 1 544 75 discriminator 2 view .LVU745
 2427 010e E3B9     		cbnz	r3, .L187
 2428              	.LBB56:
 546:Core/Src/drive.c ****         uint16_t other   = (turn_dir == 0) ? in->r : in->l;
 2429              		.loc 1 546 9 is_stmt 1 view .LVU746
 546:Core/Src/drive.c ****         uint16_t other   = (turn_dir == 0) ? in->r : in->l;
 2430              		.loc 1 546 38 is_stmt 0 view .LVU747
 2431 0110 704A     		ldr	r2, .L258+36
 2432 0112 1478     		ldrb	r4, [r2]	@ zero_extendqisi2
 546:Core/Src/drive.c ****         uint16_t other   = (turn_dir == 0) ? in->r : in->l;
 2433              		.loc 1 546 18 view .LVU748
 2434 0114 002C     		cmp	r4, #0
 2435 0116 61D1     		bne	.L188
 546:Core/Src/drive.c ****         uint16_t other   = (turn_dir == 0) ? in->r : in->l;
 2436              		.loc 1 546 18 discriminator 1 view .LVU749
 2437 0118 4288     		ldrh	r2, [r0, #2]
 2438              	.L189:
 2439              	.LVL193:
 547:Core/Src/drive.c ****         if (latched < SIDE_BLOCK_CM && other > (uint16_t)(latched + SIDE_HYST))
 2440              		.loc 1 547 9 is_stmt 1 view .LVU750
 547:Core/Src/drive.c ****         if (latched < SIDE_BLOCK_CM && other > (uint16_t)(latched + SIDE_HYST))
 2441              		.loc 1 547 18 is_stmt 0 view .LVU751
 2442 011a 002C     		cmp	r4, #0
 2443 011c 60D1     		bne	.L190
 547:Core/Src/drive.c ****         if (latched < SIDE_BLOCK_CM && other > (uint16_t)(latched + SIDE_HYST))
 2444              		.loc 1 547 18 discriminator 1 view .LVU752
 2445 011e 8588     		ldrh	r5, [r0, #4]
 2446              	.L191:
 2447              	.LVL194:
 548:Core/Src/drive.c ****         {
 2448              		.loc 1 548 9 is_stmt 1 view .LVU753
 548:Core/Src/drive.c ****         {
ARM GAS  C:\Users\user\AppData\Local\Temp\cc6kGr5c.s 			page 64


 2449              		.loc 1 548 12 is_stmt 0 view .LVU754
 2450 0120 032A     		cmp	r2, #3
 2451 0122 12D8     		bhi	.L187
 548:Core/Src/drive.c ****         {
 2452              		.loc 1 548 48 discriminator 1 view .LVU755
 2453 0124 0532     		adds	r2, r2, #5
 2454              	.LVL195:
 548:Core/Src/drive.c ****         {
 2455              		.loc 1 548 48 discriminator 1 view .LVU756
 2456 0126 92B2     		uxth	r2, r2
 548:Core/Src/drive.c ****         {
 2457              		.loc 1 548 37 discriminator 1 view .LVU757
 2458 0128 AA42     		cmp	r2, r5
 2459 012a 0ED2     		bcs	.L187
 550:Core/Src/drive.c ****             swap_cnt++;
 2460              		.loc 1 550 13 is_stmt 1 view .LVU758
 550:Core/Src/drive.c ****             swap_cnt++;
 2461              		.loc 1 550 22 is_stmt 0 view .LVU759
 2462 012c 84F00104 		eor	r4, r4, #1
 2463 0130 684A     		ldr	r2, .L258+36
 2464 0132 1470     		strb	r4, [r2]
 551:Core/Src/drive.c ****             t_state = in->now;
 2465              		.loc 1 551 13 is_stmt 1 view .LVU760
 551:Core/Src/drive.c ****             t_state = in->now;
 2466              		.loc 1 551 21 is_stmt 0 view .LVU761
 2467 0134 0133     		adds	r3, r3, #1
 2468 0136 684A     		ldr	r2, .L258+40
 2469 0138 1370     		strb	r3, [r2]
 552:Core/Src/drive.c ****             h_entry = in->heading;
 2470              		.loc 1 552 13 is_stmt 1 view .LVU762
 552:Core/Src/drive.c ****             h_entry = in->heading;
 2471              		.loc 1 552 21 is_stmt 0 view .LVU763
 2472 013a 654B     		ldr	r3, .L258+32
 2473 013c 1960     		str	r1, [r3]
 553:Core/Src/drive.c ****             h_entry_valid = in->imu_live;
 2474              		.loc 1 553 13 is_stmt 1 view .LVU764
 553:Core/Src/drive.c ****             h_entry_valid = in->imu_live;
 2475              		.loc 1 553 25 is_stmt 0 view .LVU765
 2476 013e C268     		ldr	r2, [r0, #12]	@ float
 553:Core/Src/drive.c ****             h_entry_valid = in->imu_live;
 2477              		.loc 1 553 21 view .LVU766
 2478 0140 5D4B     		ldr	r3, .L258+8
 2479 0142 1A60     		str	r2, [r3]	@ float
 554:Core/Src/drive.c ****         }
 2480              		.loc 1 554 13 is_stmt 1 view .LVU767
 554:Core/Src/drive.c ****         }
 2481              		.loc 1 554 31 is_stmt 0 view .LVU768
 2482 0144 027C     		ldrb	r2, [r0, #16]	@ zero_extendqisi2
 554:Core/Src/drive.c ****         }
 2483              		.loc 1 554 27 view .LVU769
 2484 0146 5B4B     		ldr	r3, .L258+4
 2485 0148 1A70     		strb	r2, [r3]
 2486              	.LVL196:
 2487              	.L187:
 554:Core/Src/drive.c ****         }
 2488              		.loc 1 554 27 view .LVU770
 2489              	.LBE56:
ARM GAS  C:\Users\user\AppData\Local\Temp\cc6kGr5c.s 			page 65


 560:Core/Src/drive.c ****     dbg.course_dev   = course_dev;
 2490              		.loc 1 560 5 is_stmt 1 view .LVU771
 560:Core/Src/drive.c ****     dbg.course_dev   = course_dev;
 2491              		.loc 1 560 26 is_stmt 0 view .LVU772
 2492 014a 037C     		ldrb	r3, [r0, #16]	@ zero_extendqisi2
 560:Core/Src/drive.c ****     dbg.course_dev   = course_dev;
 2493              		.loc 1 560 84 view .LVU773
 2494 014c 002B     		cmp	r3, #0
 2495 014e 55D0     		beq	.L223
 560:Core/Src/drive.c ****     dbg.course_dev   = course_dev;
 2496              		.loc 1 560 55 discriminator 1 view .LVU774
 2497 0150 D0ED037A 		vldr.32	s15, [r0, #12]
 560:Core/Src/drive.c ****     dbg.course_dev   = course_dev;
 2498              		.loc 1 560 45 discriminator 1 view .LVU775
 2499 0154 614B     		ldr	r3, .L258+44
 2500 0156 93ED007A 		vldr.32	s14, [r3]
 2501 015a 77EEC77A 		vsub.f32	s15, s15, s14
 2502              	.LVL197:
 2503              	.LBB57:
 2504              	.LBI57:
  89:Core/Src/drive.c **** {
 2505              		.loc 1 89 21 is_stmt 1 view .LVU776
 2506              	.LBB58:
  91:Core/Src/drive.c ****     else if (a <= -180.0f) a += 360.0f;
 2507              		.loc 1 91 5 view .LVU777
  91:Core/Src/drive.c ****     else if (a <= -180.0f) a += 360.0f;
 2508              		.loc 1 91 13 is_stmt 0 view .LVU778
 2509 015e 9FED597A 		vldr.32	s14, .L258+20
 2510 0162 F4EEC77A 		vcmpe.f32	s15, s14
 2511 0166 F1EE10FA 		vmrs	APSR_nzcv, FPSCR
 2512 016a 3BDD     		ble	.L246
  91:Core/Src/drive.c ****     else if (a <= -180.0f) a += 360.0f;
 2513              		.loc 1 91 28 is_stmt 1 discriminator 1 view .LVU779
  91:Core/Src/drive.c ****     else if (a <= -180.0f) a += 360.0f;
 2514              		.loc 1 91 30 is_stmt 0 discriminator 1 view .LVU780
 2515 016c 9FED567A 		vldr.32	s14, .L258+24
 2516 0170 77EEC77A 		vsub.f32	s15, s15, s14
 2517              	.LVL198:
 2518              	.L195:
  93:Core/Src/drive.c **** }
 2519              		.loc 1 93 5 is_stmt 1 view .LVU781
  93:Core/Src/drive.c **** }
 2520              		.loc 1 93 5 is_stmt 0 view .LVU782
 2521              	.LBE58:
 2522              	.LBE57:
 560:Core/Src/drive.c ****     dbg.course_dev   = course_dev;
 2523              		.loc 1 560 84 discriminator 1 view .LVU783
 2524 0174 F0EEE77A 		vabs.f32	s15, s15
 2525              	.L192:
 2526              	.LVL199:
 561:Core/Src/drive.c ****     dbg.reverse      = (in->imu_live && course_dev >= COURSE_REV_DEG) ? 1U : 0U;
 2527              		.loc 1 561 5 is_stmt 1 view .LVU784
 561:Core/Src/drive.c ****     dbg.reverse      = (in->imu_live && course_dev >= COURSE_REV_DEG) ? 1U : 0U;
 2528              		.loc 1 561 22 is_stmt 0 view .LVU785
 2529 0178 544B     		ldr	r3, .L258+28
 2530 017a C3ED077A 		vstr.32	s15, [r3, #28]
 562:Core/Src/drive.c ****     uint8_t fwd_ok   = (!in->imu_live || course_dev < COURSE_REV_DEG);   /* ВаЋв░ЕьќЦ(вўљвіћ IMUВѓг
ARM GAS  C:\Users\user\AppData\Local\Temp\cc6kGr5c.s 			page 66


 2531              		.loc 1 562 5 is_stmt 1 view .LVU786
 562:Core/Src/drive.c ****     uint8_t fwd_ok   = (!in->imu_live || course_dev < COURSE_REV_DEG);   /* ВаЋв░ЕьќЦ(вўљвіћ IMUВѓг
 2532              		.loc 1 562 27 is_stmt 0 view .LVU787
 2533 017e 037C     		ldrb	r3, [r0, #16]	@ zero_extendqisi2
 562:Core/Src/drive.c ****     uint8_t fwd_ok   = (!in->imu_live || course_dev < COURSE_REV_DEG);   /* ВаЋв░ЕьќЦ(вўљвіћ IMUВѓг
 2534              		.loc 1 562 22 view .LVU788
 2535 0180 002B     		cmp	r3, #0
 2536 0182 3ED0     		beq	.L224
 562:Core/Src/drive.c ****     uint8_t fwd_ok   = (!in->imu_live || course_dev < COURSE_REV_DEG);   /* ВаЋв░ЕьќЦ(вўљвіћ IMUВѓг
 2537              		.loc 1 562 38 discriminator 1 view .LVU789
 2538 0184 9FED567A 		vldr.32	s14, .L258+48
 2539 0188 F4EEC77A 		vcmpe.f32	s15, s14
 2540 018c F1EE10FA 		vmrs	APSR_nzcv, FPSCR
 2541 0190 45DA     		bge	.L225
 562:Core/Src/drive.c ****     uint8_t fwd_ok   = (!in->imu_live || course_dev < COURSE_REV_DEG);   /* ВаЋв░ЕьќЦ(вўљвіћ IMUВѓг
 2542              		.loc 1 562 22 discriminator 4 view .LVU790
 2543 0192 0022     		movs	r2, #0
 2544 0194 36E0     		b	.L197
 2545              	.LVL200:
 2546              	.L252:
 504:Core/Src/drive.c ****         return;
 2547              		.loc 1 504 9 is_stmt 1 view .LVU791
 2548 0196 FFF7FEFF 		bl	reverse_enter
 2549              	.LVL201:
 505:Core/Src/drive.c ****     }
 2550              		.loc 1 505 9 view .LVU792
 2551 019a 05E1     		b	.L170
 2552              	.LVL202:
 2553              	.L244:
 2554              	.LBB60:
 2555              	.LBB52:
  92:Core/Src/drive.c ****     return a;
 2556              		.loc 1 92 10 view .LVU793
  92:Core/Src/drive.c ****     return a;
 2557              		.loc 1 92 13 is_stmt 0 view .LVU794
 2558 019c 9FED517A 		vldr.32	s14, .L258+52
 2559 01a0 F4EEC77A 		vcmpe.f32	s15, s14
 2560 01a4 F1EE10FA 		vmrs	APSR_nzcv, FPSCR
 2561 01a8 3FF65FAF 		bhi	.L177
  92:Core/Src/drive.c ****     return a;
 2562              		.loc 1 92 28 is_stmt 1 discriminator 1 view .LVU795
  92:Core/Src/drive.c ****     return a;
 2563              		.loc 1 92 30 is_stmt 0 discriminator 1 view .LVU796
 2564 01ac 9FED467A 		vldr.32	s14, .L258+24
 2565 01b0 77EE877A 		vadd.f32	s15, s15, s14
 2566              	.LVL203:
  92:Core/Src/drive.c ****     return a;
 2567              		.loc 1 92 30 discriminator 1 view .LVU797
 2568 01b4 59E7     		b	.L177
 2569              	.LVL204:
 2570              	.L245:
  92:Core/Src/drive.c ****     return a;
 2571              		.loc 1 92 30 discriminator 1 view .LVU798
 2572              	.LBE52:
 2573              	.LBE60:
 2574              	.LBB61:
 2575              	.LBB55:
ARM GAS  C:\Users\user\AppData\Local\Temp\cc6kGr5c.s 			page 67


  92:Core/Src/drive.c ****     return a;
 2576              		.loc 1 92 10 is_stmt 1 view .LVU799
  92:Core/Src/drive.c ****     return a;
 2577              		.loc 1 92 13 is_stmt 0 view .LVU800
 2578 01b6 DFED4B6A 		vldr.32	s13, .L258+52
 2579 01ba F4EEE67A 		vcmpe.f32	s15, s13
 2580 01be F1EE10FA 		vmrs	APSR_nzcv, FPSCR
 2581 01c2 3FF66FAF 		bhi	.L181
  92:Core/Src/drive.c ****     return a;
 2582              		.loc 1 92 28 is_stmt 1 discriminator 1 view .LVU801
  92:Core/Src/drive.c ****     return a;
 2583              		.loc 1 92 30 is_stmt 0 discriminator 1 view .LVU802
 2584 01c6 DFED406A 		vldr.32	s13, .L258+24
 2585 01ca 77EEA67A 		vadd.f32	s15, s15, s13
 2586              	.LVL205:
  92:Core/Src/drive.c ****     return a;
 2587              		.loc 1 92 30 discriminator 1 view .LVU803
 2588 01ce 69E7     		b	.L181
 2589              	.LVL206:
 2590              	.L253:
  92:Core/Src/drive.c ****     return a;
 2591              		.loc 1 92 30 discriminator 1 view .LVU804
 2592              	.LBE55:
 2593              	.LBE61:
 525:Core/Src/drive.c ****                 return;
 2594              		.loc 1 525 17 is_stmt 1 view .LVU805
 2595 01d0 FFF7FEFF 		bl	reverse_enter
 2596              	.LVL207:
 526:Core/Src/drive.c ****             }
 2597              		.loc 1 526 17 view .LVU806
 2598 01d4 E8E0     		b	.L170
 2599              	.LVL208:
 2600              	.L254:
 536:Core/Src/drive.c ****         turn_dir ^= 1;
 2601              		.loc 1 536 41 discriminator 1 view .LVU807
 2602 01d6 FFF7FEFF 		bl	reverse_enter
 2603              	.LVL209:
 536:Core/Src/drive.c ****         turn_dir ^= 1;
 2604              		.loc 1 536 60 discriminator 1 view .LVU808
 536:Core/Src/drive.c ****         turn_dir ^= 1;
 2605              		.loc 1 536 60 is_stmt 0 view .LVU809
 2606 01da E5E0     		b	.L170
 2607              	.LVL210:
 2608              	.L188:
 2609              	.LBB62:
 546:Core/Src/drive.c ****         uint16_t other   = (turn_dir == 0) ? in->r : in->l;
 2610              		.loc 1 546 18 discriminator 2 view .LVU810
 2611 01dc 8288     		ldrh	r2, [r0, #4]
 2612 01de 9CE7     		b	.L189
 2613              	.LVL211:
 2614              	.L190:
 547:Core/Src/drive.c ****         if (latched < SIDE_BLOCK_CM && other > (uint16_t)(latched + SIDE_HYST))
 2615              		.loc 1 547 18 discriminator 2 view .LVU811
 2616 01e0 4588     		ldrh	r5, [r0, #2]
 2617 01e2 9DE7     		b	.L191
 2618              	.LVL212:
 2619              	.L246:
ARM GAS  C:\Users\user\AppData\Local\Temp\cc6kGr5c.s 			page 68


 547:Core/Src/drive.c ****         if (latched < SIDE_BLOCK_CM && other > (uint16_t)(latched + SIDE_HYST))
 2620              		.loc 1 547 18 discriminator 2 view .LVU812
 2621              	.LBE62:
 2622              	.LBB63:
 2623              	.LBB59:
  92:Core/Src/drive.c ****     return a;
 2624              		.loc 1 92 10 is_stmt 1 view .LVU813
  92:Core/Src/drive.c ****     return a;
 2625              		.loc 1 92 13 is_stmt 0 view .LVU814
 2626 01e4 9FED3F7A 		vldr.32	s14, .L258+52
 2627 01e8 F4EEC77A 		vcmpe.f32	s15, s14
 2628 01ec F1EE10FA 		vmrs	APSR_nzcv, FPSCR
 2629 01f0 C0D8     		bhi	.L195
  92:Core/Src/drive.c ****     return a;
 2630              		.loc 1 92 28 is_stmt 1 discriminator 1 view .LVU815
  92:Core/Src/drive.c ****     return a;
 2631              		.loc 1 92 30 is_stmt 0 discriminator 1 view .LVU816
 2632 01f2 9FED357A 		vldr.32	s14, .L258+24
 2633 01f6 77EE877A 		vadd.f32	s15, s15, s14
 2634              	.LVL213:
  92:Core/Src/drive.c ****     return a;
 2635              		.loc 1 92 30 discriminator 1 view .LVU817
 2636 01fa BBE7     		b	.L195
 2637              	.LVL214:
 2638              	.L223:
  92:Core/Src/drive.c ****     return a;
 2639              		.loc 1 92 30 discriminator 1 view .LVU818
 2640              	.LBE59:
 2641              	.LBE63:
 560:Core/Src/drive.c ****     dbg.course_dev   = course_dev;
 2642              		.loc 1 560 84 discriminator 2 view .LVU819
 2643 01fc DFED3A7A 		vldr.32	s15, .L258+56
 2644 0200 BAE7     		b	.L192
 2645              	.LVL215:
 2646              	.L224:
 562:Core/Src/drive.c ****     uint8_t fwd_ok   = (!in->imu_live || course_dev < COURSE_REV_DEG);   /* ВаЋв░ЕьќЦ(вўљвіћ IMUВѓг
 2647              		.loc 1 562 22 discriminator 4 view .LVU820
 2648 0202 0022     		movs	r2, #0
 2649              	.L197:
 562:Core/Src/drive.c ****     uint8_t fwd_ok   = (!in->imu_live || course_dev < COURSE_REV_DEG);   /* ВаЋв░ЕьќЦ(вўљвіћ IMUВѓг
 2650              		.loc 1 562 22 discriminator 6 view .LVU821
 2651 0204 314B     		ldr	r3, .L258+28
 2652 0206 9A76     		strb	r2, [r3, #26]
 563:Core/Src/drive.c **** 
 2653              		.loc 1 563 5 is_stmt 1 view .LVU822
 563:Core/Src/drive.c **** 
 2654              		.loc 1 563 28 is_stmt 0 view .LVU823
 2655 0208 037C     		ldrb	r3, [r0, #16]	@ zero_extendqisi2
 563:Core/Src/drive.c **** 
 2656              		.loc 1 563 39 view .LVU824
 2657 020a 53B1     		cbz	r3, .L226
 563:Core/Src/drive.c **** 
 2658              		.loc 1 563 39 discriminator 2 view .LVU825
 2659 020c 9FED347A 		vldr.32	s14, .L258+48
 2660 0210 F4EEC77A 		vcmpe.f32	s15, s14
 2661 0214 F1EE10FA 		vmrs	APSR_nzcv, FPSCR
 2662 0218 3BD5     		bpl	.L247
ARM GAS  C:\Users\user\AppData\Local\Temp\cc6kGr5c.s 			page 69


 563:Core/Src/drive.c **** 
 2663              		.loc 1 563 39 discriminator 3 view .LVU826
 2664 021a 0122     		movs	r2, #1
 2665 021c 02E0     		b	.L198
 2666              	.L225:
 562:Core/Src/drive.c ****     uint8_t fwd_ok   = (!in->imu_live || course_dev < COURSE_REV_DEG);   /* ВаЋв░ЕьќЦ(вўљвіћ IMUВѓг
 2667              		.loc 1 562 22 discriminator 3 view .LVU827
 2668 021e 0122     		movs	r2, #1
 2669 0220 F0E7     		b	.L197
 2670              	.L226:
 563:Core/Src/drive.c **** 
 2671              		.loc 1 563 39 discriminator 3 view .LVU828
 2672 0222 0122     		movs	r2, #1
 2673              	.L198:
 563:Core/Src/drive.c **** 
 2674              		.loc 1 563 13 discriminator 6 view .LVU829
 2675 0224 D1B2     		uxtb	r1, r2
 2676              	.LVL216:
 568:Core/Src/drive.c ****     {
 2677              		.loc 1 568 5 is_stmt 1 view .LVU830
 568:Core/Src/drive.c ****     {
 2678              		.loc 1 568 11 is_stmt 0 view .LVU831
 2679 0226 0288     		ldrh	r2, [r0]
 568:Core/Src/drive.c ****     {
 2680              		.loc 1 568 8 view .LVU832
 2681 0228 252A     		cmp	r2, #37
 2682 022a 63D9     		bls	.L200
 568:Core/Src/drive.c ****     {
 2683              		.loc 1 568 38 discriminator 1 view .LVU833
 2684 022c 8479     		ldrb	r4, [r0, #6]	@ zero_extendqisi2
 568:Core/Src/drive.c ****     {
 2685              		.loc 1 568 33 discriminator 1 view .LVU834
 2686 022e 002C     		cmp	r4, #0
 2687 0230 60D0     		beq	.L200
 570:Core/Src/drive.c ****         if (clear_cnt >= CLEAR_CONFIRM && fwd_ok &&
 2688              		.loc 1 570 9 is_stmt 1 view .LVU835
 570:Core/Src/drive.c ****         if (clear_cnt >= CLEAR_CONFIRM && fwd_ok &&
 2689              		.loc 1 570 23 is_stmt 0 view .LVU836
 2690 0232 2E4C     		ldr	r4, .L258+60
 2691 0234 2478     		ldrb	r4, [r4]	@ zero_extendqisi2
 570:Core/Src/drive.c ****         if (clear_cnt >= CLEAR_CONFIRM && fwd_ok &&
 2692              		.loc 1 570 12 view .LVU837
 2693 0236 FF2C     		cmp	r4, #255
 2694 0238 02D0     		beq	.L201
 570:Core/Src/drive.c ****         if (clear_cnt >= CLEAR_CONFIRM && fwd_ok &&
 2695              		.loc 1 570 30 is_stmt 1 discriminator 1 view .LVU838
 570:Core/Src/drive.c ****         if (clear_cnt >= CLEAR_CONFIRM && fwd_ok &&
 2696              		.loc 1 570 39 is_stmt 0 discriminator 1 view .LVU839
 2697 023a 0134     		adds	r4, r4, #1
 2698 023c 2B4D     		ldr	r5, .L258+60
 2699 023e 2C70     		strb	r4, [r5]
 2700              	.L201:
 571:Core/Src/drive.c ****             (!in->imu_live || (h_entry_valid && fabsf(wrap180(in->heading - h_entry)) >= TURN_MIN_D
 2701              		.loc 1 571 9 is_stmt 1 view .LVU840
 571:Core/Src/drive.c ****             (!in->imu_live || (h_entry_valid && fabsf(wrap180(in->heading - h_entry)) >= TURN_MIN_D
 2702              		.loc 1 571 23 is_stmt 0 view .LVU841
 2703 0240 2A4C     		ldr	r4, .L258+60
ARM GAS  C:\Users\user\AppData\Local\Temp\cc6kGr5c.s 			page 70


 2704 0242 2478     		ldrb	r4, [r4]	@ zero_extendqisi2
 571:Core/Src/drive.c ****             (!in->imu_live || (h_entry_valid && fabsf(wrap180(in->heading - h_entry)) >= TURN_MIN_D
 2705              		.loc 1 571 12 view .LVU842
 2706 0244 042C     		cmp	r4, #4
 2707 0246 5CD9     		bls	.L202
 571:Core/Src/drive.c ****             (!in->imu_live || (h_entry_valid && fabsf(wrap180(in->heading - h_entry)) >= TURN_MIN_D
 2708              		.loc 1 571 40 discriminator 1 view .LVU843
 2709 0248 0029     		cmp	r1, #0
 2710 024a 5AD0     		beq	.L202
 571:Core/Src/drive.c ****             (!in->imu_live || (h_entry_valid && fabsf(wrap180(in->heading - h_entry)) >= TURN_MIN_D
 2711              		.loc 1 571 50 discriminator 2 view .LVU844
 2712 024c F3B1     		cbz	r3, .L203
 572:Core/Src/drive.c ****         {
 2713              		.loc 1 572 32 view .LVU845
 2714 024e 194C     		ldr	r4, .L258+4
 2715 0250 2478     		ldrb	r4, [r4]	@ zero_extendqisi2
 572:Core/Src/drive.c ****         {
 2716              		.loc 1 572 28 view .LVU846
 2717 0252 002C     		cmp	r4, #0
 2718 0254 55D0     		beq	.L202
 572:Core/Src/drive.c ****         {
 2719              		.loc 1 572 65 discriminator 1 view .LVU847
 2720 0256 D0ED037A 		vldr.32	s15, [r0, #12]
 2721              	.LVL217:
 572:Core/Src/drive.c ****         {
 2722              		.loc 1 572 55 discriminator 1 view .LVU848
 2723 025a 174C     		ldr	r4, .L258+8
 2724 025c 94ED007A 		vldr.32	s14, [r4]
 2725 0260 77EEC77A 		vsub.f32	s15, s15, s14
 2726              	.LVL218:
 2727              	.LBB64:
 2728              	.LBI64:
  89:Core/Src/drive.c **** {
 2729              		.loc 1 89 21 is_stmt 1 view .LVU849
 2730              	.LBB65:
  91:Core/Src/drive.c ****     else if (a <= -180.0f) a += 360.0f;
 2731              		.loc 1 91 5 view .LVU850
  91:Core/Src/drive.c ****     else if (a <= -180.0f) a += 360.0f;
 2732              		.loc 1 91 13 is_stmt 0 view .LVU851
 2733 0264 9FED177A 		vldr.32	s14, .L258+20
 2734 0268 F4EEC77A 		vcmpe.f32	s15, s14
 2735 026c F1EE10FA 		vmrs	APSR_nzcv, FPSCR
 2736 0270 11DD     		ble	.L248
  91:Core/Src/drive.c ****     else if (a <= -180.0f) a += 360.0f;
 2737              		.loc 1 91 28 is_stmt 1 discriminator 1 view .LVU852
  91:Core/Src/drive.c ****     else if (a <= -180.0f) a += 360.0f;
 2738              		.loc 1 91 30 is_stmt 0 discriminator 1 view .LVU853
 2739 0272 9FED157A 		vldr.32	s14, .L258+24
 2740 0276 77EEC77A 		vsub.f32	s15, s15, s14
 2741              	.LVL219:
 2742              	.L206:
  93:Core/Src/drive.c **** }
 2743              		.loc 1 93 5 is_stmt 1 view .LVU854
  93:Core/Src/drive.c **** }
 2744              		.loc 1 93 5 is_stmt 0 view .LVU855
 2745              	.LBE65:
 2746              	.LBE64:
ARM GAS  C:\Users\user\AppData\Local\Temp\cc6kGr5c.s 			page 71


 572:Core/Src/drive.c ****         {
 2747              		.loc 1 572 49 discriminator 1 view .LVU856
 2748 027a F0EEE77A 		vabs.f32	s15, s15
 572:Core/Src/drive.c ****         {
 2749              		.loc 1 572 46 discriminator 1 view .LVU857
 2750 027e 9FED1C7A 		vldr.32	s14, .L258+64
 2751 0282 F4EEC77A 		vcmpe.f32	s15, s14
 2752 0286 F1EE10FA 		vmrs	APSR_nzcv, FPSCR
 2753 028a 3ADB     		blt	.L202
 2754              	.L203:
 574:Core/Src/drive.c ****             return;
 2755              		.loc 1 574 13 is_stmt 1 view .LVU858
 2756 028c FFF7FEFF 		bl	cruise_enter
 2757              	.LVL220:
 575:Core/Src/drive.c ****         }
 2758              		.loc 1 575 13 view .LVU859
 2759 0290 8AE0     		b	.L170
 2760              	.LVL221:
 2761              	.L247:
 563:Core/Src/drive.c **** 
 2762              		.loc 1 563 39 is_stmt 0 discriminator 4 view .LVU860
 2763 0292 0022     		movs	r2, #0
 2764 0294 C6E7     		b	.L198
 2765              	.LVL222:
 2766              	.L248:
 2767              	.LBB67:
 2768              	.LBB66:
  92:Core/Src/drive.c ****     return a;
 2769              		.loc 1 92 10 is_stmt 1 view .LVU861
  92:Core/Src/drive.c ****     return a;
 2770              		.loc 1 92 13 is_stmt 0 view .LVU862
 2771 0296 9FED137A 		vldr.32	s14, .L258+52
 2772 029a F4EEC77A 		vcmpe.f32	s15, s14
 2773 029e F1EE10FA 		vmrs	APSR_nzcv, FPSCR
 2774 02a2 EAD8     		bhi	.L206
  92:Core/Src/drive.c ****     return a;
 2775              		.loc 1 92 28 is_stmt 1 discriminator 1 view .LVU863
  92:Core/Src/drive.c ****     return a;
 2776              		.loc 1 92 30 is_stmt 0 discriminator 1 view .LVU864
 2777 02a4 9FED087A 		vldr.32	s14, .L258+24
 2778 02a8 77EE877A 		vadd.f32	s15, s15, s14
 2779              	.LVL223:
  92:Core/Src/drive.c ****     return a;
 2780              		.loc 1 92 30 discriminator 1 view .LVU865
 2781 02ac E5E7     		b	.L206
 2782              	.L259:
 2783 02ae 00BF     		.align	2
 2784              	.L258:
 2785 02b0 00000000 		.word	rev_cnt
 2786 02b4 00000000 		.word	h_entry_valid
 2787 02b8 00000000 		.word	h_entry
 2788 02bc 00000000 		.word	h_stuck
 2789 02c0 00000000 		.word	t_stuck
 2790 02c4 00003443 		.word	1127481344
 2791 02c8 0000B443 		.word	1135869952
 2792 02cc 00000000 		.word	dbg
 2793 02d0 00000000 		.word	t_state
ARM GAS  C:\Users\user\AppData\Local\Temp\cc6kGr5c.s 			page 72


 2794 02d4 00000000 		.word	turn_dir
 2795 02d8 00000000 		.word	swap_cnt
 2796 02dc 00000000 		.word	course_heading
 2797 02e0 00000743 		.word	1124532224
 2798 02e4 000034C3 		.word	-1020002304
 2799 02e8 00000000 		.word	0
 2800 02ec 00000000 		.word	clear_cnt
 2801 02f0 00007042 		.word	1114636288
 2802              	.LVL224:
 2803              	.L200:
  92:Core/Src/drive.c ****     return a;
 2804              		.loc 1 92 30 discriminator 1 view .LVU866
 2805              	.LBE66:
 2806              	.LBE67:
 578:Core/Src/drive.c ****     {
 2807              		.loc 1 578 10 is_stmt 1 view .LVU867
 578:Core/Src/drive.c ****     {
 2808              		.loc 1 578 13 is_stmt 0 view .LVU868
 2809 02f4 252A     		cmp	r2, #37
 2810 02f6 04D8     		bhi	.L202
 580:Core/Src/drive.c ****     }
 2811              		.loc 1 580 9 is_stmt 1 view .LVU869
 580:Core/Src/drive.c ****     }
 2812              		.loc 1 580 19 is_stmt 0 view .LVU870
 2813 02f8 3F4C     		ldr	r4, .L260
 2814 02fa 4FF0000C 		mov	ip, #0
 2815 02fe 84F800C0 		strb	ip, [r4]
 2816              	.LVL225:
 2817              	.L202:
 586:Core/Src/drive.c ****         && fabsf(wrap180(in->heading - h_entry)) >= TURN_TARGET_DEG
 2818              		.loc 1 586 5 is_stmt 1 view .LVU871
 586:Core/Src/drive.c ****         && fabsf(wrap180(in->heading - h_entry)) >= TURN_TARGET_DEG
 2819              		.loc 1 586 8 is_stmt 0 view .LVU872
 2820 0302 13B3     		cbz	r3, .L209
 586:Core/Src/drive.c ****         && fabsf(wrap180(in->heading - h_entry)) >= TURN_TARGET_DEG
 2821              		.loc 1 586 22 discriminator 1 view .LVU873
 2822 0304 3D4C     		ldr	r4, .L260+4
 2823 0306 2478     		ldrb	r4, [r4]	@ zero_extendqisi2
 2824 0308 FCB1     		cbz	r4, .L209
 586:Core/Src/drive.c ****         && fabsf(wrap180(in->heading - h_entry)) >= TURN_TARGET_DEG
 2825              		.loc 1 586 44 discriminator 2 view .LVU874
 2826 030a 8479     		ldrb	r4, [r0, #6]	@ zero_extendqisi2
 586:Core/Src/drive.c ****         && fabsf(wrap180(in->heading - h_entry)) >= TURN_TARGET_DEG
 2827              		.loc 1 586 39 discriminator 2 view .LVU875
 2828 030c ECB1     		cbz	r4, .L209
 586:Core/Src/drive.c ****         && fabsf(wrap180(in->heading - h_entry)) >= TURN_TARGET_DEG
 2829              		.loc 1 586 54 discriminator 3 view .LVU876
 2830 030e E1B1     		cbz	r1, .L209
 587:Core/Src/drive.c ****         && in->f >= FRONT_TURN_CM)
 2831              		.loc 1 587 28 view .LVU877
 2832 0310 D0ED037A 		vldr.32	s15, [r0, #12]
 587:Core/Src/drive.c ****         && in->f >= FRONT_TURN_CM)
 2833              		.loc 1 587 18 view .LVU878
 2834 0314 3A4C     		ldr	r4, .L260+8
 2835 0316 94ED007A 		vldr.32	s14, [r4]
 2836 031a 77EEC77A 		vsub.f32	s15, s15, s14
 2837              	.LVL226:
ARM GAS  C:\Users\user\AppData\Local\Temp\cc6kGr5c.s 			page 73


 2838              	.LBB68:
 2839              	.LBI68:
  89:Core/Src/drive.c **** {
 2840              		.loc 1 89 21 is_stmt 1 view .LVU879
 2841              	.LBB69:
  91:Core/Src/drive.c ****     else if (a <= -180.0f) a += 360.0f;
 2842              		.loc 1 91 5 view .LVU880
  91:Core/Src/drive.c ****     else if (a <= -180.0f) a += 360.0f;
 2843              		.loc 1 91 13 is_stmt 0 view .LVU881
 2844 031e 9FED397A 		vldr.32	s14, .L260+12
 2845 0322 F4EEC77A 		vcmpe.f32	s15, s14
 2846 0326 F1EE10FA 		vmrs	APSR_nzcv, FPSCR
 2847 032a 3EDD     		ble	.L249
  91:Core/Src/drive.c ****     else if (a <= -180.0f) a += 360.0f;
 2848              		.loc 1 91 28 is_stmt 1 discriminator 1 view .LVU882
  91:Core/Src/drive.c ****     else if (a <= -180.0f) a += 360.0f;
 2849              		.loc 1 91 30 is_stmt 0 discriminator 1 view .LVU883
 2850 032c 9FED367A 		vldr.32	s14, .L260+16
 2851 0330 77EEC77A 		vsub.f32	s15, s15, s14
 2852              	.LVL227:
 2853              	.L212:
  93:Core/Src/drive.c **** }
 2854              		.loc 1 93 5 is_stmt 1 view .LVU884
  93:Core/Src/drive.c **** }
 2855              		.loc 1 93 5 is_stmt 0 view .LVU885
 2856              	.LBE69:
 2857              	.LBE68:
 587:Core/Src/drive.c ****         && in->f >= FRONT_TURN_CM)
 2858              		.loc 1 587 12 discriminator 1 view .LVU886
 2859 0334 F0EEE77A 		vabs.f32	s15, s15
 587:Core/Src/drive.c ****         && in->f >= FRONT_TURN_CM)
 2860              		.loc 1 587 9 discriminator 1 view .LVU887
 2861 0338 9FED347A 		vldr.32	s14, .L260+20
 2862 033c F4EEC77A 		vcmpe.f32	s15, s14
 2863 0340 F1EE10FA 		vmrs	APSR_nzcv, FPSCR
 2864 0344 01DB     		blt	.L209
 588:Core/Src/drive.c ****     {
 2865              		.loc 1 588 9 view .LVU888
 2866 0346 1D2A     		cmp	r2, #29
 2867 0348 3BD8     		bhi	.L255
 2868              	.L209:
 599:Core/Src/drive.c ****         && fabsf(wrap180(in->heading - h_entry)) >= TURN_CUTOFF_DEG)
 2869              		.loc 1 599 5 is_stmt 1 view .LVU889
 599:Core/Src/drive.c ****         && fabsf(wrap180(in->heading - h_entry)) >= TURN_CUTOFF_DEG)
 2870              		.loc 1 599 8 is_stmt 0 view .LVU890
 2871 034a F3B1     		cbz	r3, .L215
 599:Core/Src/drive.c ****         && fabsf(wrap180(in->heading - h_entry)) >= TURN_CUTOFF_DEG)
 2872              		.loc 1 599 22 discriminator 1 view .LVU891
 2873 034c 2B4B     		ldr	r3, .L260+4
 2874 034e 1B78     		ldrb	r3, [r3]	@ zero_extendqisi2
 2875 0350 DBB1     		cbz	r3, .L215
 599:Core/Src/drive.c ****         && fabsf(wrap180(in->heading - h_entry)) >= TURN_CUTOFF_DEG)
 2876              		.loc 1 599 39 discriminator 2 view .LVU892
 2877 0352 D1B1     		cbz	r1, .L215
 600:Core/Src/drive.c ****     {
 2878              		.loc 1 600 28 view .LVU893
 2879 0354 D0ED037A 		vldr.32	s15, [r0, #12]
ARM GAS  C:\Users\user\AppData\Local\Temp\cc6kGr5c.s 			page 74


 600:Core/Src/drive.c ****     {
 2880              		.loc 1 600 18 view .LVU894
 2881 0358 294B     		ldr	r3, .L260+8
 2882 035a 93ED007A 		vldr.32	s14, [r3]
 2883 035e 77EEC77A 		vsub.f32	s15, s15, s14
 2884              	.LVL228:
 2885              	.LBB71:
 2886              	.LBI71:
  89:Core/Src/drive.c **** {
 2887              		.loc 1 89 21 is_stmt 1 view .LVU895
 2888              	.LBB72:
  91:Core/Src/drive.c ****     else if (a <= -180.0f) a += 360.0f;
 2889              		.loc 1 91 5 view .LVU896
  91:Core/Src/drive.c ****     else if (a <= -180.0f) a += 360.0f;
 2890              		.loc 1 91 13 is_stmt 0 view .LVU897
 2891 0362 9FED287A 		vldr.32	s14, .L260+12
 2892 0366 F4EEC77A 		vcmpe.f32	s15, s14
 2893 036a F1EE10FA 		vmrs	APSR_nzcv, FPSCR
 2894 036e 2BDD     		ble	.L250
  91:Core/Src/drive.c ****     else if (a <= -180.0f) a += 360.0f;
 2895              		.loc 1 91 28 is_stmt 1 discriminator 1 view .LVU898
  91:Core/Src/drive.c ****     else if (a <= -180.0f) a += 360.0f;
 2896              		.loc 1 91 30 is_stmt 0 discriminator 1 view .LVU899
 2897 0370 9FED257A 		vldr.32	s14, .L260+16
 2898 0374 77EEC77A 		vsub.f32	s15, s15, s14
 2899              	.LVL229:
 2900              	.L218:
  93:Core/Src/drive.c **** }
 2901              		.loc 1 93 5 is_stmt 1 view .LVU900
  93:Core/Src/drive.c **** }
 2902              		.loc 1 93 5 is_stmt 0 view .LVU901
 2903              	.LBE72:
 2904              	.LBE71:
 600:Core/Src/drive.c ****     {
 2905              		.loc 1 600 12 discriminator 1 view .LVU902
 2906 0378 F0EEE77A 		vabs.f32	s15, s15
 600:Core/Src/drive.c ****     {
 2907              		.loc 1 600 9 discriminator 1 view .LVU903
 2908 037c 9FED247A 		vldr.32	s14, .L260+24
 2909 0380 F4EEC77A 		vcmpe.f32	s15, s14
 2910 0384 F1EE10FA 		vmrs	APSR_nzcv, FPSCR
 2911 0388 2ADA     		bge	.L256
 2912              	.L215:
 609:Core/Src/drive.c ****     {
 2913              		.loc 1 609 5 is_stmt 1 view .LVU904
 609:Core/Src/drive.c ****     {
 2914              		.loc 1 609 12 is_stmt 0 view .LVU905
 2915 038a 4369     		ldr	r3, [r0, #20]
 609:Core/Src/drive.c ****     {
 2916              		.loc 1 609 18 view .LVU906
 2917 038c 214A     		ldr	r2, .L260+28
 2918 038e 1268     		ldr	r2, [r2]
 2919 0390 9B1A     		subs	r3, r3, r2
 609:Core/Src/drive.c ****     {
 2920              		.loc 1 609 8 view .LVU907
 2921 0392 B3F5487F 		cmp	r3, #800
 2922 0396 00D3     		bcc	.L221
ARM GAS  C:\Users\user\AppData\Local\Temp\cc6kGr5c.s 			page 75


 609:Core/Src/drive.c ****     {
 2923              		.loc 1 609 56 discriminator 1 view .LVU908
 2924 0398 29BB     		cbnz	r1, .L257
 2925              	.L221:
 616:Core/Src/drive.c ****     else               Car_PivotRight(TURN_SPEED, TURN_INNER);
 2926              		.loc 1 616 5 is_stmt 1 view .LVU909
 616:Core/Src/drive.c ****     else               Car_PivotRight(TURN_SPEED, TURN_INNER);
 2927              		.loc 1 616 18 is_stmt 0 view .LVU910
 2928 039a 1F4B     		ldr	r3, .L260+32
 2929 039c 1B78     		ldrb	r3, [r3]	@ zero_extendqisi2
 616:Core/Src/drive.c ****     else               Car_PivotRight(TURN_SPEED, TURN_INNER);
 2930              		.loc 1 616 8 view .LVU911
 2931 039e 2BBB     		cbnz	r3, .L222
 616:Core/Src/drive.c ****     else               Car_PivotRight(TURN_SPEED, TURN_INNER);
 2932              		.loc 1 616 24 is_stmt 1 discriminator 1 view .LVU912
 2933 03a0 3621     		movs	r1, #54
 2934              	.LVL230:
 616:Core/Src/drive.c ****     else               Car_PivotRight(TURN_SPEED, TURN_INNER);
 2935              		.loc 1 616 24 is_stmt 0 discriminator 1 view .LVU913
 2936 03a2 2C20     		movs	r0, #44
 2937              	.LVL231:
 616:Core/Src/drive.c ****     else               Car_PivotRight(TURN_SPEED, TURN_INNER);
 2938              		.loc 1 616 24 discriminator 1 view .LVU914
 2939 03a4 FFF7FEFF 		bl	Car_PivotLeft
 2940              	.LVL232:
 2941              	.L170:
 618:Core/Src/drive.c **** 
 2942              		.loc 1 618 1 view .LVU915
 2943 03a8 38BD     		pop	{r3, r4, r5, pc}
 2944              	.LVL233:
 2945              	.L249:
 2946              	.LBB74:
 2947              	.LBB70:
  92:Core/Src/drive.c ****     return a;
 2948              		.loc 1 92 10 is_stmt 1 view .LVU916
  92:Core/Src/drive.c ****     return a;
 2949              		.loc 1 92 13 is_stmt 0 view .LVU917
 2950 03aa 9FED1C7A 		vldr.32	s14, .L260+36
 2951 03ae F4EEC77A 		vcmpe.f32	s15, s14
 2952 03b2 F1EE10FA 		vmrs	APSR_nzcv, FPSCR
 2953 03b6 BDD8     		bhi	.L212
  92:Core/Src/drive.c ****     return a;
 2954              		.loc 1 92 28 is_stmt 1 discriminator 1 view .LVU918
  92:Core/Src/drive.c ****     return a;
 2955              		.loc 1 92 30 is_stmt 0 discriminator 1 view .LVU919
 2956 03b8 9FED137A 		vldr.32	s14, .L260+16
 2957 03bc 77EE877A 		vadd.f32	s15, s15, s14
 2958              	.LVL234:
  92:Core/Src/drive.c ****     return a;
 2959              		.loc 1 92 30 discriminator 1 view .LVU920
 2960 03c0 B8E7     		b	.L212
 2961              	.LVL235:
 2962              	.L255:
  92:Core/Src/drive.c ****     return a;
 2963              		.loc 1 92 30 discriminator 1 view .LVU921
 2964              	.LBE70:
 2965              	.LBE74:
ARM GAS  C:\Users\user\AppData\Local\Temp\cc6kGr5c.s 			page 76


 590:Core/Src/drive.c ****         return;
 2966              		.loc 1 590 9 is_stmt 1 view .LVU922
 2967 03c2 FFF7FEFF 		bl	cruise_enter
 2968              	.LVL236:
 591:Core/Src/drive.c ****     }
 2969              		.loc 1 591 9 view .LVU923
 2970 03c6 EFE7     		b	.L170
 2971              	.LVL237:
 2972              	.L250:
 2973              	.LBB75:
 2974              	.LBB73:
  92:Core/Src/drive.c ****     return a;
 2975              		.loc 1 92 10 view .LVU924
  92:Core/Src/drive.c ****     return a;
 2976              		.loc 1 92 13 is_stmt 0 view .LVU925
 2977 03c8 9FED147A 		vldr.32	s14, .L260+36
 2978 03cc F4EEC77A 		vcmpe.f32	s15, s14
 2979 03d0 F1EE10FA 		vmrs	APSR_nzcv, FPSCR
 2980 03d4 D0D8     		bhi	.L218
  92:Core/Src/drive.c ****     return a;
 2981              		.loc 1 92 28 is_stmt 1 discriminator 1 view .LVU926
  92:Core/Src/drive.c ****     return a;
 2982              		.loc 1 92 30 is_stmt 0 discriminator 1 view .LVU927
 2983 03d6 9FED0C7A 		vldr.32	s14, .L260+16
 2984 03da 77EE877A 		vadd.f32	s15, s15, s14
 2985              	.LVL238:
  92:Core/Src/drive.c ****     return a;
 2986              		.loc 1 92 30 discriminator 1 view .LVU928
 2987 03de CBE7     		b	.L218
 2988              	.LVL239:
 2989              	.L256:
  92:Core/Src/drive.c ****     return a;
 2990              		.loc 1 92 30 discriminator 1 view .LVU929
 2991              	.LBE73:
 2992              	.LBE75:
 602:Core/Src/drive.c ****         return;
 2993              		.loc 1 602 9 is_stmt 1 view .LVU930
 2994 03e0 FFF7FEFF 		bl	cruise_enter
 2995              	.LVL240:
 603:Core/Src/drive.c ****     }
 2996              		.loc 1 603 9 view .LVU931
 2997 03e4 E0E7     		b	.L170
 2998              	.LVL241:
 2999              	.L257:
 611:Core/Src/drive.c ****         return;
 3000              		.loc 1 611 9 view .LVU932
 3001 03e6 FFF7FEFF 		bl	cruise_enter
 3002              	.LVL242:
 612:Core/Src/drive.c ****     }
 3003              		.loc 1 612 9 view .LVU933
 3004 03ea DDE7     		b	.L170
 3005              	.LVL243:
 3006              	.L222:
 617:Core/Src/drive.c **** }
 3007              		.loc 1 617 24 view .LVU934
 3008 03ec 3621     		movs	r1, #54
 3009              	.LVL244:
ARM GAS  C:\Users\user\AppData\Local\Temp\cc6kGr5c.s 			page 77


 617:Core/Src/drive.c **** }
 3010              		.loc 1 617 24 is_stmt 0 view .LVU935
 3011 03ee 2C20     		movs	r0, #44
 3012              	.LVL245:
 617:Core/Src/drive.c **** }
 3013              		.loc 1 617 24 view .LVU936
 3014 03f0 FFF7FEFF 		bl	Car_PivotRight
 3015              	.LVL246:
 3016 03f4 D8E7     		b	.L170
 3017              	.L261:
 3018 03f6 00BF     		.align	2
 3019              	.L260:
 3020 03f8 00000000 		.word	clear_cnt
 3021 03fc 00000000 		.word	h_entry_valid
 3022 0400 00000000 		.word	h_entry
 3023 0404 00003443 		.word	1127481344
 3024 0408 0000B443 		.word	1135869952
 3025 040c 0000AA42 		.word	1118437376
 3026 0410 0000C842 		.word	1120403456
 3027 0414 00000000 		.word	t_spin0
 3028 0418 00000000 		.word	turn_dir
 3029 041c 000034C3 		.word	-1020002304
 3030              		.cfi_endproc
 3031              	.LFE151:
 3033              		.section	.text.side_avoid_run,"ax",%progbits
 3034              		.align	1
 3035              		.syntax unified
 3036              		.thumb
 3037              		.thumb_func
 3039              	side_avoid_run:
 3040              	.LVL247:
 3041              	.LFB155:
 699:Core/Src/drive.c **** 
 700:Core/Src/drive.c **** /* SIDE_AVOID: ВИАв▓й в░ЋЖИ░ВДЂВаё в╣ёВЃЂ ьџїьћ╝. в░Ћьъї Вфй в░ўвїђвАю ВаюВъљвдг ьћ╝в▓ЌьЋўвЕ░ ВИАвЕ
 701:Core/Src/drive.c **** static void side_avoid_run(const DriveInputs *in)
 702:Core/Src/drive.c **** {
 3042              		.loc 1 702 1 is_stmt 1 view -0
 3043              		.cfi_startproc
 3044              		@ args = 0, pretend = 0, frame = 0
 3045              		@ frame_needed = 0, uses_anonymous_args = 0
 3046              		.loc 1 702 1 is_stmt 0 view .LVU938
 3047 0000 08B5     		push	{r3, lr}
 3048              	.LCFI23:
 3049              		.cfi_def_cfa_offset 8
 3050              		.cfi_offset 3, -8
 3051              		.cfi_offset 14, -4
 703:Core/Src/drive.c ****     /* ВаЋвЕ┤ ВюёЖИЅ Вџ░Вёа Рђћ ВИАвЕ┤ ьћ╝ьЋўвІц ВаЋвЕ┤ в░Ћвіћ Ж▓Ѓ в░ЕВДђ */
 704:Core/Src/drive.c ****     if (in->f < FRONT_STOP_CM) { brake_enter(in); return; }
 3052              		.loc 1 704 5 is_stmt 1 view .LVU939
 3053              		.loc 1 704 11 is_stmt 0 view .LVU940
 3054 0002 0388     		ldrh	r3, [r0]
 3055              		.loc 1 704 8 view .LVU941
 3056 0004 132B     		cmp	r3, #19
 3057 0006 1ED9     		bls	.L269
 705:Core/Src/drive.c **** 
 706:Core/Src/drive.c ****     /* ВИАвЕ┤ ьіИВъё(ьъѕВіцьЁївдгВІюВіц) Рєњ CRUISE в│хЖиђ. cruise_enterЖ░ђ h_ref Ж░▒ВІа = ВЃѕ ВДёь
 707:Core/Src/drive.c ****     if (in->side_valid)
ARM GAS  C:\Users\user\AppData\Local\Temp\cc6kGr5c.s 			page 78


 3058              		.loc 1 707 5 is_stmt 1 view .LVU942
 3059              		.loc 1 707 11 is_stmt 0 view .LVU943
 3060 0008 C379     		ldrb	r3, [r0, #7]	@ zero_extendqisi2
 3061              		.loc 1 707 8 view .LVU944
 3062 000a 33B1     		cbz	r3, .L265
 3063              	.LBB76:
 708:Core/Src/drive.c ****     {
 709:Core/Src/drive.c ****         uint16_t smin = (in->l < in->r) ? in->l : in->r;
 3064              		.loc 1 709 9 is_stmt 1 view .LVU945
 3065              		.loc 1 709 36 is_stmt 0 view .LVU946
 3066 000c 8388     		ldrh	r3, [r0, #4]
 3067              		.loc 1 709 28 view .LVU947
 3068 000e 4288     		ldrh	r2, [r0, #2]
 3069              		.loc 1 709 18 view .LVU948
 3070 0010 9342     		cmp	r3, r2
 3071 0012 28BF     		it	cs
 3072 0014 1346     		movcs	r3, r2
 3073              	.LVL248:
 710:Core/Src/drive.c ****         if (smin >= SIDE_AVOID_CLEAR_CM) { cruise_enter(in); return; }
 3074              		.loc 1 710 9 is_stmt 1 view .LVU949
 3075              		.loc 1 710 12 is_stmt 0 view .LVU950
 3076 0016 052B     		cmp	r3, #5
 3077 0018 18D8     		bhi	.L270
 3078              	.LVL249:
 3079              	.L265:
 3080              		.loc 1 710 12 view .LVU951
 3081              	.LBE76:
 711:Core/Src/drive.c ****     }
 712:Core/Src/drive.c **** 
 713:Core/Src/drive.c ****     /* ьЋю в░ЕьќЦВю╝вАю вф╗ в╣аВДђвЕ┤ в░ЕьќЦ flip ьЏё ВъгВІювЈё (ВќЉВфй ВбЂВЮђ вЂ╝Въё в░▒Віцьє▒) */
 714:Core/Src/drive.c ****     if ((in->now - t_state) > (uint32_t)SIDE_AVOID_MAX_MS)
 3082              		.loc 1 714 5 is_stmt 1 view .LVU952
 3083              		.loc 1 714 12 is_stmt 0 view .LVU953
 3084 001a 4269     		ldr	r2, [r0, #20]
 3085              		.loc 1 714 18 view .LVU954
 3086 001c 0F4B     		ldr	r3, .L271
 3087 001e 1B68     		ldr	r3, [r3]
 3088 0020 D31A     		subs	r3, r2, r3
 3089              		.loc 1 714 8 view .LVU955
 3090 0022 B3F5167F 		cmp	r3, #600
 3091 0026 06D9     		bls	.L266
 715:Core/Src/drive.c ****     {
 716:Core/Src/drive.c ****         turn_dir ^= 1;
 3092              		.loc 1 716 9 is_stmt 1 view .LVU956
 3093              		.loc 1 716 18 is_stmt 0 view .LVU957
 3094 0028 0D49     		ldr	r1, .L271+4
 3095 002a 0B78     		ldrb	r3, [r1]	@ zero_extendqisi2
 3096 002c 83F00103 		eor	r3, r3, #1
 3097 0030 0B70     		strb	r3, [r1]
 717:Core/Src/drive.c ****         t_state = in->now;
 3098              		.loc 1 717 9 is_stmt 1 view .LVU958
 3099              		.loc 1 717 17 is_stmt 0 view .LVU959
 3100 0032 0A4B     		ldr	r3, .L271
 3101 0034 1A60     		str	r2, [r3]
 3102              	.L266:
 718:Core/Src/drive.c ****     }
 719:Core/Src/drive.c **** 
ARM GAS  C:\Users\user\AppData\Local\Temp\cc6kGr5c.s 			page 79


 720:Core/Src/drive.c ****     /* в░Ћьъї Вфй в░ўвїђвАю ВаюВъљвдг ьћ╝в▓Ќ (ВаёВДё 0 Рђћ 'вЕѕВХћЖ│а в░ЕьќЦ ВъАЖИ░') */
 721:Core/Src/drive.c ****     if (turn_dir == 0) Car_PivotLeft(TURN_SPEED, TURN_INNER);
 3103              		.loc 1 721 5 is_stmt 1 view .LVU960
 3104              		.loc 1 721 18 is_stmt 0 view .LVU961
 3105 0036 0A4B     		ldr	r3, .L271+4
 3106 0038 1B78     		ldrb	r3, [r3]	@ zero_extendqisi2
 3107              		.loc 1 721 8 view .LVU962
 3108 003a 53B9     		cbnz	r3, .L267
 3109              		.loc 1 721 24 is_stmt 1 discriminator 1 view .LVU963
 3110 003c 3621     		movs	r1, #54
 3111 003e 2C20     		movs	r0, #44
 3112              	.LVL250:
 3113              		.loc 1 721 24 is_stmt 0 discriminator 1 view .LVU964
 3114 0040 FFF7FEFF 		bl	Car_PivotLeft
 3115              	.LVL251:
 3116              	.L262:
 722:Core/Src/drive.c ****     else               Car_PivotRight(TURN_SPEED, TURN_INNER);
 723:Core/Src/drive.c **** }
 3117              		.loc 1 723 1 view .LVU965
 3118 0044 08BD     		pop	{r3, pc}
 3119              	.LVL252:
 3120              	.L269:
 704:Core/Src/drive.c **** 
 3121              		.loc 1 704 34 is_stmt 1 discriminator 1 view .LVU966
 3122 0046 FFF7FEFF 		bl	brake_enter
 3123              	.LVL253:
 704:Core/Src/drive.c **** 
 3124              		.loc 1 704 51 discriminator 1 view .LVU967
 704:Core/Src/drive.c **** 
 3125              		.loc 1 704 51 is_stmt 0 view .LVU968
 3126 004a FBE7     		b	.L262
 3127              	.LVL254:
 3128              	.L270:
 3129              	.LBB77:
 710:Core/Src/drive.c ****     }
 3130              		.loc 1 710 44 is_stmt 1 discriminator 1 view .LVU969
 3131 004c FFF7FEFF 		bl	cruise_enter
 3132              	.LVL255:
 710:Core/Src/drive.c ****     }
 3133              		.loc 1 710 62 discriminator 1 view .LVU970
 710:Core/Src/drive.c ****     }
 3134              		.loc 1 710 62 is_stmt 0 view .LVU971
 3135 0050 F8E7     		b	.L262
 3136              	.LVL256:
 3137              	.L267:
 710:Core/Src/drive.c ****     }
 3138              		.loc 1 710 62 view .LVU972
 3139              	.LBE77:
 722:Core/Src/drive.c ****     else               Car_PivotRight(TURN_SPEED, TURN_INNER);
 3140              		.loc 1 722 24 is_stmt 1 view .LVU973
 3141 0052 3621     		movs	r1, #54
 3142 0054 2C20     		movs	r0, #44
 3143              	.LVL257:
 722:Core/Src/drive.c ****     else               Car_PivotRight(TURN_SPEED, TURN_INNER);
 3144              		.loc 1 722 24 is_stmt 0 view .LVU974
 3145 0056 FFF7FEFF 		bl	Car_PivotRight
 3146              	.LVL258:
ARM GAS  C:\Users\user\AppData\Local\Temp\cc6kGr5c.s 			page 80


 3147 005a F3E7     		b	.L262
 3148              	.L272:
 3149              		.align	2
 3150              	.L271:
 3151 005c 00000000 		.word	t_state
 3152 0060 00000000 		.word	turn_dir
 3153              		.cfi_endproc
 3154              	.LFE155:
 3156              		.section	.text.corner_run,"ax",%progbits
 3157              		.align	1
 3158              		.syntax unified
 3159              		.thumb
 3160              		.thumb_func
 3162              	corner_run:
 3163              	.LVL259:
 3164              	.LFB152:
 627:Core/Src/drive.c ****     if (in->imu_live && !h_entry_valid)
 3165              		.loc 1 627 1 is_stmt 1 view -0
 3166              		.cfi_startproc
 3167              		@ args = 0, pretend = 0, frame = 0
 3168              		@ frame_needed = 0, uses_anonymous_args = 0
 627:Core/Src/drive.c ****     if (in->imu_live && !h_entry_valid)
 3169              		.loc 1 627 1 is_stmt 0 view .LVU976
 3170 0000 10B5     		push	{r4, lr}
 3171              	.LCFI24:
 3172              		.cfi_def_cfa_offset 8
 3173              		.cfi_offset 4, -8
 3174              		.cfi_offset 14, -4
 628:Core/Src/drive.c ****     {
 3175              		.loc 1 628 5 is_stmt 1 view .LVU977
 628:Core/Src/drive.c ****     {
 3176              		.loc 1 628 11 is_stmt 0 view .LVU978
 3177 0002 017C     		ldrb	r1, [r0, #16]	@ zero_extendqisi2
 628:Core/Src/drive.c ****     {
 3178              		.loc 1 628 8 view .LVU979
 3179 0004 41B1     		cbz	r1, .L274
 628:Core/Src/drive.c ****     {
 3180              		.loc 1 628 25 discriminator 1 view .LVU980
 3181 0006 3F4B     		ldr	r3, .L298
 3182 0008 1B78     		ldrb	r3, [r3]	@ zero_extendqisi2
 628:Core/Src/drive.c ****     {
 3183              		.loc 1 628 22 discriminator 1 view .LVU981
 3184 000a 2BB9     		cbnz	r3, .L274
 630:Core/Src/drive.c ****         h_entry_valid = 1U;
 3185              		.loc 1 630 9 is_stmt 1 view .LVU982
 630:Core/Src/drive.c ****         h_entry_valid = 1U;
 3186              		.loc 1 630 21 is_stmt 0 view .LVU983
 3187 000c C268     		ldr	r2, [r0, #12]	@ float
 630:Core/Src/drive.c ****         h_entry_valid = 1U;
 3188              		.loc 1 630 17 view .LVU984
 3189 000e 3E4B     		ldr	r3, .L298+4
 3190 0010 1A60     		str	r2, [r3]	@ float
 631:Core/Src/drive.c ****     }
 3191              		.loc 1 631 9 is_stmt 1 view .LVU985
 631:Core/Src/drive.c ****     }
 3192              		.loc 1 631 23 is_stmt 0 view .LVU986
 3193 0012 3C4B     		ldr	r3, .L298
ARM GAS  C:\Users\user\AppData\Local\Temp\cc6kGr5c.s 			page 81


 3194 0014 0122     		movs	r2, #1
 3195 0016 1A70     		strb	r2, [r3]
 3196              	.L274:
 635:Core/Src/drive.c **** 
 3197              		.loc 1 635 5 is_stmt 1 view .LVU987
 635:Core/Src/drive.c **** 
 3198              		.loc 1 635 11 is_stmt 0 view .LVU988
 3199 0018 0388     		ldrh	r3, [r0]
 635:Core/Src/drive.c **** 
 3200              		.loc 1 635 8 view .LVU989
 3201 001a 132B     		cmp	r3, #19
 3202 001c 02D8     		bhi	.L275
 635:Core/Src/drive.c **** 
 3203              		.loc 1 635 36 discriminator 1 view .LVU990
 3204 001e 8279     		ldrb	r2, [r0, #6]	@ zero_extendqisi2
 635:Core/Src/drive.c **** 
 3205              		.loc 1 635 31 discriminator 1 view .LVU991
 3206 0020 002A     		cmp	r2, #0
 3207 0022 45D1     		bne	.L294
 3208              	.L275:
 638:Core/Src/drive.c ****     {
 3209              		.loc 1 638 5 is_stmt 1 view .LVU992
 638:Core/Src/drive.c ****     {
 3210              		.loc 1 638 11 is_stmt 0 view .LVU993
 3211 0024 C279     		ldrb	r2, [r0, #7]	@ zero_extendqisi2
 638:Core/Src/drive.c ****     {
 3212              		.loc 1 638 8 view .LVU994
 3213 0026 3AB1     		cbz	r2, .L277
 638:Core/Src/drive.c ****     {
 3214              		.loc 1 638 24 discriminator 1 view .LVU995
 3215 0028 072B     		cmp	r3, #7
 3216 002a 05D8     		bhi	.L277
 638:Core/Src/drive.c ****     {
 3217              		.loc 1 638 56 discriminator 2 view .LVU996
 3218 002c 4288     		ldrh	r2, [r0, #2]
 638:Core/Src/drive.c ****     {
 3219              		.loc 1 638 51 discriminator 2 view .LVU997
 3220 002e 032A     		cmp	r2, #3
 3221 0030 02D8     		bhi	.L277
 638:Core/Src/drive.c ****     {
 3222              		.loc 1 638 81 discriminator 3 view .LVU998
 3223 0032 8288     		ldrh	r2, [r0, #4]
 638:Core/Src/drive.c ****     {
 3224              		.loc 1 638 76 discriminator 3 view .LVU999
 3225 0034 032A     		cmp	r2, #3
 3226 0036 3ED9     		bls	.L295
 3227              	.L277:
 645:Core/Src/drive.c **** 
 3228              		.loc 1 645 5 is_stmt 1 view .LVU1000
 645:Core/Src/drive.c **** 
 3229              		.loc 1 645 12 is_stmt 0 view .LVU1001
 3230 0038 4269     		ldr	r2, [r0, #20]
 645:Core/Src/drive.c **** 
 3231              		.loc 1 645 18 view .LVU1002
 3232 003a 344C     		ldr	r4, .L298+8
 3233 003c 2468     		ldr	r4, [r4]
 3234 003e 121B     		subs	r2, r2, r4
ARM GAS  C:\Users\user\AppData\Local\Temp\cc6kGr5c.s 			page 82


 645:Core/Src/drive.c **** 
 3235              		.loc 1 645 8 view .LVU1003
 3236 0040 B2F5FA6F 		cmp	r2, #2000
 3237 0044 3AD8     		bhi	.L296
 648:Core/Src/drive.c ****         && fabsf(wrap180(in->heading - h_entry)) >= TURN_TARGET_DEG
 3238              		.loc 1 648 5 is_stmt 1 view .LVU1004
 648:Core/Src/drive.c ****         && fabsf(wrap180(in->heading - h_entry)) >= TURN_TARGET_DEG
 3239              		.loc 1 648 8 is_stmt 0 view .LVU1005
 3240 0046 09B3     		cbz	r1, .L279
 648:Core/Src/drive.c ****         && fabsf(wrap180(in->heading - h_entry)) >= TURN_TARGET_DEG
 3241              		.loc 1 648 22 discriminator 1 view .LVU1006
 3242 0048 2E4A     		ldr	r2, .L298
 3243 004a 1278     		ldrb	r2, [r2]	@ zero_extendqisi2
 3244 004c F2B1     		cbz	r2, .L279
 648:Core/Src/drive.c ****         && fabsf(wrap180(in->heading - h_entry)) >= TURN_TARGET_DEG
 3245              		.loc 1 648 44 discriminator 2 view .LVU1007
 3246 004e 8279     		ldrb	r2, [r0, #6]	@ zero_extendqisi2
 648:Core/Src/drive.c ****         && fabsf(wrap180(in->heading - h_entry)) >= TURN_TARGET_DEG
 3247              		.loc 1 648 39 discriminator 2 view .LVU1008
 3248 0050 E2B1     		cbz	r2, .L279
 649:Core/Src/drive.c ****         && in->f >= FRONT_TURN_CM)
 3249              		.loc 1 649 28 view .LVU1009
 3250 0052 D0ED037A 		vldr.32	s15, [r0, #12]
 649:Core/Src/drive.c ****         && in->f >= FRONT_TURN_CM)
 3251              		.loc 1 649 18 view .LVU1010
 3252 0056 2C4A     		ldr	r2, .L298+4
 3253 0058 92ED007A 		vldr.32	s14, [r2]
 3254 005c 77EEC77A 		vsub.f32	s15, s15, s14
 3255              	.LVL260:
 3256              	.LBB78:
 3257              	.LBI78:
  89:Core/Src/drive.c **** {
 3258              		.loc 1 89 21 is_stmt 1 view .LVU1011
 3259              	.LBB79:
  91:Core/Src/drive.c ****     else if (a <= -180.0f) a += 360.0f;
 3260              		.loc 1 91 5 view .LVU1012
  91:Core/Src/drive.c ****     else if (a <= -180.0f) a += 360.0f;
 3261              		.loc 1 91 13 is_stmt 0 view .LVU1013
 3262 0060 9FED2B7A 		vldr.32	s14, .L298+12
 3263 0064 F4EEC77A 		vcmpe.f32	s15, s14
 3264 0068 F1EE10FA 		vmrs	APSR_nzcv, FPSCR
 3265 006c 29DD     		ble	.L292
  91:Core/Src/drive.c ****     else if (a <= -180.0f) a += 360.0f;
 3266              		.loc 1 91 28 is_stmt 1 discriminator 1 view .LVU1014
  91:Core/Src/drive.c ****     else if (a <= -180.0f) a += 360.0f;
 3267              		.loc 1 91 30 is_stmt 0 discriminator 1 view .LVU1015
 3268 006e 9FED297A 		vldr.32	s14, .L298+16
 3269 0072 77EEC77A 		vsub.f32	s15, s15, s14
 3270              	.LVL261:
 3271              	.L282:
  93:Core/Src/drive.c **** }
 3272              		.loc 1 93 5 is_stmt 1 view .LVU1016
  93:Core/Src/drive.c **** }
 3273              		.loc 1 93 5 is_stmt 0 view .LVU1017
 3274              	.LBE79:
 3275              	.LBE78:
 649:Core/Src/drive.c ****         && in->f >= FRONT_TURN_CM)
ARM GAS  C:\Users\user\AppData\Local\Temp\cc6kGr5c.s 			page 83


 3276              		.loc 1 649 12 discriminator 1 view .LVU1018
 3277 0076 F0EEE77A 		vabs.f32	s15, s15
 649:Core/Src/drive.c ****         && in->f >= FRONT_TURN_CM)
 3278              		.loc 1 649 9 discriminator 1 view .LVU1019
 3279 007a 9FED277A 		vldr.32	s14, .L298+20
 3280 007e F4EEC77A 		vcmpe.f32	s15, s14
 3281 0082 F1EE10FA 		vmrs	APSR_nzcv, FPSCR
 3282 0086 01DB     		blt	.L279
 650:Core/Src/drive.c ****     {
 3283              		.loc 1 650 9 view .LVU1020
 3284 0088 1D2B     		cmp	r3, #29
 3285 008a 26D8     		bhi	.L297
 3286              	.L279:
 657:Core/Src/drive.c ****     {
 3287              		.loc 1 657 5 is_stmt 1 view .LVU1021
 657:Core/Src/drive.c ****     {
 3288              		.loc 1 657 8 is_stmt 0 view .LVU1022
 3289 008c 252B     		cmp	r3, #37
 3290 008e 27D9     		bls	.L285
 657:Core/Src/drive.c ****     {
 3291              		.loc 1 657 38 discriminator 1 view .LVU1023
 3292 0090 8279     		ldrb	r2, [r0, #6]	@ zero_extendqisi2
 657:Core/Src/drive.c ****     {
 3293              		.loc 1 657 33 discriminator 1 view .LVU1024
 3294 0092 2AB3     		cbz	r2, .L285
 659:Core/Src/drive.c ****         if (clear_cnt >= CLEAR_CONFIRM) { cruise_enter(in); return; }
 3295              		.loc 1 659 9 is_stmt 1 view .LVU1025
 659:Core/Src/drive.c ****         if (clear_cnt >= CLEAR_CONFIRM) { cruise_enter(in); return; }
 3296              		.loc 1 659 23 is_stmt 0 view .LVU1026
 3297 0094 214B     		ldr	r3, .L298+24
 3298 0096 1B78     		ldrb	r3, [r3]	@ zero_extendqisi2
 659:Core/Src/drive.c ****         if (clear_cnt >= CLEAR_CONFIRM) { cruise_enter(in); return; }
 3299              		.loc 1 659 12 view .LVU1027
 3300 0098 FF2B     		cmp	r3, #255
 3301 009a 02D0     		beq	.L286
 659:Core/Src/drive.c ****         if (clear_cnt >= CLEAR_CONFIRM) { cruise_enter(in); return; }
 3302              		.loc 1 659 30 is_stmt 1 discriminator 1 view .LVU1028
 659:Core/Src/drive.c ****         if (clear_cnt >= CLEAR_CONFIRM) { cruise_enter(in); return; }
 3303              		.loc 1 659 39 is_stmt 0 discriminator 1 view .LVU1029
 3304 009c 0133     		adds	r3, r3, #1
 3305 009e 1F4A     		ldr	r2, .L298+24
 3306 00a0 1370     		strb	r3, [r2]
 3307              	.L286:
 660:Core/Src/drive.c ****     }
 3308              		.loc 1 660 9 is_stmt 1 view .LVU1030
 660:Core/Src/drive.c ****     }
 3309              		.loc 1 660 23 is_stmt 0 view .LVU1031
 3310 00a2 1E4B     		ldr	r3, .L298+24
 3311 00a4 1B78     		ldrb	r3, [r3]	@ zero_extendqisi2
 660:Core/Src/drive.c ****     }
 3312              		.loc 1 660 12 view .LVU1032
 3313 00a6 042B     		cmp	r3, #4
 3314 00a8 1FD9     		bls	.L287
 660:Core/Src/drive.c ****     }
 3315              		.loc 1 660 43 is_stmt 1 discriminator 1 view .LVU1033
 3316 00aa FFF7FEFF 		bl	cruise_enter
 3317              	.LVL262:
ARM GAS  C:\Users\user\AppData\Local\Temp\cc6kGr5c.s 			page 84


 660:Core/Src/drive.c ****     }
 3318              		.loc 1 660 61 discriminator 1 view .LVU1034
 660:Core/Src/drive.c ****     }
 3319              		.loc 1 660 61 is_stmt 0 view .LVU1035
 3320 00ae 23E0     		b	.L273
 3321              	.LVL263:
 3322              	.L294:
 635:Core/Src/drive.c **** 
 3323              		.loc 1 635 49 is_stmt 1 discriminator 2 view .LVU1036
 3324 00b0 FFF7FEFF 		bl	brake_enter
 3325              	.LVL264:
 635:Core/Src/drive.c **** 
 3326              		.loc 1 635 66 discriminator 1 view .LVU1037
 635:Core/Src/drive.c **** 
 3327              		.loc 1 635 66 is_stmt 0 view .LVU1038
 3328 00b4 20E0     		b	.L273
 3329              	.LVL265:
 3330              	.L295:
 640:Core/Src/drive.c ****         return;
 3331              		.loc 1 640 9 is_stmt 1 view .LVU1039
 3332 00b6 FFF7FEFF 		bl	brake_enter
 3333              	.LVL266:
 641:Core/Src/drive.c ****     }
 3334              		.loc 1 641 9 view .LVU1040
 3335 00ba 1DE0     		b	.L273
 3336              	.LVL267:
 3337              	.L296:
 645:Core/Src/drive.c **** 
 3338              		.loc 1 645 55 discriminator 1 view .LVU1041
 3339 00bc FFF7FEFF 		bl	brake_enter
 3340              	.LVL268:
 645:Core/Src/drive.c **** 
 3341              		.loc 1 645 72 discriminator 1 view .LVU1042
 645:Core/Src/drive.c **** 
 3342              		.loc 1 645 72 is_stmt 0 view .LVU1043
 3343 00c0 1AE0     		b	.L273
 3344              	.LVL269:
 3345              	.L292:
 3346              	.LBB81:
 3347              	.LBB80:
  92:Core/Src/drive.c ****     return a;
 3348              		.loc 1 92 10 is_stmt 1 view .LVU1044
  92:Core/Src/drive.c ****     return a;
 3349              		.loc 1 92 13 is_stmt 0 view .LVU1045
 3350 00c2 9FED177A 		vldr.32	s14, .L298+28
 3351 00c6 F4EEC77A 		vcmpe.f32	s15, s14
 3352 00ca F1EE10FA 		vmrs	APSR_nzcv, FPSCR
 3353 00ce D2D8     		bhi	.L282
  92:Core/Src/drive.c ****     return a;
 3354              		.loc 1 92 28 is_stmt 1 discriminator 1 view .LVU1046
  92:Core/Src/drive.c ****     return a;
 3355              		.loc 1 92 30 is_stmt 0 discriminator 1 view .LVU1047
 3356 00d0 9FED107A 		vldr.32	s14, .L298+16
 3357 00d4 77EE877A 		vadd.f32	s15, s15, s14
 3358              	.LVL270:
  92:Core/Src/drive.c ****     return a;
 3359              		.loc 1 92 30 discriminator 1 view .LVU1048
ARM GAS  C:\Users\user\AppData\Local\Temp\cc6kGr5c.s 			page 85


 3360 00d8 CDE7     		b	.L282
 3361              	.LVL271:
 3362              	.L297:
  92:Core/Src/drive.c ****     return a;
 3363              		.loc 1 92 30 discriminator 1 view .LVU1049
 3364              	.LBE80:
 3365              	.LBE81:
 652:Core/Src/drive.c ****         return;
 3366              		.loc 1 652 9 is_stmt 1 view .LVU1050
 3367 00da FFF7FEFF 		bl	cruise_enter
 3368              	.LVL272:
 653:Core/Src/drive.c ****     }
 3369              		.loc 1 653 9 view .LVU1051
 3370 00de 0BE0     		b	.L273
 3371              	.LVL273:
 3372              	.L285:
 662:Core/Src/drive.c ****     {
 3373              		.loc 1 662 10 view .LVU1052
 662:Core/Src/drive.c ****     {
 3374              		.loc 1 662 13 is_stmt 0 view .LVU1053
 3375 00e0 252B     		cmp	r3, #37
 3376 00e2 02D8     		bhi	.L287
 664:Core/Src/drive.c ****     }
 3377              		.loc 1 664 9 is_stmt 1 view .LVU1054
 664:Core/Src/drive.c ****     }
 3378              		.loc 1 664 19 is_stmt 0 view .LVU1055
 3379 00e4 0D4B     		ldr	r3, .L298+24
 3380 00e6 0022     		movs	r2, #0
 3381 00e8 1A70     		strb	r2, [r3]
 3382              	.L287:
 668:Core/Src/drive.c ****     else               Car_ArcRight(ARC_OUTER, ARC_INNER);
 3383              		.loc 1 668 5 is_stmt 1 view .LVU1056
 668:Core/Src/drive.c ****     else               Car_ArcRight(ARC_OUTER, ARC_INNER);
 3384              		.loc 1 668 18 is_stmt 0 view .LVU1057
 3385 00ea 0E4B     		ldr	r3, .L298+32
 3386 00ec 1B78     		ldrb	r3, [r3]	@ zero_extendqisi2
 668:Core/Src/drive.c ****     else               Car_ArcRight(ARC_OUTER, ARC_INNER);
 3387              		.loc 1 668 8 view .LVU1058
 3388 00ee 23B9     		cbnz	r3, .L288
 668:Core/Src/drive.c ****     else               Car_ArcRight(ARC_OUTER, ARC_INNER);
 3389              		.loc 1 668 24 is_stmt 1 discriminator 1 view .LVU1059
 3390 00f0 2021     		movs	r1, #32
 3391 00f2 3720     		movs	r0, #55
 3392              	.LVL274:
 668:Core/Src/drive.c ****     else               Car_ArcRight(ARC_OUTER, ARC_INNER);
 3393              		.loc 1 668 24 is_stmt 0 discriminator 1 view .LVU1060
 3394 00f4 FFF7FEFF 		bl	Car_ArcLeft
 3395              	.LVL275:
 3396              	.L273:
 670:Core/Src/drive.c **** 
 3397              		.loc 1 670 1 view .LVU1061
 3398 00f8 10BD     		pop	{r4, pc}
 3399              	.LVL276:
 3400              	.L288:
 669:Core/Src/drive.c **** }
 3401              		.loc 1 669 24 is_stmt 1 view .LVU1062
 3402 00fa 2021     		movs	r1, #32
ARM GAS  C:\Users\user\AppData\Local\Temp\cc6kGr5c.s 			page 86


 3403 00fc 3720     		movs	r0, #55
 3404              	.LVL277:
 669:Core/Src/drive.c **** }
 3405              		.loc 1 669 24 is_stmt 0 view .LVU1063
 3406 00fe FFF7FEFF 		bl	Car_ArcRight
 3407              	.LVL278:
 3408 0102 F9E7     		b	.L273
 3409              	.L299:
 3410              		.align	2
 3411              	.L298:
 3412 0104 00000000 		.word	h_entry_valid
 3413 0108 00000000 		.word	h_entry
 3414 010c 00000000 		.word	t_state
 3415 0110 00003443 		.word	1127481344
 3416 0114 0000B443 		.word	1135869952
 3417 0118 0000AA42 		.word	1118437376
 3418 011c 00000000 		.word	clear_cnt
 3419 0120 000034C3 		.word	-1020002304
 3420 0124 00000000 		.word	turn_dir
 3421              		.cfi_endproc
 3422              	.LFE152:
 3424              		.section	.text.Drive_Init,"ax",%progbits
 3425              		.align	1
 3426              		.global	Drive_Init
 3427              		.syntax unified
 3428              		.thumb
 3429              		.thumb_func
 3431              	Drive_Init:
 3432              	.LFB156:
 724:Core/Src/drive.c **** 
 725:Core/Src/drive.c **** /* ---- Ж│хЖ░ю API ---- */
 726:Core/Src/drive.c **** 
 727:Core/Src/drive.c **** void Drive_Init(void)
 728:Core/Src/drive.c **** {
 3433              		.loc 1 728 1 is_stmt 1 view -0
 3434              		.cfi_startproc
 3435              		@ args = 0, pretend = 0, frame = 0
 3436              		@ frame_needed = 0, uses_anonymous_args = 0
 3437 0000 10B5     		push	{r4, lr}
 3438              	.LCFI25:
 3439              		.cfi_def_cfa_offset 8
 3440              		.cfi_offset 4, -8
 3441              		.cfi_offset 14, -4
 729:Core/Src/drive.c ****     st         = DS_CRUISE;
 3442              		.loc 1 729 5 view .LVU1065
 3443              		.loc 1 729 16 is_stmt 0 view .LVU1066
 3444 0002 0024     		movs	r4, #0
 3445 0004 0F4B     		ldr	r3, .L302
 3446 0006 1C70     		strb	r4, [r3]
 730:Core/Src/drive.c ****     t_state    = 0;
 3447              		.loc 1 730 5 is_stmt 1 view .LVU1067
 3448              		.loc 1 730 16 is_stmt 0 view .LVU1068
 3449 0008 0F4B     		ldr	r3, .L302+4
 3450 000a 1C60     		str	r4, [r3]
 731:Core/Src/drive.c ****     turn_dir   = 0;
 3451              		.loc 1 731 5 is_stmt 1 view .LVU1069
 3452              		.loc 1 731 16 is_stmt 0 view .LVU1070
ARM GAS  C:\Users\user\AppData\Local\Temp\cc6kGr5c.s 			page 87


 3453 000c 0F4B     		ldr	r3, .L302+8
 3454 000e 1C70     		strb	r4, [r3]
 732:Core/Src/drive.c ****     swap_cnt   = 0;
 3455              		.loc 1 732 5 is_stmt 1 view .LVU1071
 3456              		.loc 1 732 16 is_stmt 0 view .LVU1072
 3457 0010 0F4B     		ldr	r3, .L302+12
 3458 0012 1C70     		strb	r4, [r3]
 733:Core/Src/drive.c ****     rev_cnt    = 0;
 3459              		.loc 1 733 5 is_stmt 1 view .LVU1073
 3460              		.loc 1 733 16 is_stmt 0 view .LVU1074
 3461 0014 0F4B     		ldr	r3, .L302+16
 3462 0016 1C70     		strb	r4, [r3]
 734:Core/Src/drive.c ****     clear_cnt  = 0;
 3463              		.loc 1 734 5 is_stmt 1 view .LVU1075
 3464              		.loc 1 734 16 is_stmt 0 view .LVU1076
 3465 0018 0F4B     		ldr	r3, .L302+20
 3466 001a 1C70     		strb	r4, [r3]
 735:Core/Src/drive.c ****     front_near_cnt = 0;
 3467              		.loc 1 735 5 is_stmt 1 view .LVU1077
 3468              		.loc 1 735 20 is_stmt 0 view .LVU1078
 3469 001c 0F4B     		ldr	r3, .L302+24
 3470 001e 1C70     		strb	r4, [r3]
 736:Core/Src/drive.c ****     Centering_Reset(&ctx_center);
 3471              		.loc 1 736 5 is_stmt 1 view .LVU1079
 3472 0020 0F48     		ldr	r0, .L302+28
 3473 0022 FFF7FEFF 		bl	Centering_Reset
 3474              	.LVL279:
 737:Core/Src/drive.c ****     launching   = 1U;   /* [fix] (Въг)ВъљВюе ВДёВъЁвДѕвІц вЪ░В╣ў ВДЂВДё В╗цв░І Въгвг┤ВъЦ */
 3475              		.loc 1 737 5 view .LVU1080
 3476              		.loc 1 737 17 is_stmt 0 view .LVU1081
 3477 0026 0F4B     		ldr	r3, .L302+32
 3478 0028 0122     		movs	r2, #1
 3479 002a 1A70     		strb	r2, [r3]
 738:Core/Src/drive.c ****     t_launch    = 0;
 3480              		.loc 1 738 5 is_stmt 1 view .LVU1082
 3481              		.loc 1 738 17 is_stmt 0 view .LVU1083
 3482 002c 0E4B     		ldr	r3, .L302+36
 3483 002e 1C60     		str	r4, [r3]
 739:Core/Src/drive.c ****     t_spin0     = 0;
 3484              		.loc 1 739 5 is_stmt 1 view .LVU1084
 3485              		.loc 1 739 17 is_stmt 0 view .LVU1085
 3486 0030 0E4B     		ldr	r3, .L302+40
 3487 0032 1C60     		str	r4, [r3]
 740:Core/Src/drive.c ****     h_entry_valid = 0U;
 3488              		.loc 1 740 5 is_stmt 1 view .LVU1086
 3489              		.loc 1 740 19 is_stmt 0 view .LVU1087
 3490 0034 0E4B     		ldr	r3, .L302+44
 3491 0036 1C70     		strb	r4, [r3]
 741:Core/Src/drive.c ****     h_prev      = 0.0f;
 3492              		.loc 1 741 5 is_stmt 1 view .LVU1088
 3493              		.loc 1 741 17 is_stmt 0 view .LVU1089
 3494 0038 0E4B     		ldr	r3, .L302+48
 3495 003a 0022     		movs	r2, #0
 3496 003c 1A60     		str	r2, [r3]	@ float
 742:Core/Src/drive.c ****     is_start_latch = 0;   /* [req4] вІцВЮї imu_live ьћёваѕВъёВЌљ course_heading Ваѕвїђ въўВ╣ў */
 3497              		.loc 1 742 5 is_stmt 1 view .LVU1090
 3498              		.loc 1 742 20 is_stmt 0 view .LVU1091
ARM GAS  C:\Users\user\AppData\Local\Temp\cc6kGr5c.s 			page 88


 3499 003e 0E4B     		ldr	r3, .L302+52
 3500 0040 1C70     		strb	r4, [r3]
 743:Core/Src/drive.c **** }
 3501              		.loc 1 743 1 view .LVU1092
 3502 0042 10BD     		pop	{r4, pc}
 3503              	.L303:
 3504              		.align	2
 3505              	.L302:
 3506 0044 00000000 		.word	st
 3507 0048 00000000 		.word	t_state
 3508 004c 00000000 		.word	turn_dir
 3509 0050 00000000 		.word	swap_cnt
 3510 0054 00000000 		.word	rev_cnt
 3511 0058 00000000 		.word	clear_cnt
 3512 005c 00000000 		.word	front_near_cnt
 3513 0060 00000000 		.word	ctx_center
 3514 0064 00000000 		.word	launching
 3515 0068 00000000 		.word	t_launch
 3516 006c 00000000 		.word	t_spin0
 3517 0070 00000000 		.word	h_entry_valid
 3518 0074 00000000 		.word	h_prev
 3519 0078 00000000 		.word	is_start_latch
 3520              		.cfi_endproc
 3521              	.LFE156:
 3523              		.section	.text.Drive_Update,"ax",%progbits
 3524              		.align	1
 3525              		.global	Drive_Update
 3526              		.syntax unified
 3527              		.thumb
 3528              		.thumb_func
 3530              	Drive_Update:
 3531              	.LVL280:
 3532              	.LFB157:
 744:Core/Src/drive.c **** 
 745:Core/Src/drive.c **** void Drive_Update(const DriveInputs *in)
 746:Core/Src/drive.c **** {
 3533              		.loc 1 746 1 is_stmt 1 view -0
 3534              		.cfi_startproc
 3535              		@ args = 0, pretend = 0, frame = 0
 3536              		@ frame_needed = 0, uses_anonymous_args = 0
 3537              		.loc 1 746 1 is_stmt 0 view .LVU1094
 3538 0000 08B5     		push	{r3, lr}
 3539              	.LCFI26:
 3540              		.cfi_def_cfa_offset 8
 3541              		.cfi_offset 3, -8
 3542              		.cfi_offset 14, -4
 747:Core/Src/drive.c ****     /* [req4] ВІюВъЉ Ваѕвїђв░ЕВюё 1ьџї въўВ╣ў: IMU ВІавб░ Ж░ђвіЦьЋ┤ВДё ВхюВ┤ѕ ьћёваѕВъё headingВЮё 
 748:Core/Src/drive.c ****     if (!is_start_latch && in->imu_live)
 3543              		.loc 1 748 5 is_stmt 1 view .LVU1095
 3544              		.loc 1 748 9 is_stmt 0 view .LVU1096
 3545 0002 1D4B     		ldr	r3, .L317
 3546 0004 1B78     		ldrb	r3, [r3]	@ zero_extendqisi2
 3547              		.loc 1 748 8 view .LVU1097
 3548 0006 3BB9     		cbnz	r3, .L305
 3549              		.loc 1 748 30 discriminator 1 view .LVU1098
 3550 0008 037C     		ldrb	r3, [r0, #16]	@ zero_extendqisi2
 3551              		.loc 1 748 25 discriminator 1 view .LVU1099
ARM GAS  C:\Users\user\AppData\Local\Temp\cc6kGr5c.s 			page 89


 3552 000a 2BB1     		cbz	r3, .L305
 749:Core/Src/drive.c ****     {
 750:Core/Src/drive.c ****         course_heading = in->heading;
 3553              		.loc 1 750 9 is_stmt 1 view .LVU1100
 3554              		.loc 1 750 28 is_stmt 0 view .LVU1101
 3555 000c C268     		ldr	r2, [r0, #12]	@ float
 3556              		.loc 1 750 24 view .LVU1102
 3557 000e 1B4B     		ldr	r3, .L317+4
 3558 0010 1A60     		str	r2, [r3]	@ float
 751:Core/Src/drive.c ****         is_start_latch = 1U;
 3559              		.loc 1 751 9 is_stmt 1 view .LVU1103
 3560              		.loc 1 751 24 is_stmt 0 view .LVU1104
 3561 0012 194B     		ldr	r3, .L317
 3562 0014 0122     		movs	r2, #1
 3563 0016 1A70     		strb	r2, [r3]
 3564              	.L305:
 752:Core/Src/drive.c ****     }
 753:Core/Src/drive.c **** 
 754:Core/Src/drive.c ****     switch (st)
 3565              		.loc 1 754 5 is_stmt 1 view .LVU1105
 3566 0018 194B     		ldr	r3, .L317+8
 3567 001a 1B78     		ldrb	r3, [r3]	@ zero_extendqisi2
 3568 001c 062B     		cmp	r3, #6
 3569 001e 24D8     		bhi	.L306
 3570 0020 DFE803F0 		tbb	[pc, r3]
 3571              	.L308:
 3572 0024 04       		.byte	(.L314-.L308)/2
 3573 0025 11       		.byte	(.L313-.L308)/2
 3574 0026 14       		.byte	(.L312-.L308)/2
 3575 0027 17       		.byte	(.L311-.L308)/2
 3576 0028 1A       		.byte	(.L310-.L308)/2
 3577 0029 1D       		.byte	(.L309-.L308)/2
 3578 002a 20       		.byte	(.L307-.L308)/2
 3579 002b 00       		.p2align 1
 3580              	.L314:
 755:Core/Src/drive.c ****     {
 756:Core/Src/drive.c ****     case DS_CRUISE:  cruise_run(in);  break;
 3581              		.loc 1 756 22 view .LVU1106
 3582 002c FFF7FEFF 		bl	cruise_run
 3583              	.LVL281:
 3584              		.loc 1 756 39 discriminator 1 view .LVU1107
 3585              	.L315:
 757:Core/Src/drive.c ****     case DS_BRAKE:   brake_run(in);   break;
 758:Core/Src/drive.c ****     case DS_SPIN:    spin_run(in);    break;
 759:Core/Src/drive.c ****     case DS_REVERSE: reverse_run(in); break;
 760:Core/Src/drive.c ****     case DS_HOLD:    hold_run(in);    break;
 761:Core/Src/drive.c ****     case DS_SIDE_AVOID: side_avoid_run(in); break;
 762:Core/Src/drive.c ****     case DS_CORNER:  corner_run(in);  break;   /* [req2] ВаёВДёВё▒ ВЋёьЂг Вйћвёѕ */
 763:Core/Src/drive.c ****     default:         Car_Stop(); st = DS_CRUISE; break;
 764:Core/Src/drive.c ****     }
 765:Core/Src/drive.c ****     dbg.state    = (uint8_t)st;
 3586              		.loc 1 765 5 view .LVU1108
 3587              		.loc 1 765 18 is_stmt 0 view .LVU1109
 3588 0030 134B     		ldr	r3, .L317+8
 3589 0032 1A78     		ldrb	r2, [r3]	@ zero_extendqisi2
 3590 0034 134B     		ldr	r3, .L317+12
 3591 0036 1A70     		strb	r2, [r3]
ARM GAS  C:\Users\user\AppData\Local\Temp\cc6kGr5c.s 			page 90


 766:Core/Src/drive.c ****     dbg.turn_dir = turn_dir;
 3592              		.loc 1 766 5 is_stmt 1 view .LVU1110
 3593              		.loc 1 766 18 is_stmt 0 view .LVU1111
 3594 0038 134A     		ldr	r2, .L317+16
 3595 003a 1278     		ldrb	r2, [r2]	@ zero_extendqisi2
 3596 003c 1A76     		strb	r2, [r3, #24]
 767:Core/Src/drive.c ****     dbg.rev_cnt  = rev_cnt;
 3597              		.loc 1 767 5 is_stmt 1 view .LVU1112
 3598              		.loc 1 767 18 is_stmt 0 view .LVU1113
 3599 003e 134A     		ldr	r2, .L317+20
 3600 0040 1278     		ldrb	r2, [r2]	@ zero_extendqisi2
 3601 0042 5A76     		strb	r2, [r3, #25]
 768:Core/Src/drive.c **** }
 3602              		.loc 1 768 1 view .LVU1114
 3603 0044 08BD     		pop	{r3, pc}
 3604              	.LVL282:
 3605              	.L313:
 757:Core/Src/drive.c ****     case DS_SPIN:    spin_run(in);    break;
 3606              		.loc 1 757 22 is_stmt 1 view .LVU1115
 3607 0046 FFF7FEFF 		bl	brake_run
 3608              	.LVL283:
 757:Core/Src/drive.c ****     case DS_SPIN:    spin_run(in);    break;
 3609              		.loc 1 757 39 discriminator 1 view .LVU1116
 757:Core/Src/drive.c ****     case DS_SPIN:    spin_run(in);    break;
 3610              		.loc 1 757 39 is_stmt 0 view .LVU1117
 3611 004a F1E7     		b	.L315
 3612              	.LVL284:
 3613              	.L312:
 758:Core/Src/drive.c ****     case DS_REVERSE: reverse_run(in); break;
 3614              		.loc 1 758 22 is_stmt 1 view .LVU1118
 3615 004c FFF7FEFF 		bl	spin_run
 3616              	.LVL285:
 758:Core/Src/drive.c ****     case DS_REVERSE: reverse_run(in); break;
 3617              		.loc 1 758 39 discriminator 1 view .LVU1119
 758:Core/Src/drive.c ****     case DS_REVERSE: reverse_run(in); break;
 3618              		.loc 1 758 39 is_stmt 0 view .LVU1120
 3619 0050 EEE7     		b	.L315
 3620              	.LVL286:
 3621              	.L311:
 759:Core/Src/drive.c ****     case DS_HOLD:    hold_run(in);    break;
 3622              		.loc 1 759 22 is_stmt 1 view .LVU1121
 3623 0052 FFF7FEFF 		bl	reverse_run
 3624              	.LVL287:
 759:Core/Src/drive.c ****     case DS_HOLD:    hold_run(in);    break;
 3625              		.loc 1 759 39 discriminator 1 view .LVU1122
 759:Core/Src/drive.c ****     case DS_HOLD:    hold_run(in);    break;
 3626              		.loc 1 759 39 is_stmt 0 view .LVU1123
 3627 0056 EBE7     		b	.L315
 3628              	.LVL288:
 3629              	.L310:
 760:Core/Src/drive.c ****     case DS_SIDE_AVOID: side_avoid_run(in); break;
 3630              		.loc 1 760 22 is_stmt 1 view .LVU1124
 3631 0058 FFF7FEFF 		bl	hold_run
 3632              	.LVL289:
 760:Core/Src/drive.c ****     case DS_SIDE_AVOID: side_avoid_run(in); break;
 3633              		.loc 1 760 39 discriminator 1 view .LVU1125
 760:Core/Src/drive.c ****     case DS_SIDE_AVOID: side_avoid_run(in); break;
ARM GAS  C:\Users\user\AppData\Local\Temp\cc6kGr5c.s 			page 91


 3634              		.loc 1 760 39 is_stmt 0 view .LVU1126
 3635 005c E8E7     		b	.L315
 3636              	.LVL290:
 3637              	.L309:
 761:Core/Src/drive.c ****     case DS_CORNER:  corner_run(in);  break;   /* [req2] ВаёВДёВё▒ ВЋёьЂг Вйћвёѕ */
 3638              		.loc 1 761 25 is_stmt 1 view .LVU1127
 3639 005e FFF7FEFF 		bl	side_avoid_run
 3640              	.LVL291:
 761:Core/Src/drive.c ****     case DS_CORNER:  corner_run(in);  break;   /* [req2] ВаёВДёВё▒ ВЋёьЂг Вйћвёѕ */
 3641              		.loc 1 761 45 discriminator 1 view .LVU1128
 761:Core/Src/drive.c ****     case DS_CORNER:  corner_run(in);  break;   /* [req2] ВаёВДёВё▒ ВЋёьЂг Вйћвёѕ */
 3642              		.loc 1 761 45 is_stmt 0 view .LVU1129
 3643 0062 E5E7     		b	.L315
 3644              	.LVL292:
 3645              	.L307:
 762:Core/Src/drive.c ****     default:         Car_Stop(); st = DS_CRUISE; break;
 3646              		.loc 1 762 22 is_stmt 1 view .LVU1130
 3647 0064 FFF7FEFF 		bl	corner_run
 3648              	.LVL293:
 762:Core/Src/drive.c ****     default:         Car_Stop(); st = DS_CRUISE; break;
 3649              		.loc 1 762 39 discriminator 1 view .LVU1131
 762:Core/Src/drive.c ****     default:         Car_Stop(); st = DS_CRUISE; break;
 3650              		.loc 1 762 39 is_stmt 0 view .LVU1132
 3651 0068 E2E7     		b	.L315
 3652              	.LVL294:
 3653              	.L306:
 763:Core/Src/drive.c ****     }
 3654              		.loc 1 763 22 is_stmt 1 view .LVU1133
 3655 006a FFF7FEFF 		bl	Car_Stop
 3656              	.LVL295:
 763:Core/Src/drive.c ****     }
 3657              		.loc 1 763 34 discriminator 1 view .LVU1134
 763:Core/Src/drive.c ****     }
 3658              		.loc 1 763 37 is_stmt 0 discriminator 1 view .LVU1135
 3659 006e 044B     		ldr	r3, .L317+8
 3660 0070 0022     		movs	r2, #0
 3661 0072 1A70     		strb	r2, [r3]
 763:Core/Src/drive.c ****     }
 3662              		.loc 1 763 50 is_stmt 1 discriminator 1 view .LVU1136
 763:Core/Src/drive.c ****     }
 3663              		.loc 1 763 50 is_stmt 0 view .LVU1137
 3664 0074 DCE7     		b	.L315
 3665              	.L318:
 3666 0076 00BF     		.align	2
 3667              	.L317:
 3668 0078 00000000 		.word	is_start_latch
 3669 007c 00000000 		.word	course_heading
 3670 0080 00000000 		.word	st
 3671 0084 00000000 		.word	dbg
 3672 0088 00000000 		.word	turn_dir
 3673 008c 00000000 		.word	rev_cnt
 3674              		.cfi_endproc
 3675              	.LFE157:
 3677              		.section	.bss.is_start_latch,"aw",%nobits
 3680              	is_start_latch:
 3681 0000 00       		.space	1
 3682              		.section	.bss.course_heading,"aw",%nobits
ARM GAS  C:\Users\user\AppData\Local\Temp\cc6kGr5c.s 			page 92


 3683              		.align	2
 3686              	course_heading:
 3687 0000 00000000 		.space	4
 3688              		.section	.bss.h_prev,"aw",%nobits
 3689              		.align	2
 3692              	h_prev:
 3693 0000 00000000 		.space	4
 3694              		.section	.data.ctx_center,"aw"
 3695              		.align	2
 3698              	ctx_center:
 3699 0000 00000000 		.space	14
 3699      00000000 
 3699      00000000 
 3699      0000
 3700 000e 01       		.byte	1
 3701 000f 00000000 		.space	13
 3701      00000000 
 3701      00000000 
 3701      00
 3702              		.section	.bss.t_stuck,"aw",%nobits
 3703              		.align	2
 3706              	t_stuck:
 3707 0000 00000000 		.space	4
 3708              		.section	.bss.h_stuck,"aw",%nobits
 3709              		.align	2
 3712              	h_stuck:
 3713 0000 00000000 		.space	4
 3714              		.section	.bss.h_ref,"aw",%nobits
 3715              		.align	2
 3718              	h_ref:
 3719 0000 00000000 		.space	4
 3720              		.section	.bss.h_entry_valid,"aw",%nobits
 3723              	h_entry_valid:
 3724 0000 00       		.space	1
 3725              		.section	.bss.h_entry,"aw",%nobits
 3726              		.align	2
 3729              	h_entry:
 3730 0000 00000000 		.space	4
 3731              		.section	.bss.t_spin0,"aw",%nobits
 3732              		.align	2
 3735              	t_spin0:
 3736 0000 00000000 		.space	4
 3737              		.section	.bss.t_launch,"aw",%nobits
 3738              		.align	2
 3741              	t_launch:
 3742 0000 00000000 		.space	4
 3743              		.section	.data.launching,"aw"
 3746              	launching:
 3747 0000 01       		.byte	1
 3748              		.section	.bss.front_near_cnt,"aw",%nobits
 3751              	front_near_cnt:
 3752 0000 00       		.space	1
 3753              		.section	.bss.clear_cnt,"aw",%nobits
 3756              	clear_cnt:
 3757 0000 00       		.space	1
 3758              		.section	.bss.rev_cnt,"aw",%nobits
 3761              	rev_cnt:
ARM GAS  C:\Users\user\AppData\Local\Temp\cc6kGr5c.s 			page 93


 3762 0000 00       		.space	1
 3763              		.section	.bss.swap_cnt,"aw",%nobits
 3766              	swap_cnt:
 3767 0000 00       		.space	1
 3768              		.section	.bss.turn_dir,"aw",%nobits
 3771              	turn_dir:
 3772 0000 00       		.space	1
 3773              		.section	.bss.t_state,"aw",%nobits
 3774              		.align	2
 3777              	t_state:
 3778 0000 00000000 		.space	4
 3779              		.section	.bss.st,"aw",%nobits
 3782              	st:
 3783 0000 00       		.space	1
 3784              		.global	dbg
 3785              		.section	.bss.dbg,"aw",%nobits
 3786              		.align	2
 3789              	dbg:
 3790 0000 00000000 		.space	88
 3790      00000000 
 3790      00000000 
 3790      00000000 
 3790      00000000 
 3791              		.text
 3792              	.Letext0:
 3793              		.file 2 "C:\\ST\\STM32CubeIDE_2.1.0\\STM32CubeIDE\\plugins\\com.st.stm32cube.ide.mcu.externaltools
 3794              		.file 3 "C:\\ST\\STM32CubeIDE_2.1.0\\STM32CubeIDE\\plugins\\com.st.stm32cube.ide.mcu.externaltools
 3795              		.file 4 "Core/Inc/drive.h"
 3796              		.file 5 "Core/Inc/debug.h"
 3797              		.file 6 "Core/Inc/motor.h"
ARM GAS  C:\Users\user\AppData\Local\Temp\cc6kGr5c.s 			page 94


DEFINED SYMBOLS
                            *ABS*:00000000 drive.c
C:\Users\user\AppData\Local\Temp\cc6kGr5c.s:21     .text.clampf:00000000 $t
C:\Users\user\AppData\Local\Temp\cc6kGr5c.s:26     .text.clampf:00000000 clampf
C:\Users\user\AppData\Local\Temp\cc6kGr5c.s:62     .text.center_sanitize_cm:00000000 $t
C:\Users\user\AppData\Local\Temp\cc6kGr5c.s:67     .text.center_sanitize_cm:00000000 center_sanitize_cm
C:\Users\user\AppData\Local\Temp\cc6kGr5c.s:100    .text.center_avg_u16:00000000 $t
C:\Users\user\AppData\Local\Temp\cc6kGr5c.s:105    .text.center_avg_u16:00000000 center_avg_u16
C:\Users\user\AppData\Local\Temp\cc6kGr5c.s:158    .text.Centering_Reset:00000000 $t
C:\Users\user\AppData\Local\Temp\cc6kGr5c.s:163    .text.Centering_Reset:00000000 Centering_Reset
C:\Users\user\AppData\Local\Temp\cc6kGr5c.s:201    .text.enter:00000000 $t
C:\Users\user\AppData\Local\Temp\cc6kGr5c.s:206    .text.enter:00000000 enter
C:\Users\user\AppData\Local\Temp\cc6kGr5c.s:227    .text.enter:0000000c $d
C:\Users\user\AppData\Local\Temp\cc6kGr5c.s:3782   .bss.st:00000000 st
C:\Users\user\AppData\Local\Temp\cc6kGr5c.s:3777   .bss.t_state:00000000 t_state
C:\Users\user\AppData\Local\Temp\cc6kGr5c.s:233    .text.cruise_enter:00000000 $t
C:\Users\user\AppData\Local\Temp\cc6kGr5c.s:238    .text.cruise_enter:00000000 cruise_enter
C:\Users\user\AppData\Local\Temp\cc6kGr5c.s:294    .text.cruise_enter:0000002c $d
C:\Users\user\AppData\Local\Temp\cc6kGr5c.s:3718   .bss.h_ref:00000000 h_ref
C:\Users\user\AppData\Local\Temp\cc6kGr5c.s:3686   .bss.course_heading:00000000 course_heading
C:\Users\user\AppData\Local\Temp\cc6kGr5c.s:3698   .data.ctx_center:00000000 ctx_center
C:\Users\user\AppData\Local\Temp\cc6kGr5c.s:3761   .bss.rev_cnt:00000000 rev_cnt
C:\Users\user\AppData\Local\Temp\cc6kGr5c.s:3751   .bss.front_near_cnt:00000000 front_near_cnt
C:\Users\user\AppData\Local\Temp\cc6kGr5c.s:3692   .bss.h_prev:00000000 h_prev
C:\Users\user\AppData\Local\Temp\cc6kGr5c.s:304    .text.spin_enter:00000000 $t
C:\Users\user\AppData\Local\Temp\cc6kGr5c.s:309    .text.spin_enter:00000000 spin_enter
C:\Users\user\AppData\Local\Temp\cc6kGr5c.s:411    .text.spin_enter:00000060 $d
C:\Users\user\AppData\Local\Temp\cc6kGr5c.s:3771   .bss.turn_dir:00000000 turn_dir
C:\Users\user\AppData\Local\Temp\cc6kGr5c.s:3766   .bss.swap_cnt:00000000 swap_cnt
C:\Users\user\AppData\Local\Temp\cc6kGr5c.s:3756   .bss.clear_cnt:00000000 clear_cnt
C:\Users\user\AppData\Local\Temp\cc6kGr5c.s:3729   .bss.h_entry:00000000 h_entry
C:\Users\user\AppData\Local\Temp\cc6kGr5c.s:3712   .bss.h_stuck:00000000 h_stuck
C:\Users\user\AppData\Local\Temp\cc6kGr5c.s:3723   .bss.h_entry_valid:00000000 h_entry_valid
C:\Users\user\AppData\Local\Temp\cc6kGr5c.s:3706   .bss.t_stuck:00000000 t_stuck
C:\Users\user\AppData\Local\Temp\cc6kGr5c.s:3735   .bss.t_spin0:00000000 t_spin0
C:\Users\user\AppData\Local\Temp\cc6kGr5c.s:423    .text.side_avoid_enter:00000000 $t
C:\Users\user\AppData\Local\Temp\cc6kGr5c.s:428    .text.side_avoid_enter:00000000 side_avoid_enter
C:\Users\user\AppData\Local\Temp\cc6kGr5c.s:479    .text.side_avoid_enter:00000028 $d
C:\Users\user\AppData\Local\Temp\cc6kGr5c.s:484    .text.front_graze_suspected:00000000 $t
C:\Users\user\AppData\Local\Temp\cc6kGr5c.s:489    .text.front_graze_suspected:00000000 front_graze_suspected
C:\Users\user\AppData\Local\Temp\cc6kGr5c.s:632    .text.front_graze_suspected:000000a4 $d
C:\Users\user\AppData\Local\Temp\cc6kGr5c.s:641    .text.corner_enter:00000000 $t
C:\Users\user\AppData\Local\Temp\cc6kGr5c.s:646    .text.corner_enter:00000000 corner_enter
C:\Users\user\AppData\Local\Temp\cc6kGr5c.s:718    .text.corner_enter:0000003c $d
C:\Users\user\AppData\Local\Temp\cc6kGr5c.s:726    .text.hold_enter:00000000 $t
C:\Users\user\AppData\Local\Temp\cc6kGr5c.s:731    .text.hold_enter:00000000 hold_enter
C:\Users\user\AppData\Local\Temp\cc6kGr5c.s:760    .text.Drive_CenteringPD_Run:00000000 $t
C:\Users\user\AppData\Local\Temp\cc6kGr5c.s:765    .text.Drive_CenteringPD_Run:00000000 Drive_CenteringPD_Run
C:\Users\user\AppData\Local\Temp\cc6kGr5c.s:1374   .text.Drive_CenteringPD_Run:0000030c $d
C:\Users\user\AppData\Local\Temp\cc6kGr5c.s:3789   .bss.dbg:00000000 dbg
C:\Users\user\AppData\Local\Temp\cc6kGr5c.s:1400   .text.Drive_CenteringPD_Run:0000035c $t
C:\Users\user\AppData\Local\Temp\cc6kGr5c.s:1417   .text.brake_enter:00000000 $t
C:\Users\user\AppData\Local\Temp\cc6kGr5c.s:1422   .text.brake_enter:00000000 brake_enter
C:\Users\user\AppData\Local\Temp\cc6kGr5c.s:1452   .text.cruise_run:00000000 $t
C:\Users\user\AppData\Local\Temp\cc6kGr5c.s:1457   .text.cruise_run:00000000 cruise_run
C:\Users\user\AppData\Local\Temp\cc6kGr5c.s:1908   .text.cruise_run:000001a4 $d
C:\Users\user\AppData\Local\Temp\cc6kGr5c.s:3746   .data.launching:00000000 launching
ARM GAS  C:\Users\user\AppData\Local\Temp\cc6kGr5c.s 			page 95


C:\Users\user\AppData\Local\Temp\cc6kGr5c.s:3741   .bss.t_launch:00000000 t_launch
C:\Users\user\AppData\Local\Temp\cc6kGr5c.s:1921   .text.hold_run:00000000 $t
C:\Users\user\AppData\Local\Temp\cc6kGr5c.s:1926   .text.hold_run:00000000 hold_run
C:\Users\user\AppData\Local\Temp\cc6kGr5c.s:1992   .text.hold_run:00000038 $d
C:\Users\user\AppData\Local\Temp\cc6kGr5c.s:1997   .text.reverse_enter:00000000 $t
C:\Users\user\AppData\Local\Temp\cc6kGr5c.s:2002   .text.reverse_enter:00000000 reverse_enter
C:\Users\user\AppData\Local\Temp\cc6kGr5c.s:2047   .text.reverse_enter:00000024 $d
C:\Users\user\AppData\Local\Temp\cc6kGr5c.s:2052   .text.brake_run:00000000 $t
C:\Users\user\AppData\Local\Temp\cc6kGr5c.s:2057   .text.brake_run:00000000 brake_run
C:\Users\user\AppData\Local\Temp\cc6kGr5c.s:2139   .text.brake_run:00000050 $d
C:\Users\user\AppData\Local\Temp\cc6kGr5c.s:2145   .text.reverse_run:00000000 $t
C:\Users\user\AppData\Local\Temp\cc6kGr5c.s:2150   .text.reverse_run:00000000 reverse_run
C:\Users\user\AppData\Local\Temp\cc6kGr5c.s:2192   .text.reverse_run:00000020 $d
C:\Users\user\AppData\Local\Temp\cc6kGr5c.s:2197   .text.spin_run:00000000 $t
C:\Users\user\AppData\Local\Temp\cc6kGr5c.s:2202   .text.spin_run:00000000 spin_run
C:\Users\user\AppData\Local\Temp\cc6kGr5c.s:2785   .text.spin_run:000002b0 $d
C:\Users\user\AppData\Local\Temp\cc6kGr5c.s:2809   .text.spin_run:000002f4 $t
C:\Users\user\AppData\Local\Temp\cc6kGr5c.s:3020   .text.spin_run:000003f8 $d
C:\Users\user\AppData\Local\Temp\cc6kGr5c.s:3034   .text.side_avoid_run:00000000 $t
C:\Users\user\AppData\Local\Temp\cc6kGr5c.s:3039   .text.side_avoid_run:00000000 side_avoid_run
C:\Users\user\AppData\Local\Temp\cc6kGr5c.s:3151   .text.side_avoid_run:0000005c $d
C:\Users\user\AppData\Local\Temp\cc6kGr5c.s:3157   .text.corner_run:00000000 $t
C:\Users\user\AppData\Local\Temp\cc6kGr5c.s:3162   .text.corner_run:00000000 corner_run
C:\Users\user\AppData\Local\Temp\cc6kGr5c.s:3412   .text.corner_run:00000104 $d
C:\Users\user\AppData\Local\Temp\cc6kGr5c.s:3425   .text.Drive_Init:00000000 $t
C:\Users\user\AppData\Local\Temp\cc6kGr5c.s:3431   .text.Drive_Init:00000000 Drive_Init
C:\Users\user\AppData\Local\Temp\cc6kGr5c.s:3506   .text.Drive_Init:00000044 $d
C:\Users\user\AppData\Local\Temp\cc6kGr5c.s:3680   .bss.is_start_latch:00000000 is_start_latch
C:\Users\user\AppData\Local\Temp\cc6kGr5c.s:3524   .text.Drive_Update:00000000 $t
C:\Users\user\AppData\Local\Temp\cc6kGr5c.s:3530   .text.Drive_Update:00000000 Drive_Update
C:\Users\user\AppData\Local\Temp\cc6kGr5c.s:3572   .text.Drive_Update:00000024 $d
C:\Users\user\AppData\Local\Temp\cc6kGr5c.s:3668   .text.Drive_Update:00000078 $d
C:\Users\user\AppData\Local\Temp\cc6kGr5c.s:3681   .bss.is_start_latch:00000000 $d
C:\Users\user\AppData\Local\Temp\cc6kGr5c.s:3683   .bss.course_heading:00000000 $d
C:\Users\user\AppData\Local\Temp\cc6kGr5c.s:3689   .bss.h_prev:00000000 $d
C:\Users\user\AppData\Local\Temp\cc6kGr5c.s:3695   .data.ctx_center:00000000 $d
C:\Users\user\AppData\Local\Temp\cc6kGr5c.s:3703   .bss.t_stuck:00000000 $d
C:\Users\user\AppData\Local\Temp\cc6kGr5c.s:3709   .bss.h_stuck:00000000 $d
C:\Users\user\AppData\Local\Temp\cc6kGr5c.s:3715   .bss.h_ref:00000000 $d
C:\Users\user\AppData\Local\Temp\cc6kGr5c.s:3724   .bss.h_entry_valid:00000000 $d
C:\Users\user\AppData\Local\Temp\cc6kGr5c.s:3726   .bss.h_entry:00000000 $d
C:\Users\user\AppData\Local\Temp\cc6kGr5c.s:3732   .bss.t_spin0:00000000 $d
C:\Users\user\AppData\Local\Temp\cc6kGr5c.s:3738   .bss.t_launch:00000000 $d
C:\Users\user\AppData\Local\Temp\cc6kGr5c.s:3752   .bss.front_near_cnt:00000000 $d
C:\Users\user\AppData\Local\Temp\cc6kGr5c.s:3757   .bss.clear_cnt:00000000 $d
C:\Users\user\AppData\Local\Temp\cc6kGr5c.s:3762   .bss.rev_cnt:00000000 $d
C:\Users\user\AppData\Local\Temp\cc6kGr5c.s:3767   .bss.swap_cnt:00000000 $d
C:\Users\user\AppData\Local\Temp\cc6kGr5c.s:3772   .bss.turn_dir:00000000 $d
C:\Users\user\AppData\Local\Temp\cc6kGr5c.s:3774   .bss.t_state:00000000 $d
C:\Users\user\AppData\Local\Temp\cc6kGr5c.s:3783   .bss.st:00000000 $d
C:\Users\user\AppData\Local\Temp\cc6kGr5c.s:3786   .bss.dbg:00000000 $d
C:\Users\user\AppData\Local\Temp\cc6kGr5c.s:3579   .text.Drive_Update:0000002b $d
C:\Users\user\AppData\Local\Temp\cc6kGr5c.s:3579   .text.Drive_Update:0000002c $t
                           .group:00000000 wm4.0.3e3bd4fae48ed4285b9fe9ad79008a8e
                           .group:00000000 wm4._newlib_version.h.4.0eb654b64686e2bd29646258853f6c22
                           .group:00000000 wm4.features.h.33.d554620bb17bd3b714c3fb5c268772bc
                           .group:00000000 wm4._default_types.h.15.247e5cd201eca3442cbf5404108c4935
ARM GAS  C:\Users\user\AppData\Local\Temp\cc6kGr5c.s 			page 96


                           .group:00000000 wm4._intsup.h.10.48bafbb683905c4daa4565a85aeeb264
                           .group:00000000 wm4._stdint.h.10.c24fa3af3bc1706662bb5593a907e841
                           .group:00000000 wm4.stdint.h.23.d53047a68f4a85177f80b422d52785ed
                           .group:00000000 wm4.drive.h.24.c98245d0413c98456b71e60ff646a2f6
                           .group:00000000 wm4.stm32f4xx_hal_conf.h.25.0e66e2bdd1e693edb8cfdc624d1a6bd4
                           .group:00000000 wm4.stm32f4xx.h.38.63e3ea23bd63a94457417730025259b6
                           .group:00000000 wm4.stm32f411xe.h.34.f2908321cbbda12187706c23063bbc28
                           .group:00000000 wm4.cmsis_version.h.32.0ac195c83bb4537824e6ad1c47474b79
                           .group:00000000 wm4.core_cm4.h.66.e4ff136c4a17abc46741866f64f8e729
                           .group:00000000 wm4.cmsis_gcc.h.26.498d0ad17a45fc9ef20fdc01caf02259
                           .group:00000000 wm4.core_cm4.h.174.62be9b4588d49bed18171771001331df
                           .group:00000000 wm4.mpu_armv7.h.32.83326921a797fa9d6f70449916b4b839
                           .group:00000000 wm4.stm32f411xe.h.636.37cf950cfbbaac9e193dbe2b79c3e749
                           .group:00000000 wm4.stm32f4xx.h.195.a4b8bf80f37cc96981498656ffe5f588
                           .group:00000000 wm4.stm32_hal_legacy.h.22.8b7d303dc46a0b7ac6d3edf19ce2608d
                           .group:00000000 wm4.stddef.h.39.811583f327f35b0df7808fda70b062a0
                           .group:00000000 wm4.stm32f4xx_hal_def.h.58.3cb484e92e5ccf2e55312a4714e27917
                           .group:00000000 wm4.stm32f4xx_hal_rcc_ex.h.20.6bc7ed2ae7969e22afc815a811faa8ee
                           .group:00000000 wm4.stm32f4xx_hal_rcc.h.106.0887cf5d985ae88e345b0aed0ceb4729
                           .group:00000000 wm4.stm32f4xx_hal_gpio.h.21.22da6a14b6049d6ac156577be74df1d7
                           .group:00000000 wm4.stm32f4xx_hal_gpio_ex.h.21.985b1076fbcb2c3eb806d02fd771d120
                           .group:00000000 wm4.stm32f4xx_hal_gpio.h.254.d7e07832f748fe8bcb575db0b8373592
                           .group:00000000 wm4.stm32f4xx_hal_exti.h.21.2ccac119fb1c64adeb682c3dcad90241
                           .group:00000000 wm4.stm32f4xx_hal_dma.h.21.8e4b1421c914345c23be719e5e528779
                           .group:00000000 wm4.stm32f4xx_hal_dma.h.720.ac2d7eef74792e4026acc4d2923c5da4
                           .group:00000000 wm4.stm32f4xx_hal_cortex.h.20.03673e4f79386680bf73ba399c19306b
                           .group:00000000 wm4.stm32f4xx_hal_flash.h.20.2f1e0d1b7010b3a81a7980aaf712e7e5
                           .group:00000000 wm4.stm32f4xx_hal_flash_ex.h.20.2abe4a01ce8028804a922735defa62fd
                           .group:00000000 wm4.stm32f4xx_hal_flash.h.361.23bc19b9eac79b0956d913651841ede8
                           .group:00000000 wm4.stm32f4xx_hal_i2c.h.21.147e96a27b1f7b1f2f8ee22132703ee3
                           .group:00000000 wm4.stm32f4xx_hal_i2c_ex.h.21.951ef5bfa13cf131d2015c338e82e461
                           .group:00000000 wm4.stm32f4xx_hal_i2c.h.647.ade9c3447780b1cc0ece02f0ce83aedc
                           .group:00000000 wm4.stm32f4xx_hal_iwdg.h.21.6227ccfbb99238d6637d6fd22341e211
                           .group:00000000 wm4.stm32f4xx_hal_pwr.h.20.1905a0783a9c83adefd7df0c4b501e40
                           .group:00000000 wm4.stm32f4xx_hal_pwr_ex.h.20.68994c4c23e76d9aeabea12988d5ec3f
                           .group:00000000 wm4.stm32f4xx_hal_pwr.h.338.debc0a4a62ba54688e63ab53dd99c4ea
                           .group:00000000 wm4.stm32f4xx_hal_tim.h.21.c31cbc03c25f07a932427770396c59d2
                           .group:00000000 wm4.stm32f4xx_hal_tim_ex.h.21.918fa7fcd405cc3ba11632ed1d07a240
                           .group:00000000 wm4.stm32f4xx_hal_uart.h.21.ba8e24dd05c77faac3f3d48472e636ba
                           .group:00000000 wm4.stm32f4xx_hal.h.71.02372bc31d47d29d3f67fbfe1429649e
                           .group:00000000 wm4.main.h.60.43ab73d02ecae73036be54daa58e8549
                           .group:00000000 wm4.newlib.h.7.decd5b9657e2c5df625d9eac6e10520c
                           .group:00000000 wm4.ieeefp.h.77.61a77db5804869b1dadd307a77cf78c9
                           .group:00000000 wm4.config.h.224.10ee1ad185d877c6e334e6581faab44d
                           .group:00000000 wm4._ansi.h.31.de524f58584151836e90d8620a16f8e8
                           .group:00000000 wm4.cdefs.h.49.56fd742369e655e7e8a7e365e706e208
                           .group:00000000 wm4._types.h.20.dd0d04dca3800a0d2a6129b87f3adbb2
                           .group:00000000 wm4.stddef.h.173.4903093a50a8482cb062b176ea61fac3
                           .group:00000000 wm4._types.h.127.3bdfe3ff8ea2d0985b03d9cbe93480e3
                           .group:00000000 wm4.reent.h.18.25503cdc8b7e55dd0d6ea7b3e5af7a03
                           .group:00000000 wm4.lock.h.2.1461d1fff82dffe8bfddc23307f6484f
                           .group:00000000 wm4.reent.h.78.6d702f69a6d6435d2dbe915b10150b1a
                           .group:00000000 wm4.math.h.13.47cfc34cae8a1153323939c4d32cf7c2

UNDEFINED SYMBOLS
Car_Stop
Motor_Left
ARM GAS  C:\Users\user\AppData\Local\Temp\cc6kGr5c.s 			page 97


Motor_Right
Car_Brake
Car_Backward
Car_PivotLeft
Car_PivotRight
Car_ArcLeft
Car_ArcRight
