ARM GAS  C:\Users\user\AppData\Local\Temp\ccy8zY0Q.s 			page 1


   1              		.cpu cortex-m4
   2              		.arch armv7e-m
   3              		.fpu fpv4-sp-d16
   4              		.eabi_attribute 27, 1
   5              		.eabi_attribute 28, 1
   6              		.eabi_attribute 20, 1
   7              		.eabi_attribute 21, 1
   8              		.eabi_attribute 23, 3
   9              		.eabi_attribute 24, 1
  10              		.eabi_attribute 25, 1
  11              		.eabi_attribute 26, 1
  12              		.eabi_attribute 30, 1
  13              		.eabi_attribute 34, 1
  14              		.eabi_attribute 18, 4
  15              		.file	"drive.c"
  16              		.text
  17              	.Ltext0:
  18              		.cfi_sections	.debug_frame
  19              		.file 1 "Core/Src/drive.c"
  20              		.section	.text.wrap180,"ax",%progbits
  21              		.align	1
  22              		.syntax unified
  23              		.thumb
  24              		.thumb_func
  26              	wrap180:
  27              	.LVL0:
  28              	.LFB134:
   1:Core/Src/drive.c **** /* USER CODE BEGIN Header */
   2:Core/Src/drive.c **** /**
   3:Core/Src/drive.c ****   ******************************************************************************
   4:Core/Src/drive.c ****   * @file    drive.c
   5:Core/Src/drive.c ****   * @brief   мЈјн–ү м ңм–ҙкё° кө¬нҳ„ вҖ” л№„лё”лЎңнӮ№ 5-мғҒнғң лЁёмӢ  + ліөлҸ„ м„јн„°л§Ғ мЎ°н–Ҙ
   6:Core/Src/drive.c ****   *
   7:Core/Src/drive.c ****   *          м„Өкі„ мӣҗм№ҷ (лІҪ л°•нһҳ к·јм Ҳ):
   8:Core/Src/drive.c ****   *          - HAL_Delay м—ҶмқҢ: лӘЁл“  мң м§ҖмӢңк°„мқҖ HAL_GetTick нғҖмһ„мҠӨнғ¬н”„ вҶ’ л§Ө лЈЁн”„ 
   9:Core/Src/drive.c ****   *          - нҡҢн”ј мӨ‘ лӘ…л №лҗң м „м§„ мқҙлҸҷ 0: arc нҸҗм§Җ, SPIN(м ңмһҗлҰ¬ нҡҢм „) м „мҡ©
  10:Core/Src/drive.c ****   *            (кіЎм„  нҡҢн”јлҠ” CRUISEмқҳ л№„лЎҖ мЎ°н–Ҙмқҙ лӢҙлӢ№)
  11:Core/Src/drive.c ****   *          - лӘЁл“  нҡҢм „/м •м§Җм—җ н”јл“ңл°ұ: лҠҘлҸҷ м ңлҸҷ(BRAKE), IMU нҡҢм „к°Ғ нғҲм¶ң кІҢмқҙ
  12:Core/Src/drive.c ****   *            мҠӨн„ұ к°җм§Җ вҖ” мӢңк°„Г—л“ҖнӢ° к°ңлЈЁн”„ м—ҶмқҢ вҶ’ л°°н„°лҰ¬ sag л©ҙм—ӯ
  13:Core/Src/drive.c ****   *          - IMU мӮ¬л§қ мӢң м „ кё°лҠҘмқҙ кұ°лҰ¬-onlyлЎң мһҗлҸҷ к°•л“ұ (мЈјн–ү мӨ‘лӢЁ м—ҶмқҢ)
  14:Core/Src/drive.c ****   ******************************************************************************
  15:Core/Src/drive.c ****   */
  16:Core/Src/drive.c **** /* USER CODE END Header */
  17:Core/Src/drive.c **** 
  18:Core/Src/drive.c **** #include "drive.h"
  19:Core/Src/drive.c **** #include "motor.h"
  20:Core/Src/drive.c **** #include <math.h>
  21:Core/Src/drive.c **** 
  22:Core/Src/drive.c **** /* ---- л””лІ„к·ё лҜёлҹ¬ (SWD Live Expressions л“ұлЎқ лҢҖмғҒ) ---- */
  23:Core/Src/drive.c **** volatile uint8_t dbg_state      = 0;     /* DriveState (0 CRUISE / 1 BRAKE / 2 SPIN / 3 REVERSE / 4
  24:Core/Src/drive.c ****                                             кө¬ dbg_avoiding лҢҖмІҙ: 0мқҙ м•„лӢҲл©ҙ нҡҢн”ј кі„м—ҙ *
  25:Core/Src/drive.c **** volatile uint8_t dbg_steer_mode = 0;     /* 0 м–‘лІҪм„јн„°л§Ғ / 1 н•ңлІҪ(мўҢ) / 2 н•ңлІҪ(мҡ°) / 3 h
  26:Core/Src/drive.c **** volatile float   dbg_steer      = 0.0f;  /* мЎ°н–Ҙлҹү u [%duty], + = мўҢмЎ°н–Ҙ */
  27:Core/Src/drive.c **** volatile int16_t dbg_duty_l     = 0;     /* CRUISE мўҢ/мҡ° л°”нҖҙ л“ҖнӢ° (лҚ°л“ңл°ҙл“ң (0,30) м№ЁлІ
  28:Core/Src/drive.c **** volatile int16_t dbg_duty_r     = 0;
  29:Core/Src/drive.c **** volatile float   dbg_hdg_err    = 0.0f;  /* heading-hold мҳӨм°Ё [deg] */
  30:Core/Src/drive.c **** volatile float   dbg_yaw_rate   = 0.0f;  /* CRUISE yaw-rate [deg/s], CW(мҡ°)=+. м§Ғм§„ мӢң 0 к·јмІҳ
ARM GAS  C:\Users\user\AppData\Local\Temp\ccy8zY0Q.s 			page 2


  31:Core/Src/drive.c **** volatile float   dbg_spin_deg   = 0.0f;  /* SPIN м§„мһ… нӣ„ лҲ„м Ғ нҡҢм „к°Ғ [deg] (TURN_MIN_DEG кІ
  32:Core/Src/drive.c **** volatile uint8_t dbg_turn_dir   = 0;     /* лһҳм№ҳ нҡҢм „ л°©н–Ҙ 0=мўҢ 1=мҡ° (кө¬ main.c лҜёлҹ¬ мҠ№
  33:Core/Src/drive.c **** volatile uint8_t dbg_rev_cnt    = 0;     /* м§Ғм§„ ліөк·Җ м—Ҷмқҙ лҲ„м Ғлҗң нӣ„м§„ chunk мҲҳ */
  34:Core/Src/drive.c **** 
  35:Core/Src/drive.c **** /* ---- мЎ°н–Ҙ лӘЁл“ң ---- */
  36:Core/Src/drive.c **** #define SM_BOTH   0   /* м–‘лІҪ м„јн„°л§Ғ: u = KP_WALL Г— (l вҲ’ r) */
  37:Core/Src/drive.c **** #define SM_LEFT   1   /* мўҢлІҪл§Ң: м§„мһ… мӢң кұ°лҰ¬ лһҳм№ҳ нӣ„ л“ұкұ°лҰ¬ мң м§Җ */
  38:Core/Src/drive.c **** #define SM_RIGHT  2   /* мҡ°лІҪл§Ң */
  39:Core/Src/drive.c **** #define SM_HDG    3   /* л¬ҙлІҪ: IMU heading-hold */
  40:Core/Src/drive.c **** #define SM_OPEN   4   /* л¬ҙлІҪ + IMU мӮ¬л§қ: open-loop м§Ғм§„ (л Ҳкұ°мӢң кұ°лҸҷ) */
  41:Core/Src/drive.c **** #define SM_INIT   255 /* CRUISE м§„мһ… м§Ғнӣ„ вҖ” мІ« лЈЁн”„м—җ лӘЁл“ң лһҳм№ҳ к°•м ң */
  42:Core/Src/drive.c **** 
  43:Core/Src/drive.c **** /* ---- Narrow-course centering control ---- */
  44:Core/Src/drive.c **** #define CENTER_MA_WIN              5U      /* Moving average window: 3~5 recommended */
  45:Core/Src/drive.c **** #define CENTER_DEADZONE_CM         2.0f    /* Force neutral steering inside +/-2 cm */
  46:Core/Src/drive.c **** #define CENTER_KP                  0.80f   /* Steering P gain [%duty / cm] */
  47:Core/Src/drive.c **** #define CENTER_KD                  0.035f  /* Steering D gain [%duty / (cm/s)] */
  48:Core/Src/drive.c **** #define CENTER_STEER_MAX_PCT       10.0f   /* Max differential steering command */
  49:Core/Src/drive.c **** #define CENTER_BASE_SPEED_PCT      45.0f   /* Straight driving speed (was 32, +40%) */
  50:Core/Src/drive.c **** #define CENTER_MIN_SPEED_PCT       32.0f   /* Speed at max steering / corner apex (was 24; м •м§Җ м
  51:Core/Src/drive.c **** #define CENTER_SENSOR_MAX_CM       80U     /* Clamp side sensor spikes */
  52:Core/Src/drive.c **** 
  53:Core/Src/drive.c **** #if (CENTER_MA_WIN < 3U) || (CENTER_MA_WIN > 5U)
  54:Core/Src/drive.c **** #error "CENTER_MA_WIN must be 3~5"
  55:Core/Src/drive.c **** #endif
  56:Core/Src/drive.c **** 
  57:Core/Src/drive.c **** /* ---- Corner anticipation (м „л°© к·јм ‘ м•„нҒ¬ лё”л Ңл“ң) ----
  58:Core/Src/drive.c ****  * м •л©ҙмқҙ к°Җк№ҢмӣҢм§ҲмҲҳлЎқ мЎ°н–Ҙ к¶Ңн•ңвҶ‘(м•Ҫн•ң м„јн„°л§ҒвҶ’к°•н•ң м•„нҒ¬) + мҶҚлҸ„ н…Ңмқҙн
  59:Core/Src/drive.c ****  * 90В° мҪ”л„ҲлҘј м •м§Җ м—Ҷмқҙ көҙлҹ¬м„ң нҶөкіј. лӘ» лҸҢ л§ҢнҒј кёүн•ҳл©ҙ cruise_runмқҳ brakeвҶ’sp
  60:Core/Src/drive.c **** #define CORNER_NEAR_CM         55.0f   /* м •л©ҙ мқҙ кұ°лҰ¬л¶Җн„° лё”л Ңл“ң мӢңмһ‘. FRONT_STOP_CM(2
  61:Core/Src/drive.c **** #define CORNER_STEER_MAX_PCT   38.0f   /* apex(fвүҲFRONT_STOP)м—җм„ң мЎ°н–Ҙ мғҒн•ң. м§Ғм§„мқҖ CENTE
  62:Core/Src/drive.c **** 
  63:Core/Src/drive.c **** /* ---- лӮҙл¶Җ мғҒнғң ---- */
  64:Core/Src/drive.c **** /* stл§Ң volatile: MotorTaskк°Җ м“°кі  SensorTaskк°Җ Drive_GetState()лЎң нҒ¬лЎңмҠӨ-нғңмҠӨнҒ¬ мқҪкё°
  65:Core/Src/drive.c ****  * (м„ м ң м ңлҸҷ кІҢмқҙнҠё). лӢЁмқј мӣҢл“ңлқј мӣҗмһҗм Ғ вҖ” к°ҖмӢңм„ұл§Ң ліҙмһҘн•ҳл©ҙ лҗЁ */
  66:Core/Src/drive.c **** static volatile DriveState st = DS_CRUISE;
  67:Core/Src/drive.c **** static uint32_t   t_state  = 0;    /* нҳ„мһ¬ мғҒнғң м§„мһ… мӢңк°Ғ */
  68:Core/Src/drive.c **** static uint8_t    turn_dir = 0;    /* 0=мўҢ 1=мҡ° */
  69:Core/Src/drive.c **** static uint8_t    swap_cnt = 0;    /* мқҙлІҲ SPINм—җм„ң л°©н–Ҙ flip нҡҹмҲҳ */
  70:Core/Src/drive.c **** static uint8_t    rev_cnt  = 0;    /* CRUISE ліөк·Җ м—Ҷмқҙ лҲ„м Ғлҗң нӣ„м§„ chunk (CRUISE м§„мһ… мӢ
  71:Core/Src/drive.c **** static uint8_t    clear_cnt = 0;   /* м •л©ҙ нҠёмһ„ м—°мҶҚ(мң нҡЁ мёЎм •) м№ҙмҡҙнҠё */
  72:Core/Src/drive.c **** static float      h_entry  = 0.0f; /* SPIN м§„мһ… heading (нҡҢм „к°Ғ кІҢмқҙнҠё/лҜёлҹ¬ кё°мӨҖ) */
  73:Core/Src/drive.c **** static float      h_ref    = 0.0f; /* heading-hold кё°мӨҖ */
  74:Core/Src/drive.c **** static float      h_stuck  = 0.0f; /* мҠӨн„ұ к°җм§Җ мңҲлҸ„ мӢңмһ‘ heading */
  75:Core/Src/drive.c **** static uint32_t   t_stuck  = 0;
  76:Core/Src/drive.c **** static float      steer_u  = 0.0f; /* slew м—°мҶҚм„ұмҡ© м§Ғм „ мЎ°н–Ҙлҹү */
  77:Core/Src/drive.c **** static float      side_set = 0.0f; /* н•ңлІҪ лӘЁл“ң лӘ©н‘ңкұ°лҰ¬ */
  78:Core/Src/drive.c **** static uint8_t    steer_mode = SM_INIT;
  79:Core/Src/drive.c **** static float      h_prev   = 0.0f; /* yaw-rate Dн•ӯ: м§Ғм „ heading */
  80:Core/Src/drive.c **** static uint32_t   t_prev   = 0;    /* yaw-rate Dн•ӯ: м§Ғм „ мӢңк°Ғ */
  81:Core/Src/drive.c **** 
  82:Core/Src/drive.c **** /* мһ„мқҳ к°ҒлҸ„м°Ё вҶ’ (-180, 180]. мһ…л ҘмқҖ 0~360 к°’л“Өмқҳ м°Ёлқј лЈЁн”„лҠ” 1~2нҡҢлЎң мў…лЈҢ */
  83:Core/Src/drive.c **** static float wrap180(float a)
  84:Core/Src/drive.c **** {
  29              		.loc 1 84 1 view -0
  30              		.cfi_startproc
  31              		@ args = 0, pretend = 0, frame = 0
ARM GAS  C:\Users\user\AppData\Local\Temp\ccy8zY0Q.s 			page 3


  32              		@ frame_needed = 0, uses_anonymous_args = 0
  33              		@ link register save eliminated.
  85:Core/Src/drive.c ****     while (a >   180.0f) a -= 360.0f;
  34              		.loc 1 85 5 view .LVU1
  35              		.loc 1 85 11 is_stmt 0 view .LVU2
  36 0000 03E0     		b	.L2
  37              	.L3:
  38              		.loc 1 85 26 is_stmt 1 discriminator 2 view .LVU3
  39              		.loc 1 85 28 is_stmt 0 discriminator 2 view .LVU4
  40 0002 DFED0C7A 		vldr.32	s15, .L6
  41 0006 30EE670A 		vsub.f32	s0, s0, s15
  42              	.LVL1:
  43              	.L2:
  44              		.loc 1 85 14 is_stmt 1 discriminator 1 view .LVU5
  45 000a DFED0B7A 		vldr.32	s15, .L6+4
  46 000e B4EEE70A 		vcmpe.f32	s0, s15
  47 0012 F1EE10FA 		vmrs	APSR_nzcv, FPSCR
  48 0016 F4DC     		bgt	.L3
  49 0018 03E0     		b	.L4
  50              	.L5:
  86:Core/Src/drive.c ****     while (a <= -180.0f) a += 360.0f;
  51              		.loc 1 86 26 discriminator 2 view .LVU6
  52              		.loc 1 86 28 is_stmt 0 discriminator 2 view .LVU7
  53 001a DFED067A 		vldr.32	s15, .L6
  54 001e 30EE270A 		vadd.f32	s0, s0, s15
  55              	.LVL2:
  56              	.L4:
  57              		.loc 1 86 14 is_stmt 1 discriminator 1 view .LVU8
  58 0022 DFED067A 		vldr.32	s15, .L6+8
  59 0026 B4EEE70A 		vcmpe.f32	s0, s15
  60 002a F1EE10FA 		vmrs	APSR_nzcv, FPSCR
  61 002e F4D9     		bls	.L5
  87:Core/Src/drive.c ****     return a;
  62              		.loc 1 87 5 view .LVU9
  88:Core/Src/drive.c **** }
  63              		.loc 1 88 1 is_stmt 0 view .LVU10
  64 0030 7047     		bx	lr
  65              	.L7:
  66 0032 00BF     		.align	2
  67              	.L6:
  68 0034 0000B443 		.word	1135869952
  69 0038 00003443 		.word	1127481344
  70 003c 000034C3 		.word	-1020002304
  71              		.cfi_endproc
  72              	.LFE134:
  74              		.section	.text.clampf,"ax",%progbits
  75              		.align	1
  76              		.syntax unified
  77              		.thumb
  78              		.thumb_func
  80              	clampf:
  81              	.LVL3:
  82              	.LFB135:
  89:Core/Src/drive.c **** 
  90:Core/Src/drive.c **** static float clampf(float v, float lo, float hi)
  91:Core/Src/drive.c **** {
  83              		.loc 1 91 1 is_stmt 1 view -0
ARM GAS  C:\Users\user\AppData\Local\Temp\ccy8zY0Q.s 			page 4


  84              		.cfi_startproc
  85              		@ args = 0, pretend = 0, frame = 0
  86              		@ frame_needed = 0, uses_anonymous_args = 0
  87              		@ link register save eliminated.
  92:Core/Src/drive.c ****     if (v < lo) return lo;
  88              		.loc 1 92 5 view .LVU12
  89              		.loc 1 92 8 is_stmt 0 view .LVU13
  90 0000 B4EEE00A 		vcmpe.f32	s0, s1
  91 0004 F1EE10FA 		vmrs	APSR_nzcv, FPSCR
  92 0008 05D4     		bmi	.L10
  93:Core/Src/drive.c ****     if (v > hi) return hi;
  93              		.loc 1 93 5 is_stmt 1 view .LVU14
  94              		.loc 1 93 8 is_stmt 0 view .LVU15
  95 000a B4EEC10A 		vcmpe.f32	s0, s2
  96 000e F1EE10FA 		vmrs	APSR_nzcv, FPSCR
  97 0012 03DC     		bgt	.L11
  98 0014 7047     		bx	lr
  99              	.L10:
  92:Core/Src/drive.c ****     if (v < lo) return lo;
 100              		.loc 1 92 24 discriminator 1 view .LVU16
 101 0016 B0EE600A 		vmov.f32	s0, s1
 102              	.LVL4:
  92:Core/Src/drive.c ****     if (v < lo) return lo;
 103              		.loc 1 92 24 discriminator 1 view .LVU17
 104 001a 7047     		bx	lr
 105              	.LVL5:
 106              	.L11:
 107              		.loc 1 93 24 discriminator 1 view .LVU18
 108 001c B0EE410A 		vmov.f32	s0, s2
 109              	.LVL6:
  94:Core/Src/drive.c ****     return v;
  95:Core/Src/drive.c **** }
 110              		.loc 1 95 1 view .LVU19
 111 0020 7047     		bx	lr
 112              		.cfi_endproc
 113              	.LFE135:
 115              		.section	.text.center_sanitize_cm,"ax",%progbits
 116              		.align	1
 117              		.syntax unified
 118              		.thumb
 119              		.thumb_func
 121              	center_sanitize_cm:
 122              	.LVL7:
 123              	.LFB136:
  96:Core/Src/drive.c **** 
  97:Core/Src/drive.c **** static uint16_t center_sanitize_cm(uint16_t cm)
  98:Core/Src/drive.c **** {
 124              		.loc 1 98 1 is_stmt 1 view -0
 125              		.cfi_startproc
 126              		@ args = 0, pretend = 0, frame = 0
 127              		@ frame_needed = 0, uses_anonymous_args = 0
 128              		@ link register save eliminated.
  99:Core/Src/drive.c ****     if (cm == 0U) return CENTER_SENSOR_MAX_CM;
 129              		.loc 1 99 5 view .LVU21
 130              		.loc 1 99 8 is_stmt 0 view .LVU22
 131 0000 10B1     		cbz	r0, .L14
 100:Core/Src/drive.c ****     if (cm > CENTER_SENSOR_MAX_CM) return CENTER_SENSOR_MAX_CM;
ARM GAS  C:\Users\user\AppData\Local\Temp\ccy8zY0Q.s 			page 5


 132              		.loc 1 100 5 is_stmt 1 view .LVU23
 133              		.loc 1 100 8 is_stmt 0 view .LVU24
 134 0002 5028     		cmp	r0, #80
 135 0004 02D8     		bhi	.L15
 136 0006 7047     		bx	lr
 137              	.L14:
  99:Core/Src/drive.c ****     if (cm == 0U) return CENTER_SENSOR_MAX_CM;
 138              		.loc 1 99 26 discriminator 1 view .LVU25
 139 0008 5020     		movs	r0, #80
 140              	.LVL8:
  99:Core/Src/drive.c ****     if (cm == 0U) return CENTER_SENSOR_MAX_CM;
 141              		.loc 1 99 26 discriminator 1 view .LVU26
 142 000a 7047     		bx	lr
 143              	.LVL9:
 144              	.L15:
 145              		.loc 1 100 43 discriminator 1 view .LVU27
 146 000c 5020     		movs	r0, #80
 147              	.LVL10:
 101:Core/Src/drive.c ****     return cm;
 102:Core/Src/drive.c **** }
 148              		.loc 1 102 1 view .LVU28
 149 000e 7047     		bx	lr
 150              		.cfi_endproc
 151              	.LFE136:
 153              		.section	.text.center_avg_u16,"ax",%progbits
 154              		.align	1
 155              		.syntax unified
 156              		.thumb
 157              		.thumb_func
 159              	center_avg_u16:
 160              	.LVL11:
 161              	.LFB137:
 103:Core/Src/drive.c **** 
 104:Core/Src/drive.c **** static float center_avg_u16(const uint16_t *buf, uint8_t n)
 105:Core/Src/drive.c **** {
 162              		.loc 1 105 1 is_stmt 1 view -0
 163              		.cfi_startproc
 164              		@ args = 0, pretend = 0, frame = 0
 165              		@ frame_needed = 0, uses_anonymous_args = 0
 166              		@ link register save eliminated.
 106:Core/Src/drive.c ****     uint32_t sum = 0U;
 167              		.loc 1 106 5 view .LVU30
 107:Core/Src/drive.c **** 
 108:Core/Src/drive.c ****     for (uint8_t i = 0U; i < n; i++)
 168              		.loc 1 108 5 view .LVU31
 169              	.LBB2:
 170              		.loc 1 108 10 view .LVU32
 171              		.loc 1 108 18 is_stmt 0 view .LVU33
 172 0000 0023     		movs	r3, #0
 173              	.LBE2:
 106:Core/Src/drive.c ****     uint32_t sum = 0U;
 174              		.loc 1 106 14 view .LVU34
 175 0002 1A46     		mov	r2, r3
 176              	.LBB3:
 177              		.loc 1 108 5 view .LVU35
 178 0004 04E0     		b	.L17
 179              	.LVL12:
ARM GAS  C:\Users\user\AppData\Local\Temp\ccy8zY0Q.s 			page 6


 180              	.L18:
 109:Core/Src/drive.c ****         sum += buf[i];
 181              		.loc 1 109 9 is_stmt 1 view .LVU36
 182              		.loc 1 109 19 is_stmt 0 view .LVU37
 183 0006 30F813C0 		ldrh	ip, [r0, r3, lsl #1]
 184              		.loc 1 109 13 view .LVU38
 185 000a 6244     		add	r2, r2, ip
 186              	.LVL13:
 108:Core/Src/drive.c ****         sum += buf[i];
 187              		.loc 1 108 34 is_stmt 1 discriminator 3 view .LVU39
 188 000c 0133     		adds	r3, r3, #1
 189              	.LVL14:
 108:Core/Src/drive.c ****         sum += buf[i];
 190              		.loc 1 108 34 is_stmt 0 discriminator 3 view .LVU40
 191 000e DBB2     		uxtb	r3, r3
 192              	.LVL15:
 193              	.L17:
 108:Core/Src/drive.c ****         sum += buf[i];
 194              		.loc 1 108 28 is_stmt 1 discriminator 1 view .LVU41
 195 0010 8B42     		cmp	r3, r1
 196 0012 F8D3     		bcc	.L18
 197              	.LBE3:
 110:Core/Src/drive.c **** 
 111:Core/Src/drive.c ****     return (float)sum / (float)n;
 198              		.loc 1 111 5 view .LVU42
 199              		.loc 1 111 12 is_stmt 0 view .LVU43
 200 0014 07EE902A 		vmov	s15, r2	@ int
 201 0018 F8EE677A 		vcvt.f32.u32	s15, s15
 202              		.loc 1 111 25 view .LVU44
 203 001c 07EE101A 		vmov	s14, r1	@ int
 204 0020 B8EE470A 		vcvt.f32.u32	s0, s14
 112:Core/Src/drive.c **** }
 205              		.loc 1 112 1 view .LVU45
 206 0024 87EE800A 		vdiv.f32	s0, s15, s0
 207 0028 7047     		bx	lr
 208              		.cfi_endproc
 209              	.LFE137:
 211              		.section	.text.enter,"ax",%progbits
 212              		.align	1
 213              		.syntax unified
 214              		.thumb
 215              		.thumb_func
 217              	enter:
 218              	.LVL16:
 219              	.LFB139:
 113:Core/Src/drive.c **** 
 114:Core/Src/drive.c **** static void Drive_CenteringPD_Run(const DriveInputs *in)
 115:Core/Src/drive.c **** {
 116:Core/Src/drive.c ****     static uint16_t l_buf[CENTER_MA_WIN];
 117:Core/Src/drive.c ****     static uint16_t r_buf[CENTER_MA_WIN];
 118:Core/Src/drive.c ****     static uint8_t  idx = 0U;
 119:Core/Src/drive.c ****     static uint8_t  count = 0U;
 120:Core/Src/drive.c ****     static float    prev_error = 0.0f;
 121:Core/Src/drive.c ****     static uint32_t prev_ms = 0U;
 122:Core/Src/drive.c **** 
 123:Core/Src/drive.c ****     l_buf[idx] = center_sanitize_cm(in->l);
 124:Core/Src/drive.c ****     r_buf[idx] = center_sanitize_cm(in->r);
ARM GAS  C:\Users\user\AppData\Local\Temp\ccy8zY0Q.s 			page 7


 125:Core/Src/drive.c **** 
 126:Core/Src/drive.c ****     idx = (uint8_t)((idx + 1U) % CENTER_MA_WIN);
 127:Core/Src/drive.c ****     if (count < CENTER_MA_WIN)
 128:Core/Src/drive.c ****         count++;
 129:Core/Src/drive.c **** 
 130:Core/Src/drive.c ****     float left_cm  = center_avg_u16(l_buf, count);
 131:Core/Src/drive.c ****     float right_cm = center_avg_u16(r_buf, count);
 132:Core/Src/drive.c ****     float error = left_cm - right_cm;
 133:Core/Src/drive.c ****     float steer = 0.0f;
 134:Core/Src/drive.c **** 
 135:Core/Src/drive.c ****     /* м „л°© к·јм ‘ лё”л Ңл“ң кі„мҲҳ: fк°Җ CORNER_NEAR_CMвҶ’FRONT_STOP_CMлЎң мӨ„мҲҳлЎқ fc 0вҶ’1 */
 136:Core/Src/drive.c ****     float fc = 0.0f;
 137:Core/Src/drive.c ****     if ((float)in->f < CORNER_NEAR_CM)
 138:Core/Src/drive.c ****         fc = clampf((CORNER_NEAR_CM - (float)in->f)
 139:Core/Src/drive.c ****                   / (CORNER_NEAR_CM - (float)FRONT_STOP_CM), 0.0f, 1.0f);
 140:Core/Src/drive.c **** 
 141:Core/Src/drive.c ****     /* мЎ°н–Ҙ к¶Ңн•ң лһЁн”„: м§Ғм§„ CENTER_STEER_MAX_PCT(10) вҶ’ apex CORNER_STEER_MAX_PCT(38) */
 142:Core/Src/drive.c ****     float steer_max = CENTER_STEER_MAX_PCT
 143:Core/Src/drive.c ****                     + fc * (CORNER_STEER_MAX_PCT - CENTER_STEER_MAX_PCT);
 144:Core/Src/drive.c **** 
 145:Core/Src/drive.c ****     if (fabsf(error) <= CENTER_DEADZONE_CM)
 146:Core/Src/drive.c ****     {
 147:Core/Src/drive.c ****         prev_error = 0.0f;
 148:Core/Src/drive.c ****     }
 149:Core/Src/drive.c ****     else
 150:Core/Src/drive.c ****     {
 151:Core/Src/drive.c ****         float dt = 0.02f;
 152:Core/Src/drive.c **** 
 153:Core/Src/drive.c ****         if (prev_ms != 0U && in->now > prev_ms)
 154:Core/Src/drive.c ****         {
 155:Core/Src/drive.c ****             dt = (float)(in->now - prev_ms) / 1000.0f;
 156:Core/Src/drive.c ****             dt = clampf(dt, 0.005f, 0.100f);
 157:Core/Src/drive.c ****         }
 158:Core/Src/drive.c **** 
 159:Core/Src/drive.c ****         float d_error = (error - prev_error) / dt;
 160:Core/Src/drive.c **** 
 161:Core/Src/drive.c ****         steer = (CENTER_KP * error) + (CENTER_KD * d_error);
 162:Core/Src/drive.c ****         steer = clampf(steer, -steer_max, steer_max);   /* кі м • 10 лҢҖмӢ  лһЁн”„лҗң мғҒн•ң */
 163:Core/Src/drive.c ****         prev_error = error;
 164:Core/Src/drive.c ****     }
 165:Core/Src/drive.c **** 
 166:Core/Src/drive.c ****     prev_ms = in->now;
 167:Core/Src/drive.c **** 
 168:Core/Src/drive.c ****     /* мҶҚлҸ„: мЎ°н–Ҙлҹү л№„лЎҖ к°җмҶҚ(кё°мЎҙ) + м „л°©к·јм ‘ л№„лЎҖ к°җмҶҚ(мӢ к·ң, minмӘҪ) вҶ’ лІҪ
 169:Core/Src/drive.c ****     float steer_ratio = fabsf(steer) / steer_max;   /* лһЁн”„лҗң maxлЎң м •к·ңнҷ” (steer_maxвүҘ10>0
 170:Core/Src/drive.c ****     float base = CENTER_BASE_SPEED_PCT
 171:Core/Src/drive.c ****                - ((CENTER_BASE_SPEED_PCT - CENTER_MIN_SPEED_PCT) * steer_ratio);
 172:Core/Src/drive.c ****     base = base - fc * (base - CENTER_MIN_SPEED_PCT);
 173:Core/Src/drive.c ****     base = clampf(base, CENTER_MIN_SPEED_PCT, CENTER_BASE_SPEED_PCT);
 174:Core/Src/drive.c **** 
 175:Core/Src/drive.c ****     float lt = clampf(base - steer, 0.0f, 100.0f);   /* м•ҲмӘҪ л°”лӢҘ 0 = м•„нҒ¬(м—ӯнҡҢм „ м—ҶмқҢ) 
 176:Core/Src/drive.c ****     float rt = clampf(base + steer, 0.0f, 100.0f);
 177:Core/Src/drive.c **** 
 178:Core/Src/drive.c ****     Motor_Left((int8_t)(lt + 0.5f));
 179:Core/Src/drive.c ****     Motor_Right((int8_t)(rt + 0.5f));
 180:Core/Src/drive.c **** 
 181:Core/Src/drive.c ****     dbg_steer      = steer;
ARM GAS  C:\Users\user\AppData\Local\Temp\ccy8zY0Q.s 			page 8


 182:Core/Src/drive.c ****     dbg_steer_mode = SM_BOTH;
 183:Core/Src/drive.c ****     dbg_duty_l     = (int16_t)(lt + 0.5f);
 184:Core/Src/drive.c ****     dbg_duty_r     = (int16_t)(rt + 0.5f);
 185:Core/Src/drive.c **** }
 186:Core/Src/drive.c **** 
 187:Core/Src/drive.c **** /* ---- мғҒнғң м§„мһ… н—¬нҚј (м§„мһ… м•Ўм…ҳ + нғҖмһ„мҠӨнғ¬н”„) ---- */
 188:Core/Src/drive.c **** 
 189:Core/Src/drive.c **** static void enter(DriveState s, uint32_t now)
 190:Core/Src/drive.c **** {
 220              		.loc 1 190 1 is_stmt 1 view -0
 221              		.cfi_startproc
 222              		@ args = 0, pretend = 0, frame = 0
 223              		@ frame_needed = 0, uses_anonymous_args = 0
 224              		@ link register save eliminated.
 191:Core/Src/drive.c ****     st = s;
 225              		.loc 1 191 5 view .LVU47
 226              		.loc 1 191 8 is_stmt 0 view .LVU48
 227 0000 024B     		ldr	r3, .L20
 228 0002 1870     		strb	r0, [r3]
 192:Core/Src/drive.c ****     t_state = now;
 229              		.loc 1 192 5 is_stmt 1 view .LVU49
 230              		.loc 1 192 13 is_stmt 0 view .LVU50
 231 0004 024B     		ldr	r3, .L20+4
 232 0006 1960     		str	r1, [r3]
 193:Core/Src/drive.c **** }
 233              		.loc 1 193 1 view .LVU51
 234 0008 7047     		bx	lr
 235              	.L21:
 236 000a 00BF     		.align	2
 237              	.L20:
 238 000c 00000000 		.word	st
 239 0010 00000000 		.word	t_state
 240              		.cfi_endproc
 241              	.LFE139:
 243              		.section	.text.cruise_enter,"ax",%progbits
 244              		.align	1
 245              		.syntax unified
 246              		.thumb
 247              		.thumb_func
 249              	cruise_enter:
 250              	.LVL17:
 251              	.LFB140:
 194:Core/Src/drive.c **** 
 195:Core/Src/drive.c **** static void cruise_enter(const DriveInputs *in)
 196:Core/Src/drive.c **** {
 252              		.loc 1 196 1 is_stmt 1 view -0
 253              		.cfi_startproc
 254              		@ args = 0, pretend = 0, frame = 0
 255              		@ frame_needed = 0, uses_anonymous_args = 0
 256              		.loc 1 196 1 is_stmt 0 view .LVU53
 257 0000 08B5     		push	{r3, lr}
 258              	.LCFI0:
 259              		.cfi_def_cfa_offset 8
 260              		.cfi_offset 3, -8
 261              		.cfi_offset 14, -4
 262 0002 0346     		mov	r3, r0
 197:Core/Src/drive.c ****     h_ref      = in->heading;   /* л¬ҙлІҪ кө¬к°„ м§Ғм§„ кё°мӨҖ вҖ” нҡҢн”ј м§Ғнӣ„мқҳ мғҲ м§„н–үл°©н–
ARM GAS  C:\Users\user\AppData\Local\Temp\ccy8zY0Q.s 			page 9


 263              		.loc 1 197 5 is_stmt 1 view .LVU54
 264              		.loc 1 197 20 is_stmt 0 view .LVU55
 265 0004 8268     		ldr	r2, [r0, #8]	@ float
 266              		.loc 1 197 16 view .LVU56
 267 0006 0949     		ldr	r1, .L24
 268 0008 0A60     		str	r2, [r1]	@ float
 198:Core/Src/drive.c ****     steer_u    = 0.0f;
 269              		.loc 1 198 5 is_stmt 1 view .LVU57
 270              		.loc 1 198 16 is_stmt 0 view .LVU58
 271 000a 0949     		ldr	r1, .L24+4
 272 000c 0020     		movs	r0, #0
 273              	.LVL18:
 274              		.loc 1 198 16 view .LVU59
 275 000e 0860     		str	r0, [r1]	@ float
 199:Core/Src/drive.c ****     steer_mode = SM_INIT;
 276              		.loc 1 199 5 is_stmt 1 view .LVU60
 277              		.loc 1 199 16 is_stmt 0 view .LVU61
 278 0010 0849     		ldr	r1, .L24+8
 279 0012 FF20     		movs	r0, #255
 280 0014 0870     		strb	r0, [r1]
 200:Core/Src/drive.c ****     rev_cnt    = 0;
 281              		.loc 1 200 5 is_stmt 1 view .LVU62
 282              		.loc 1 200 16 is_stmt 0 view .LVU63
 283 0016 0020     		movs	r0, #0
 284 0018 0749     		ldr	r1, .L24+12
 285 001a 0870     		strb	r0, [r1]
 201:Core/Src/drive.c ****     h_prev     = in->heading;   /* yaw-rate лҰ¬м…Ӣ: нҡҢн”ј ліөк·Җ м§Ғнӣ„ stale headingм°ЁлЎң мҠӨнҢҢ
 286              		.loc 1 201 5 is_stmt 1 view .LVU64
 287              		.loc 1 201 16 is_stmt 0 view .LVU65
 288 001c 0749     		ldr	r1, .L24+16
 289 001e 0A60     		str	r2, [r1]	@ float
 202:Core/Src/drive.c ****     t_prev     = in->now;
 290              		.loc 1 202 5 is_stmt 1 view .LVU66
 291              		.loc 1 202 20 is_stmt 0 view .LVU67
 292 0020 1969     		ldr	r1, [r3, #16]
 293              		.loc 1 202 16 view .LVU68
 294 0022 074B     		ldr	r3, .L24+20
 295              	.LVL19:
 296              		.loc 1 202 16 view .LVU69
 297 0024 1960     		str	r1, [r3]
 203:Core/Src/drive.c ****     enter(DS_CRUISE, in->now);
 298              		.loc 1 203 5 is_stmt 1 view .LVU70
 299 0026 FFF7FEFF 		bl	enter
 300              	.LVL20:
 204:Core/Src/drive.c **** }
 301              		.loc 1 204 1 is_stmt 0 view .LVU71
 302 002a 08BD     		pop	{r3, pc}
 303              	.L25:
 304              		.align	2
 305              	.L24:
 306 002c 00000000 		.word	h_ref
 307 0030 00000000 		.word	steer_u
 308 0034 00000000 		.word	steer_mode
 309 0038 00000000 		.word	rev_cnt
 310 003c 00000000 		.word	h_prev
 311 0040 00000000 		.word	t_prev
 312              		.cfi_endproc
ARM GAS  C:\Users\user\AppData\Local\Temp\ccy8zY0Q.s 			page 10


 313              	.LFE140:
 315              		.section	.text.spin_enter,"ax",%progbits
 316              		.align	1
 317              		.syntax unified
 318              		.thumb
 319              		.thumb_func
 321              	spin_enter:
 322              	.LVL21:
 323              	.LFB142:
 205:Core/Src/drive.c **** 
 206:Core/Src/drive.c **** static void brake_enter(const DriveInputs *in)
 207:Core/Src/drive.c **** {
 208:Core/Src/drive.c ****     if (BRAKE_MS > 0) Car_Brake();   /* BRAKE_MS=0 вҶ’ л Ҳкұ°мӢң мҪ”мҠӨнҠё нҸҙл°ұ */
 209:Core/Src/drive.c ****     else              Car_Stop();
 210:Core/Src/drive.c ****     enter(DS_BRAKE, in->now);
 211:Core/Src/drive.c **** }
 212:Core/Src/drive.c **** 
 213:Core/Src/drive.c **** /* tie_flip: мўҢмҡ° мҡ°м—ҙмқҙ SIDE_HYST лҜёл§Ң(лҸҷлҘ )мқј л•Ң м§Ғм „ л°©н–Ҙ мң м§Җ(0) vs л°ҳлҢҖлЎң(
 214:Core/Src/drive.c ****  * нӣ„м§„мқ„ кұ°міҗ л“Өм–ҙмҳӨл©ҙ л°ҳлҢҖмӘҪмқ„ мӢңлҸ„н•ҳлҠ” кІҢ нҸ¬мј“ нғҲм¶ңм—җ мң лҰ¬ */
 215:Core/Src/drive.c **** static void spin_enter(const DriveInputs *in, uint8_t tie_flip)
 216:Core/Src/drive.c **** {
 324              		.loc 1 216 1 is_stmt 1 view -0
 325              		.cfi_startproc
 326              		@ args = 0, pretend = 0, frame = 0
 327              		@ frame_needed = 0, uses_anonymous_args = 0
 328              		.loc 1 216 1 is_stmt 0 view .LVU73
 329 0000 08B5     		push	{r3, lr}
 330              	.LCFI1:
 331              		.cfi_def_cfa_offset 8
 332              		.cfi_offset 3, -8
 333              		.cfi_offset 14, -4
 217:Core/Src/drive.c ****     if      (in->l > in->r + SIDE_HYST) turn_dir = 0;   /* мҷјмӘҪмқҙ лҚ” нҠёмһ„ вҶ’ мўҢнҡҢм „ */
 334              		.loc 1 217 5 is_stmt 1 view .LVU74
 335              		.loc 1 217 16 is_stmt 0 view .LVU75
 336 0002 4388     		ldrh	r3, [r0, #2]
 337              		.loc 1 217 24 view .LVU76
 338 0004 8288     		ldrh	r2, [r0, #4]
 339              		.loc 1 217 28 view .LVU77
 340 0006 02F1050C 		add	ip, r2, #5
 341              		.loc 1 217 13 view .LVU78
 342 000a 6345     		cmp	r3, ip
 343 000c 13DD     		ble	.L27
 344              		.loc 1 217 41 is_stmt 1 discriminator 1 view .LVU79
 345              		.loc 1 217 50 is_stmt 0 discriminator 1 view .LVU80
 346 000e 114B     		ldr	r3, .L31
 347 0010 0022     		movs	r2, #0
 348 0012 1A70     		strb	r2, [r3]
 349              	.L28:
 218:Core/Src/drive.c ****     else if (in->r > in->l + SIDE_HYST) turn_dir = 1;
 219:Core/Src/drive.c ****     else if (tie_flip)                  turn_dir ^= 1;
 220:Core/Src/drive.c ****     swap_cnt  = 0;
 350              		.loc 1 220 5 is_stmt 1 view .LVU81
 351              		.loc 1 220 15 is_stmt 0 view .LVU82
 352 0014 0023     		movs	r3, #0
 353 0016 104A     		ldr	r2, .L31+4
 354 0018 1370     		strb	r3, [r2]
 221:Core/Src/drive.c ****     clear_cnt = 0;
ARM GAS  C:\Users\user\AppData\Local\Temp\ccy8zY0Q.s 			page 11


 355              		.loc 1 221 5 is_stmt 1 view .LVU83
 356              		.loc 1 221 15 is_stmt 0 view .LVU84
 357 001a 104A     		ldr	r2, .L31+8
 358 001c 1370     		strb	r3, [r2]
 222:Core/Src/drive.c ****     h_entry = in->heading;
 359              		.loc 1 222 5 is_stmt 1 view .LVU85
 360              		.loc 1 222 17 is_stmt 0 view .LVU86
 361 001e 8368     		ldr	r3, [r0, #8]	@ float
 362              		.loc 1 222 13 view .LVU87
 363 0020 0F4A     		ldr	r2, .L31+12
 364 0022 1360     		str	r3, [r2]	@ float
 223:Core/Src/drive.c ****     h_stuck = in->heading;
 365              		.loc 1 223 5 is_stmt 1 view .LVU88
 366              		.loc 1 223 13 is_stmt 0 view .LVU89
 367 0024 0F4A     		ldr	r2, .L31+16
 368 0026 1360     		str	r3, [r2]	@ float
 224:Core/Src/drive.c ****     t_stuck = in->now;
 369              		.loc 1 224 5 is_stmt 1 view .LVU90
 370              		.loc 1 224 17 is_stmt 0 view .LVU91
 371 0028 0169     		ldr	r1, [r0, #16]
 372              	.LVL22:
 373              		.loc 1 224 13 view .LVU92
 374 002a 0F4B     		ldr	r3, .L31+20
 375 002c 1960     		str	r1, [r3]
 225:Core/Src/drive.c ****     enter(DS_SPIN, in->now);
 376              		.loc 1 225 5 is_stmt 1 view .LVU93
 377 002e 0220     		movs	r0, #2
 378              	.LVL23:
 379              		.loc 1 225 5 is_stmt 0 view .LVU94
 380 0030 FFF7FEFF 		bl	enter
 381              	.LVL24:
 226:Core/Src/drive.c **** }
 382              		.loc 1 226 1 view .LVU95
 383 0034 08BD     		pop	{r3, pc}
 384              	.LVL25:
 385              	.L27:
 218:Core/Src/drive.c ****     else if (tie_flip)                  turn_dir ^= 1;
 386              		.loc 1 218 10 is_stmt 1 view .LVU96
 218:Core/Src/drive.c ****     else if (tie_flip)                  turn_dir ^= 1;
 387              		.loc 1 218 28 is_stmt 0 view .LVU97
 388 0036 0533     		adds	r3, r3, #5
 218:Core/Src/drive.c ****     else if (tie_flip)                  turn_dir ^= 1;
 389              		.loc 1 218 13 view .LVU98
 390 0038 9A42     		cmp	r2, r3
 391 003a 03DD     		ble	.L29
 218:Core/Src/drive.c ****     else if (tie_flip)                  turn_dir ^= 1;
 392              		.loc 1 218 41 is_stmt 1 discriminator 1 view .LVU99
 218:Core/Src/drive.c ****     else if (tie_flip)                  turn_dir ^= 1;
 393              		.loc 1 218 50 is_stmt 0 discriminator 1 view .LVU100
 394 003c 054B     		ldr	r3, .L31
 395 003e 0122     		movs	r2, #1
 396 0040 1A70     		strb	r2, [r3]
 397 0042 E7E7     		b	.L28
 398              	.L29:
 219:Core/Src/drive.c ****     swap_cnt  = 0;
 399              		.loc 1 219 10 is_stmt 1 view .LVU101
 219:Core/Src/drive.c ****     swap_cnt  = 0;
ARM GAS  C:\Users\user\AppData\Local\Temp\ccy8zY0Q.s 			page 12


 400              		.loc 1 219 13 is_stmt 0 view .LVU102
 401 0044 0029     		cmp	r1, #0
 402 0046 E5D0     		beq	.L28
 219:Core/Src/drive.c ****     swap_cnt  = 0;
 403              		.loc 1 219 41 is_stmt 1 discriminator 1 view .LVU103
 219:Core/Src/drive.c ****     swap_cnt  = 0;
 404              		.loc 1 219 50 is_stmt 0 discriminator 1 view .LVU104
 405 0048 024A     		ldr	r2, .L31
 406 004a 1378     		ldrb	r3, [r2]	@ zero_extendqisi2
 407 004c 83F00103 		eor	r3, r3, #1
 408 0050 1370     		strb	r3, [r2]
 409 0052 DFE7     		b	.L28
 410              	.L32:
 411              		.align	2
 412              	.L31:
 413 0054 00000000 		.word	turn_dir
 414 0058 00000000 		.word	swap_cnt
 415 005c 00000000 		.word	clear_cnt
 416 0060 00000000 		.word	h_entry
 417 0064 00000000 		.word	h_stuck
 418 0068 00000000 		.word	t_stuck
 419              		.cfi_endproc
 420              	.LFE142:
 422              		.section	.text.side_avoid_enter,"ax",%progbits
 423              		.align	1
 424              		.syntax unified
 425              		.thumb
 426              		.thumb_func
 428              	side_avoid_enter:
 429              	.LVL26:
 430              	.LFB145:
 227:Core/Src/drive.c **** 
 228:Core/Src/drive.c **** static void reverse_enter(const DriveInputs *in)
 229:Core/Src/drive.c **** {
 230:Core/Src/drive.c ****     Car_Backward(DRIVE_SPEED);
 231:Core/Src/drive.c ****     if (rev_cnt < 255) rev_cnt++;
 232:Core/Src/drive.c ****     enter(DS_REVERSE, in->now);
 233:Core/Src/drive.c **** }
 234:Core/Src/drive.c **** 
 235:Core/Src/drive.c **** static void hold_enter(const DriveInputs *in)
 236:Core/Src/drive.c **** {
 237:Core/Src/drive.c ****     Car_Stop();   /* м •м§Җ мғҒнғң мң м§Җм—” мҪ”мҠӨнҠёлЎң м¶©л¶„ */
 238:Core/Src/drive.c ****     enter(DS_HOLD, in->now);
 239:Core/Src/drive.c **** }
 240:Core/Src/drive.c **** 
 241:Core/Src/drive.c **** /* мёЎл©ҙ л°•кё°м§Ғм „: лҚ” к°Җк№Ңмҡҙ(л°•нһҢ) мӘҪ л°ҳлҢҖлЎң нҡҢм „н•ҳлҸ„лЎқ лһҳм№ҳ нӣ„ м§„мһ….
 242:Core/Src/drive.c ****  * l<r=мўҢлІҪ л°•нһҳвҶ’мҡ°нҡҢм „(turn_dir 1), r<l=мҡ°лІҪ л°•нһҳвҶ’мўҢнҡҢм „(0), лҸҷлҘ =м§Ғм „ мң м§
 243:Core/Src/drive.c **** static void side_avoid_enter(const DriveInputs *in)
 244:Core/Src/drive.c **** {
 431              		.loc 1 244 1 is_stmt 1 view -0
 432              		.cfi_startproc
 433              		@ args = 0, pretend = 0, frame = 0
 434              		@ frame_needed = 0, uses_anonymous_args = 0
 435              		.loc 1 244 1 is_stmt 0 view .LVU106
 436 0000 08B5     		push	{r3, lr}
 437              	.LCFI2:
 438              		.cfi_def_cfa_offset 8
ARM GAS  C:\Users\user\AppData\Local\Temp\ccy8zY0Q.s 			page 13


 439              		.cfi_offset 3, -8
 440              		.cfi_offset 14, -4
 245:Core/Src/drive.c ****     if      (in->l < in->r) turn_dir = 1;   /* мўҢлІҪ к°Җк№ҢмӣҖ вҶ’ мҡ°нҡҢм „мңјлЎң л©Җм–ҙм§җ */
 441              		.loc 1 245 5 is_stmt 1 view .LVU107
 442              		.loc 1 245 16 is_stmt 0 view .LVU108
 443 0002 4288     		ldrh	r2, [r0, #2]
 444              		.loc 1 245 24 view .LVU109
 445 0004 8388     		ldrh	r3, [r0, #4]
 446              		.loc 1 245 13 view .LVU110
 447 0006 9A42     		cmp	r2, r3
 448 0008 07D2     		bcs	.L34
 449              		.loc 1 245 29 is_stmt 1 discriminator 1 view .LVU111
 450              		.loc 1 245 38 is_stmt 0 discriminator 1 view .LVU112
 451 000a 074B     		ldr	r3, .L37
 452 000c 0122     		movs	r2, #1
 453 000e 1A70     		strb	r2, [r3]
 454              	.L35:
 246:Core/Src/drive.c ****     else if (in->r < in->l) turn_dir = 0;   /* мҡ°лІҪ к°Җк№ҢмӣҖ вҶ’ мўҢнҡҢм „ */
 247:Core/Src/drive.c ****     enter(DS_SIDE_AVOID, in->now);
 455              		.loc 1 247 5 is_stmt 1 view .LVU113
 456 0010 0169     		ldr	r1, [r0, #16]
 457 0012 0520     		movs	r0, #5
 458              	.LVL27:
 459              		.loc 1 247 5 is_stmt 0 view .LVU114
 460 0014 FFF7FEFF 		bl	enter
 461              	.LVL28:
 248:Core/Src/drive.c **** }
 462              		.loc 1 248 1 view .LVU115
 463 0018 08BD     		pop	{r3, pc}
 464              	.LVL29:
 465              	.L34:
 246:Core/Src/drive.c ****     else if (in->r < in->l) turn_dir = 0;   /* мҡ°лІҪ к°Җк№ҢмӣҖ вҶ’ мўҢнҡҢм „ */
 466              		.loc 1 246 10 is_stmt 1 view .LVU116
 246:Core/Src/drive.c ****     else if (in->r < in->l) turn_dir = 0;   /* мҡ°лІҪ к°Җк№ҢмӣҖ вҶ’ мўҢнҡҢм „ */
 467              		.loc 1 246 13 is_stmt 0 view .LVU117
 468 001a 9A42     		cmp	r2, r3
 469 001c F8D9     		bls	.L35
 246:Core/Src/drive.c ****     else if (in->r < in->l) turn_dir = 0;   /* мҡ°лІҪ к°Җк№ҢмӣҖ вҶ’ мўҢнҡҢм „ */
 470              		.loc 1 246 29 is_stmt 1 discriminator 1 view .LVU118
 246:Core/Src/drive.c ****     else if (in->r < in->l) turn_dir = 0;   /* мҡ°лІҪ к°Җк№ҢмӣҖ вҶ’ мўҢнҡҢм „ */
 471              		.loc 1 246 38 is_stmt 0 discriminator 1 view .LVU119
 472 001e 024B     		ldr	r3, .L37
 473 0020 0022     		movs	r2, #0
 474 0022 1A70     		strb	r2, [r3]
 475 0024 F4E7     		b	.L35
 476              	.L38:
 477 0026 00BF     		.align	2
 478              	.L37:
 479 0028 00000000 		.word	turn_dir
 480              		.cfi_endproc
 481              	.LFE145:
 483              		.section	.text.hold_enter,"ax",%progbits
 484              		.align	1
 485              		.syntax unified
 486              		.thumb
 487              		.thumb_func
 489              	hold_enter:
ARM GAS  C:\Users\user\AppData\Local\Temp\ccy8zY0Q.s 			page 14


 490              	.LVL30:
 491              	.LFB144:
 236:Core/Src/drive.c ****     Car_Stop();   /* м •м§Җ мғҒнғң мң м§Җм—” мҪ”мҠӨнҠёлЎң м¶©л¶„ */
 492              		.loc 1 236 1 is_stmt 1 view -0
 493              		.cfi_startproc
 494              		@ args = 0, pretend = 0, frame = 0
 495              		@ frame_needed = 0, uses_anonymous_args = 0
 236:Core/Src/drive.c ****     Car_Stop();   /* м •м§Җ мғҒнғң мң м§Җм—” мҪ”мҠӨнҠёлЎң м¶©л¶„ */
 496              		.loc 1 236 1 is_stmt 0 view .LVU121
 497 0000 10B5     		push	{r4, lr}
 498              	.LCFI3:
 499              		.cfi_def_cfa_offset 8
 500              		.cfi_offset 4, -8
 501              		.cfi_offset 14, -4
 502 0002 0446     		mov	r4, r0
 237:Core/Src/drive.c ****     enter(DS_HOLD, in->now);
 503              		.loc 1 237 5 is_stmt 1 view .LVU122
 504 0004 FFF7FEFF 		bl	Car_Stop
 505              	.LVL31:
 238:Core/Src/drive.c **** }
 506              		.loc 1 238 5 view .LVU123
 507 0008 2169     		ldr	r1, [r4, #16]
 508 000a 0420     		movs	r0, #4
 509 000c FFF7FEFF 		bl	enter
 510              	.LVL32:
 239:Core/Src/drive.c **** 
 511              		.loc 1 239 1 is_stmt 0 view .LVU124
 512 0010 10BD     		pop	{r4, pc}
 239:Core/Src/drive.c **** 
 513              		.loc 1 239 1 view .LVU125
 514              		.cfi_endproc
 515              	.LFE144:
 517              		.section	.text.brake_enter,"ax",%progbits
 518              		.align	1
 519              		.syntax unified
 520              		.thumb
 521              		.thumb_func
 523              	brake_enter:
 524              	.LVL33:
 525              	.LFB141:
 207:Core/Src/drive.c ****     if (BRAKE_MS > 0) Car_Brake();   /* BRAKE_MS=0 вҶ’ л Ҳкұ°мӢң мҪ”мҠӨнҠё нҸҙл°ұ */
 526              		.loc 1 207 1 is_stmt 1 view -0
 527              		.cfi_startproc
 528              		@ args = 0, pretend = 0, frame = 0
 529              		@ frame_needed = 0, uses_anonymous_args = 0
 207:Core/Src/drive.c ****     if (BRAKE_MS > 0) Car_Brake();   /* BRAKE_MS=0 вҶ’ л Ҳкұ°мӢң мҪ”мҠӨнҠё нҸҙл°ұ */
 530              		.loc 1 207 1 is_stmt 0 view .LVU127
 531 0000 10B5     		push	{r4, lr}
 532              	.LCFI4:
 533              		.cfi_def_cfa_offset 8
 534              		.cfi_offset 4, -8
 535              		.cfi_offset 14, -4
 536 0002 0446     		mov	r4, r0
 208:Core/Src/drive.c ****     else              Car_Stop();
 537              		.loc 1 208 5 is_stmt 1 view .LVU128
 208:Core/Src/drive.c ****     else              Car_Stop();
 538              		.loc 1 208 23 discriminator 1 view .LVU129
ARM GAS  C:\Users\user\AppData\Local\Temp\ccy8zY0Q.s 			page 15


 539 0004 FFF7FEFF 		bl	Car_Brake
 540              	.LVL34:
 210:Core/Src/drive.c **** }
 541              		.loc 1 210 5 view .LVU130
 542 0008 2169     		ldr	r1, [r4, #16]
 543 000a 0120     		movs	r0, #1
 544 000c FFF7FEFF 		bl	enter
 545              	.LVL35:
 211:Core/Src/drive.c **** 
 546              		.loc 1 211 1 is_stmt 0 view .LVU131
 547 0010 10BD     		pop	{r4, pc}
 211:Core/Src/drive.c **** 
 548              		.loc 1 211 1 view .LVU132
 549              		.cfi_endproc
 550              	.LFE141:
 552              		.section	.text.hold_run,"ax",%progbits
 553              		.align	1
 554              		.syntax unified
 555              		.thumb
 556              		.thumb_func
 558              	hold_run:
 559              	.LVL36:
 560              	.LFB150:
 249:Core/Src/drive.c **** 
 250:Core/Src/drive.c **** /* ---- мғҒнғңлі„ мӢӨн–ү ---- */
 251:Core/Src/drive.c **** 
 252:Core/Src/drive.c **** /* CRUISE: мЎ°н–Ҙ мЈјн–ү. 3лӘЁл“ң мһҗлҸҷ м „нҷҳ(м–‘лІҪ/н•ңлІҪ/л¬ҙлІҪ) + slew + лҚ°л“ңл°ҙл“ң spillov
 253:Core/Src/drive.c **** static void cruise_run(const DriveInputs *in)
 254:Core/Src/drive.c **** {
 255:Core/Src/drive.c ****     /* fail-safe: м •л©ҙ м—°мҶҚ л¬ҙм—җмҪ” вҶ’ HOLD. CRUISEм—җм„ңл§Ң вҖ” SPIN/REVERSEлҠ” м „л°© л…ём
 256:Core/Src/drive.c ****     if (in->front_miss >= FRONT_FAIL_LIMIT) { hold_enter(in); return; }
 257:Core/Src/drive.c **** 
 258:Core/Src/drive.c ****     /* м •л©ҙ к·јм ‘ вҶ’ мҰүмӢң лҠҘлҸҷ м ңлҸҷ + нҡҢн”ј (м ңлҸҷмқҖ м•Ҳм „н•ҳлҜҖлЎң л””л°”мҡҙмҠӨ м—Ҷм
 259:Core/Src/drive.c ****     if (in->f < FRONT_STOP_CM) { brake_enter(in); return; }
 260:Core/Src/drive.c **** 
 261:Core/Src/drive.c ****     /* мёЎл©ҙ л°•кё°м§Ғм „ вҶ’ л№„мғҒ нҡҢн”ј(л©Ҳм¶Ө+н”јлІ—). м •л©ҙ лӢӨмқҢ мҡ°м„  вҖ” мЎ°н–ҘмңјлЎ  
 262:Core/Src/drive.c ****     {
 263:Core/Src/drive.c ****         uint16_t smin = (in->l < in->r) ? in->l : in->r;
 264:Core/Src/drive.c ****         if (smin < SIDE_AVOID_CM) { side_avoid_enter(in); return; }
 265:Core/Src/drive.c ****     }
 266:Core/Src/drive.c ****     Drive_CenteringPD_Run(in);
 267:Core/Src/drive.c ****     return;
 268:Core/Src/drive.c **** }
 269:Core/Src/drive.c **** 
 270:Core/Src/drive.c **** /* BRAKE: BRAKE_MS лҸҷм•Ҳ лӢЁлқҪ м ңлҸҷ мң м§Җ вҶ’ н•ҙм ң нӣ„ л§үлӢӨлҘёкіімқҙл©ҙ REVERSE, м•„лӢҲл©ҙ
 271:Core/Src/drive.c **** static void brake_run(const DriveInputs *in)
 272:Core/Src/drive.c **** {
 273:Core/Src/drive.c ****     if ((in->now - t_state) < (uint32_t)BRAKE_MS) return;   /* м ңлҸҷ мң м§Җ мӨ‘ */
 274:Core/Src/drive.c **** 
 275:Core/Src/drive.c ****     Car_Stop();   /* лӢЁлқҪ м ңлҸҷ н•ҙм ң */
 276:Core/Src/drive.c **** 
 277:Core/Src/drive.c ****     uint8_t dead_end = (in->f < FRONT_DANGER_CM &&
 278:Core/Src/drive.c ****                         in->l < SIDE_BLOCK_CM   &&
 279:Core/Src/drive.c ****                         in->r < SIDE_BLOCK_CM);
 280:Core/Src/drive.c ****     if (dead_end && rev_cnt < REV_MAX_CHUNKS)
 281:Core/Src/drive.c ****         reverse_enter(in);
 282:Core/Src/drive.c ****     else
ARM GAS  C:\Users\user\AppData\Local\Temp\ccy8zY0Q.s 			page 16


 283:Core/Src/drive.c ****         spin_enter(in, (rev_cnt > 0));   /* нӣ„м§„мқ„ кұ°міӨмңјл©ҙ лҸҷлҘ  мӢң л°ҳлҢҖмӘҪ мӢңлҸ„ */
 284:Core/Src/drive.c **** }
 285:Core/Src/drive.c **** 
 286:Core/Src/drive.c **** /* SPIN: м ңмһҗлҰ¬ нҡҢм „(м „м§„ мқҙлҸҷ 0). л§Ө лЈЁн”„ м„јм„ң к°ұмӢ н•ҳл©° нғҲм¶ңк°Ғ/мҠӨн„ұ/нғҖмһ„м
 287:Core/Src/drive.c **** static void spin_run(const DriveInputs *in)
 288:Core/Src/drive.c **** {
 289:Core/Src/drive.c ****     /* л§үлӢӨлҘё кіі вҶ’ нӣ„м§„ (chunk мҳҲмӮ° лӮҙм—җм„ңл§Ң) */
 290:Core/Src/drive.c ****     if (in->f < FRONT_DANGER_CM && in->l < SIDE_BLOCK_CM && in->r < SIDE_BLOCK_CM
 291:Core/Src/drive.c ****         && rev_cnt < REV_MAX_CHUNKS)
 292:Core/Src/drive.c ****     {
 293:Core/Src/drive.c ****         reverse_enter(in);
 294:Core/Src/drive.c ****         return;
 295:Core/Src/drive.c ****     }
 296:Core/Src/drive.c **** 
 297:Core/Src/drive.c ****     if (in->imu_live)
 298:Core/Src/drive.c ****     {
 299:Core/Src/drive.c ****         dbg_spin_deg = wrap180(in->heading - h_entry);
 300:Core/Src/drive.c **** 
 301:Core/Src/drive.c ****         /* мҠӨн„ұ: ROT_STUCK_MS мңҲлҸ„ лҸҷм•Ҳ нҡҢм „ лӘ…л №м—җлҸ„ heading м •мІҙ вҶ’ л°”нҖҙ н—ӣлҸҺ/
 302:Core/Src/drive.c ****         if ((in->now - t_stuck) >= (uint32_t)ROT_STUCK_MS)
 303:Core/Src/drive.c ****         {
 304:Core/Src/drive.c ****             if (fabsf(wrap180(in->heading - h_stuck)) < ROT_STUCK_DEG
 305:Core/Src/drive.c ****                 && rev_cnt < REV_MAX_CHUNKS)
 306:Core/Src/drive.c ****             {
 307:Core/Src/drive.c ****                 reverse_enter(in);
 308:Core/Src/drive.c ****                 return;
 309:Core/Src/drive.c ****             }
 310:Core/Src/drive.c ****             h_stuck = in->heading;
 311:Core/Src/drive.c ****             t_stuck = in->now;
 312:Core/Src/drive.c ****         }
 313:Core/Src/drive.c ****     }
 314:Core/Src/drive.c **** 
 315:Core/Src/drive.c ****     /* нғҖмһ„м•„мӣғ л°ұмҠӨнҶұ (IMU мӮ¬л§қ мӢң мҠӨн„ұ м»ӨлІ„): нӣ„м§„ мҳҲмӮ° мһҲмңјл©ҙ нӣ„м§„, м—Ҷмң
 316:Core/Src/drive.c ****     if ((in->now - t_state) > (uint32_t)SPIN_MAX_MS)
 317:Core/Src/drive.c ****     {
 318:Core/Src/drive.c ****         if (rev_cnt < REV_MAX_CHUNKS) { reverse_enter(in); return; }
 319:Core/Src/drive.c ****         turn_dir ^= 1;
 320:Core/Src/drive.c ****         t_state = in->now;
 321:Core/Src/drive.c ****         h_entry = in->heading;
 322:Core/Src/drive.c ****     }
 323:Core/Src/drive.c **** 
 324:Core/Src/drive.c ****     /* л°©н–Ҙ мһ¬нҸүк°Җ: мөңмҶҢмң м§Җ(SPIN_COMMIT_MS) нӣ„, лһҳм№ҳмӘҪ л§үнһҳ && л°ҳлҢҖмӘҪ SIDE_HYST 
 325:Core/Src/drive.c ****     if ((in->now - t_state) >= (uint32_t)SPIN_COMMIT_MS && swap_cnt < SWAP_LIMIT)
 326:Core/Src/drive.c ****     {
 327:Core/Src/drive.c ****         uint16_t latched = (turn_dir == 0) ? in->l : in->r;
 328:Core/Src/drive.c ****         uint16_t other   = (turn_dir == 0) ? in->r : in->l;
 329:Core/Src/drive.c ****         if (latched < SIDE_BLOCK_CM && other > (uint16_t)(latched + SIDE_HYST))
 330:Core/Src/drive.c ****         {
 331:Core/Src/drive.c ****             turn_dir ^= 1;
 332:Core/Src/drive.c ****             swap_cnt++;
 333:Core/Src/drive.c ****             t_state = in->now;
 334:Core/Src/drive.c ****             h_entry = in->heading;
 335:Core/Src/drive.c ****         }
 336:Core/Src/drive.c ****     }
 337:Core/Src/drive.c **** 
 338:Core/Src/drive.c ****     /* нғҲм¶ң вҶ’ CRUISE: м •л©ҙ нҠёмһ„мқҙ 'мң нҡЁ мёЎм •мңјлЎң' CLEAR_CONFIRMнҡҢ м—°мҶҚ
 339:Core/Src/drive.c ****        + (IMU мӢң) м§„мһ… лҢҖл№„ TURN_MIN_DEG мқҙмғҒ нҡҢм „ вҖ” кІҪмӮ¬лІҪ specular к°Җм§ң-нҠёмһ„ мЎ
ARM GAS  C:\Users\user\AppData\Local\Temp\ccy8zY0Q.s 			page 17


 340:Core/Src/drive.c ****     if (in->f >= FRONT_CLEAR_CM && in->f_valid)
 341:Core/Src/drive.c ****     {
 342:Core/Src/drive.c ****         if (clear_cnt < 255) clear_cnt++;
 343:Core/Src/drive.c ****         if (clear_cnt >= CLEAR_CONFIRM &&
 344:Core/Src/drive.c ****             (!in->imu_live || fabsf(wrap180(in->heading - h_entry)) >= TURN_MIN_DEG))
 345:Core/Src/drive.c ****         {
 346:Core/Src/drive.c ****             cruise_enter(in);
 347:Core/Src/drive.c ****             return;
 348:Core/Src/drive.c ****         }
 349:Core/Src/drive.c ****     }
 350:Core/Src/drive.c ****     else if (in->f < FRONT_CLEAR_CM)
 351:Core/Src/drive.c ****     {
 352:Core/Src/drive.c ****         clear_cnt = 0;   /* л¬ҙнҡЁ мёЎм •(f_valid=0)мқҖ лҰ¬м…ӢлҸ„ к°ҖмӮ°лҸ„ м•Ҳ н•Ё вҖ” м§Ғм „ м№ҙм
 353:Core/Src/drive.c ****     }
 354:Core/Src/drive.c **** 
 355:Core/Src/drive.c ****     /* нҡҢм „ лӘ…л № (л§Ө лЈЁн”„ мһ¬к°Җ) */
 356:Core/Src/drive.c ****     if (turn_dir == 0) Car_PivotLeft(TURN_SPEED, TURN_INNER);
 357:Core/Src/drive.c ****     else               Car_PivotRight(TURN_SPEED, TURN_INNER);
 358:Core/Src/drive.c **** }
 359:Core/Src/drive.c **** 
 360:Core/Src/drive.c **** /* REVERSE: нӣ„м§„ chunk 1нҡҢ вҶ’ м ңлҸҷ вҶ’ BRAKEк°Җ мһ¬нҸүк°Җ (л§үлӢӨлҘёкіі м§ҖмҶҚ=м¶”к°Җ chunk, 
 361:Core/Src/drive.c **** static void reverse_run(const DriveInputs *in)
 362:Core/Src/drive.c **** {
 363:Core/Src/drive.c ****     if ((in->now - t_state) >= (uint32_t)BACK_CHUNK_MS)
 364:Core/Src/drive.c ****     {
 365:Core/Src/drive.c ****         brake_enter(in);
 366:Core/Src/drive.c ****         return;
 367:Core/Src/drive.c ****     }
 368:Core/Src/drive.c ****     Car_Backward(DRIVE_SPEED);
 369:Core/Src/drive.c **** }
 370:Core/Src/drive.c **** 
 371:Core/Src/drive.c **** /* HOLD: м •л©ҙ м„јм„ң мғҒмӢӨ м•Ҳм „м •м§Җ. м—җмҪ” нҡҢліө вҶ’ мҰүмӢң ліөк·Җ, мһҘкё°нҷ” вҶ’ SPINмңјл
 372:Core/Src/drive.c **** static void hold_run(const DriveInputs *in)
 373:Core/Src/drive.c **** {
 561              		.loc 1 373 1 is_stmt 1 view -0
 562              		.cfi_startproc
 563              		@ args = 0, pretend = 0, frame = 0
 564              		@ frame_needed = 0, uses_anonymous_args = 0
 565              		.loc 1 373 1 is_stmt 0 view .LVU134
 566 0000 08B5     		push	{r3, lr}
 567              	.LCFI5:
 568              		.cfi_def_cfa_offset 8
 569              		.cfi_offset 3, -8
 570              		.cfi_offset 14, -4
 374:Core/Src/drive.c ****     if (in->f_valid)
 571              		.loc 1 374 5 is_stmt 1 view .LVU135
 572              		.loc 1 374 11 is_stmt 0 view .LVU136
 573 0002 8379     		ldrb	r3, [r0, #6]	@ zero_extendqisi2
 574              		.loc 1 374 8 view .LVU137
 575 0004 53B9     		cbnz	r3, .L50
 375:Core/Src/drive.c ****     {
 376:Core/Src/drive.c ****         if (in->f < FRONT_STOP_CM) brake_enter(in);
 377:Core/Src/drive.c ****         else                       cruise_enter(in);
 378:Core/Src/drive.c ****         return;
 379:Core/Src/drive.c ****     }
 380:Core/Src/drive.c ****     if ((in->now - t_state) > (uint32_t)HOLD_MAX_MS)
 576              		.loc 1 380 5 is_stmt 1 view .LVU138
ARM GAS  C:\Users\user\AppData\Local\Temp\ccy8zY0Q.s 			page 18


 577              		.loc 1 380 12 is_stmt 0 view .LVU139
 578 0006 0369     		ldr	r3, [r0, #16]
 579              		.loc 1 380 18 view .LVU140
 580 0008 0B4A     		ldr	r2, .L52
 581 000a 1268     		ldr	r2, [r2]
 582 000c 9B1A     		subs	r3, r3, r2
 583              		.loc 1 380 8 view .LVU141
 584 000e 40F2DC52 		movw	r2, #1500
 585 0012 9342     		cmp	r3, r2
 586 0014 0BD8     		bhi	.L51
 381:Core/Src/drive.c ****     {
 382:Core/Src/drive.c ****         spin_enter(in, 0);   /* нҡҢм „мқҖ л¬ҙмқҙлҸҷмқҙлқј м •л©ҙ лё”лқјмқёл“ң мғҒнғңлЎңлҸ„ м•Ҳм „ *
 383:Core/Src/drive.c ****         return;
 384:Core/Src/drive.c ****     }
 385:Core/Src/drive.c ****     Car_Stop();
 587              		.loc 1 385 5 is_stmt 1 view .LVU142
 588 0016 FFF7FEFF 		bl	Car_Stop
 589              	.LVL37:
 590              	.L43:
 386:Core/Src/drive.c **** }
 591              		.loc 1 386 1 is_stmt 0 view .LVU143
 592 001a 08BD     		pop	{r3, pc}
 593              	.LVL38:
 594              	.L50:
 376:Core/Src/drive.c ****         else                       cruise_enter(in);
 595              		.loc 1 376 9 is_stmt 1 view .LVU144
 376:Core/Src/drive.c ****         else                       cruise_enter(in);
 596              		.loc 1 376 15 is_stmt 0 view .LVU145
 597 001c 0388     		ldrh	r3, [r0]
 376:Core/Src/drive.c ****         else                       cruise_enter(in);
 598              		.loc 1 376 12 view .LVU146
 599 001e 132B     		cmp	r3, #19
 600 0020 02D8     		bhi	.L45
 376:Core/Src/drive.c ****         else                       cruise_enter(in);
 601              		.loc 1 376 36 is_stmt 1 discriminator 1 view .LVU147
 602 0022 FFF7FEFF 		bl	brake_enter
 603              	.LVL39:
 376:Core/Src/drive.c ****         else                       cruise_enter(in);
 604              		.loc 1 376 36 is_stmt 0 discriminator 1 view .LVU148
 605 0026 F8E7     		b	.L43
 606              	.LVL40:
 607              	.L45:
 377:Core/Src/drive.c ****         return;
 608              		.loc 1 377 36 is_stmt 1 view .LVU149
 609 0028 FFF7FEFF 		bl	cruise_enter
 610              	.LVL41:
 378:Core/Src/drive.c ****     }
 611              		.loc 1 378 9 view .LVU150
 612 002c F5E7     		b	.L43
 613              	.LVL42:
 614              	.L51:
 382:Core/Src/drive.c ****         return;
 615              		.loc 1 382 9 view .LVU151
 616 002e 0021     		movs	r1, #0
 617 0030 FFF7FEFF 		bl	spin_enter
 618              	.LVL43:
 383:Core/Src/drive.c ****     }
ARM GAS  C:\Users\user\AppData\Local\Temp\ccy8zY0Q.s 			page 19


 619              		.loc 1 383 9 view .LVU152
 620 0034 F1E7     		b	.L43
 621              	.L53:
 622 0036 00BF     		.align	2
 623              	.L52:
 624 0038 00000000 		.word	t_state
 625              		.cfi_endproc
 626              	.LFE150:
 628              		.section	.text.Drive_CenteringPD_Run,"ax",%progbits
 629              		.align	1
 630              		.syntax unified
 631              		.thumb
 632              		.thumb_func
 634              	Drive_CenteringPD_Run:
 635              	.LVL44:
 636              	.LFB138:
 115:Core/Src/drive.c ****     static uint16_t l_buf[CENTER_MA_WIN];
 637              		.loc 1 115 1 view -0
 638              		.cfi_startproc
 639              		@ args = 0, pretend = 0, frame = 8
 640              		@ frame_needed = 0, uses_anonymous_args = 0
 115:Core/Src/drive.c ****     static uint16_t l_buf[CENTER_MA_WIN];
 641              		.loc 1 115 1 is_stmt 0 view .LVU154
 642 0000 70B5     		push	{r4, r5, r6, lr}
 643              	.LCFI6:
 644              		.cfi_def_cfa_offset 16
 645              		.cfi_offset 4, -16
 646              		.cfi_offset 5, -12
 647              		.cfi_offset 6, -8
 648              		.cfi_offset 14, -4
 649 0002 2DED068B 		vpush.64	{d8, d9, d10}
 650              	.LCFI7:
 651              		.cfi_def_cfa_offset 40
 652              		.cfi_offset 80, -40
 653              		.cfi_offset 81, -36
 654              		.cfi_offset 82, -32
 655              		.cfi_offset 83, -28
 656              		.cfi_offset 84, -24
 657              		.cfi_offset 85, -20
 658 0006 82B0     		sub	sp, sp, #8
 659              	.LCFI8:
 660              		.cfi_def_cfa_offset 48
 661 0008 0546     		mov	r5, r0
 116:Core/Src/drive.c ****     static uint16_t r_buf[CENTER_MA_WIN];
 662              		.loc 1 116 5 is_stmt 1 view .LVU155
 117:Core/Src/drive.c ****     static uint8_t  idx = 0U;
 663              		.loc 1 117 5 view .LVU156
 118:Core/Src/drive.c ****     static uint8_t  count = 0U;
 664              		.loc 1 118 5 view .LVU157
 119:Core/Src/drive.c ****     static float    prev_error = 0.0f;
 665              		.loc 1 119 5 view .LVU158
 120:Core/Src/drive.c ****     static uint32_t prev_ms = 0U;
 666              		.loc 1 120 5 view .LVU159
 121:Core/Src/drive.c **** 
 667              		.loc 1 121 5 view .LVU160
 123:Core/Src/drive.c ****     r_buf[idx] = center_sanitize_cm(in->r);
 668              		.loc 1 123 5 view .LVU161
ARM GAS  C:\Users\user\AppData\Local\Temp\ccy8zY0Q.s 			page 20


 123:Core/Src/drive.c ****     r_buf[idx] = center_sanitize_cm(in->r);
 669              		.loc 1 123 10 is_stmt 0 view .LVU162
 670 000a 784E     		ldr	r6, .L67
 671 000c 3478     		ldrb	r4, [r6]	@ zero_extendqisi2
 123:Core/Src/drive.c ****     r_buf[idx] = center_sanitize_cm(in->r);
 672              		.loc 1 123 18 view .LVU163
 673 000e 4088     		ldrh	r0, [r0, #2]
 674              	.LVL45:
 123:Core/Src/drive.c ****     r_buf[idx] = center_sanitize_cm(in->r);
 675              		.loc 1 123 18 view .LVU164
 676 0010 FFF7FEFF 		bl	center_sanitize_cm
 677              	.LVL46:
 123:Core/Src/drive.c ****     r_buf[idx] = center_sanitize_cm(in->r);
 678              		.loc 1 123 16 discriminator 1 view .LVU165
 679 0014 764B     		ldr	r3, .L67+4
 680 0016 23F81400 		strh	r0, [r3, r4, lsl #1]	@ movhi
 124:Core/Src/drive.c **** 
 681              		.loc 1 124 5 is_stmt 1 view .LVU166
 124:Core/Src/drive.c **** 
 682              		.loc 1 124 18 is_stmt 0 view .LVU167
 683 001a A888     		ldrh	r0, [r5, #4]
 684 001c FFF7FEFF 		bl	center_sanitize_cm
 685              	.LVL47:
 124:Core/Src/drive.c **** 
 686              		.loc 1 124 16 discriminator 1 view .LVU168
 687 0020 744B     		ldr	r3, .L67+8
 688 0022 23F81400 		strh	r0, [r3, r4, lsl #1]	@ movhi
 126:Core/Src/drive.c ****     if (count < CENTER_MA_WIN)
 689              		.loc 1 126 5 is_stmt 1 view .LVU169
 126:Core/Src/drive.c ****     if (count < CENTER_MA_WIN)
 690              		.loc 1 126 26 is_stmt 0 view .LVU170
 691 0026 0134     		adds	r4, r4, #1
 126:Core/Src/drive.c ****     if (count < CENTER_MA_WIN)
 692              		.loc 1 126 32 view .LVU171
 693 0028 734B     		ldr	r3, .L67+12
 694 002a A3FB0423 		umull	r2, r3, r3, r4
 695 002e 03F4FE72 		and	r2, r3, #508
 696 0032 02EB9303 		add	r3, r2, r3, lsr #2
 697 0036 E41A     		subs	r4, r4, r3
 126:Core/Src/drive.c ****     if (count < CENTER_MA_WIN)
 698              		.loc 1 126 9 view .LVU172
 699 0038 3470     		strb	r4, [r6]
 127:Core/Src/drive.c ****         count++;
 700              		.loc 1 127 5 is_stmt 1 view .LVU173
 127:Core/Src/drive.c ****         count++;
 701              		.loc 1 127 15 is_stmt 0 view .LVU174
 702 003a 704B     		ldr	r3, .L67+16
 703 003c 1B78     		ldrb	r3, [r3]	@ zero_extendqisi2
 127:Core/Src/drive.c ****         count++;
 704              		.loc 1 127 8 view .LVU175
 705 003e 042B     		cmp	r3, #4
 706 0040 02D8     		bhi	.L55
 128:Core/Src/drive.c **** 
 707              		.loc 1 128 9 is_stmt 1 view .LVU176
 128:Core/Src/drive.c **** 
 708              		.loc 1 128 14 is_stmt 0 view .LVU177
 709 0042 0133     		adds	r3, r3, #1
ARM GAS  C:\Users\user\AppData\Local\Temp\ccy8zY0Q.s 			page 21


 710 0044 6D4A     		ldr	r2, .L67+16
 711 0046 1370     		strb	r3, [r2]
 712              	.L55:
 130:Core/Src/drive.c ****     float right_cm = center_avg_u16(r_buf, count);
 713              		.loc 1 130 5 is_stmt 1 view .LVU178
 130:Core/Src/drive.c ****     float right_cm = center_avg_u16(r_buf, count);
 714              		.loc 1 130 22 is_stmt 0 view .LVU179
 715 0048 6C4B     		ldr	r3, .L67+16
 716 004a 1C78     		ldrb	r4, [r3]	@ zero_extendqisi2
 717 004c 2146     		mov	r1, r4
 718 004e 6848     		ldr	r0, .L67+4
 719 0050 FFF7FEFF 		bl	center_avg_u16
 720              	.LVL48:
 721 0054 F0EE408A 		vmov.f32	s17, s0
 722              	.LVL49:
 131:Core/Src/drive.c ****     float error = left_cm - right_cm;
 723              		.loc 1 131 5 is_stmt 1 view .LVU180
 131:Core/Src/drive.c ****     float error = left_cm - right_cm;
 724              		.loc 1 131 22 is_stmt 0 view .LVU181
 725 0058 2146     		mov	r1, r4
 726 005a 6648     		ldr	r0, .L67+8
 727 005c FFF7FEFF 		bl	center_avg_u16
 728              	.LVL50:
 132:Core/Src/drive.c ****     float steer = 0.0f;
 729              		.loc 1 132 5 is_stmt 1 view .LVU182
 132:Core/Src/drive.c ****     float steer = 0.0f;
 730              		.loc 1 132 11 is_stmt 0 view .LVU183
 731 0060 78EEC08A 		vsub.f32	s17, s17, s0
 732              	.LVL51:
 133:Core/Src/drive.c **** 
 733              		.loc 1 133 5 is_stmt 1 view .LVU184
 136:Core/Src/drive.c ****     if ((float)in->f < CORNER_NEAR_CM)
 734              		.loc 1 136 5 view .LVU185
 137:Core/Src/drive.c ****         fc = clampf((CORNER_NEAR_CM - (float)in->f)
 735              		.loc 1 137 5 view .LVU186
 137:Core/Src/drive.c ****         fc = clampf((CORNER_NEAR_CM - (float)in->f)
 736              		.loc 1 137 18 is_stmt 0 view .LVU187
 737 0064 2B88     		ldrh	r3, [r5]
 137:Core/Src/drive.c ****         fc = clampf((CORNER_NEAR_CM - (float)in->f)
 738              		.loc 1 137 8 view .LVU188
 739 0066 362B     		cmp	r3, #54
 740 0068 00F28580 		bhi	.L61
 138:Core/Src/drive.c ****                   / (CORNER_NEAR_CM - (float)FRONT_STOP_CM), 0.0f, 1.0f);
 741              		.loc 1 138 9 is_stmt 1 view .LVU189
 138:Core/Src/drive.c ****                   / (CORNER_NEAR_CM - (float)FRONT_STOP_CM), 0.0f, 1.0f);
 742              		.loc 1 138 39 is_stmt 0 view .LVU190
 743 006c 07EE903A 		vmov	s15, r3	@ int
 744 0070 F8EE677A 		vcvt.f32.u32	s15, s15
 138:Core/Src/drive.c ****                   / (CORNER_NEAR_CM - (float)FRONT_STOP_CM), 0.0f, 1.0f);
 745              		.loc 1 138 37 view .LVU191
 746 0074 9FED620A 		vldr.32	s0, .L67+20
 747              	.LVL52:
 138:Core/Src/drive.c ****                   / (CORNER_NEAR_CM - (float)FRONT_STOP_CM), 0.0f, 1.0f);
 748              		.loc 1 138 37 view .LVU192
 749 0078 70EE677A 		vsub.f32	s15, s0, s15
 138:Core/Src/drive.c ****                   / (CORNER_NEAR_CM - (float)FRONT_STOP_CM), 0.0f, 1.0f);
 750              		.loc 1 138 14 view .LVU193
ARM GAS  C:\Users\user\AppData\Local\Temp\ccy8zY0Q.s 			page 22


 751 007c B7EE001A 		vmov.f32	s2, #1.0e+0
 752 0080 DFED600A 		vldr.32	s1, .L67+24
 753 0084 9FED600A 		vldr.32	s0, .L67+28
 754 0088 87EE800A 		vdiv.f32	s0, s15, s0
 755 008c FFF7FEFF 		bl	clampf
 756              	.LVL53:
 757 0090 F0EE409A 		vmov.f32	s19, s0
 758              	.LVL54:
 759              	.L56:
 142:Core/Src/drive.c ****                     + fc * (CORNER_STEER_MAX_PCT - CENTER_STEER_MAX_PCT);
 760              		.loc 1 142 5 is_stmt 1 view .LVU194
 143:Core/Src/drive.c **** 
 761              		.loc 1 143 26 is_stmt 0 view .LVU195
 762 0094 B3EE0C9A 		vmov.f32	s18, #2.8e+1
 763 0098 29EE899A 		vmul.f32	s18, s19, s18
 142:Core/Src/drive.c ****                     + fc * (CORNER_STEER_MAX_PCT - CENTER_STEER_MAX_PCT);
 764              		.loc 1 142 11 view .LVU196
 765 009c F2EE047A 		vmov.f32	s15, #1.0e+1
 766 00a0 39EE279A 		vadd.f32	s18, s18, s15
 767              	.LVL55:
 145:Core/Src/drive.c ****     {
 768              		.loc 1 145 5 is_stmt 1 view .LVU197
 145:Core/Src/drive.c ****     {
 769              		.loc 1 145 9 is_stmt 0 view .LVU198
 770 00a4 F0EEE87A 		vabs.f32	s15, s17
 145:Core/Src/drive.c ****     {
 771              		.loc 1 145 8 view .LVU199
 772 00a8 B0EE007A 		vmov.f32	s14, #2.0e+0
 773 00ac F4EEC77A 		vcmpe.f32	s15, s14
 774 00b0 F1EE10FA 		vmrs	APSR_nzcv, FPSCR
 775 00b4 62D8     		bhi	.L65
 147:Core/Src/drive.c ****     }
 776              		.loc 1 147 9 is_stmt 1 view .LVU200
 147:Core/Src/drive.c ****     }
 777              		.loc 1 147 20 is_stmt 0 view .LVU201
 778 00b6 9FED538A 		vldr.32	s16, .L67+24
 779 00ba 544B     		ldr	r3, .L67+32
 780 00bc 83ED008A 		vstr.32	s16, [r3]
 781              	.LVL56:
 782              	.L59:
 166:Core/Src/drive.c **** 
 783              		.loc 1 166 5 is_stmt 1 view .LVU202
 166:Core/Src/drive.c **** 
 784              		.loc 1 166 17 is_stmt 0 view .LVU203
 785 00c0 2A69     		ldr	r2, [r5, #16]
 166:Core/Src/drive.c **** 
 786              		.loc 1 166 13 view .LVU204
 787 00c2 534B     		ldr	r3, .L67+36
 788 00c4 1A60     		str	r2, [r3]
 169:Core/Src/drive.c ****     float base = CENTER_BASE_SPEED_PCT
 789              		.loc 1 169 5 is_stmt 1 view .LVU205
 169:Core/Src/drive.c ****     float base = CENTER_BASE_SPEED_PCT
 790              		.loc 1 169 25 is_stmt 0 view .LVU206
 791 00c6 B0EEC87A 		vabs.f32	s14, s16
 169:Core/Src/drive.c ****     float base = CENTER_BASE_SPEED_PCT
 792              		.loc 1 169 11 view .LVU207
 793 00ca C7EE097A 		vdiv.f32	s15, s14, s18
ARM GAS  C:\Users\user\AppData\Local\Temp\ccy8zY0Q.s 			page 23


 794              	.LVL57:
 170:Core/Src/drive.c ****                - ((CENTER_BASE_SPEED_PCT - CENTER_MIN_SPEED_PCT) * steer_ratio);
 795              		.loc 1 170 5 is_stmt 1 view .LVU208
 171:Core/Src/drive.c ****     base = base - fc * (base - CENTER_MIN_SPEED_PCT);
 796              		.loc 1 171 66 is_stmt 0 view .LVU209
 797 00ce B2EE0A7A 		vmov.f32	s14, #1.3e+1
 798 00d2 67EE877A 		vmul.f32	s15, s15, s14
 799              	.LVL58:
 170:Core/Src/drive.c ****                - ((CENTER_BASE_SPEED_PCT - CENTER_MIN_SPEED_PCT) * steer_ratio);
 800              		.loc 1 170 11 view .LVU210
 801 00d6 9FED4F1A 		vldr.32	s2, .L67+40
 802 00da 71EE677A 		vsub.f32	s15, s2, s15
 803              	.LVL59:
 172:Core/Src/drive.c ****     base = clampf(base, CENTER_MIN_SPEED_PCT, CENTER_BASE_SPEED_PCT);
 804              		.loc 1 172 5 is_stmt 1 view .LVU211
 172:Core/Src/drive.c ****     base = clampf(base, CENTER_MIN_SPEED_PCT, CENTER_BASE_SPEED_PCT);
 805              		.loc 1 172 30 is_stmt 0 view .LVU212
 806 00de DFED4E0A 		vldr.32	s1, .L67+44
 807 00e2 37EEE00A 		vsub.f32	s0, s15, s1
 172:Core/Src/drive.c ****     base = clampf(base, CENTER_MIN_SPEED_PCT, CENTER_BASE_SPEED_PCT);
 808              		.loc 1 172 22 view .LVU213
 809 00e6 20EE290A 		vmul.f32	s0, s0, s19
 810              	.LVL60:
 173:Core/Src/drive.c **** 
 811              		.loc 1 173 5 is_stmt 1 view .LVU214
 173:Core/Src/drive.c **** 
 812              		.loc 1 173 12 is_stmt 0 view .LVU215
 813 00ea 37EEC00A 		vsub.f32	s0, s15, s0
 814              	.LVL61:
 173:Core/Src/drive.c **** 
 815              		.loc 1 173 12 view .LVU216
 816 00ee FFF7FEFF 		bl	clampf
 817              	.LVL62:
 173:Core/Src/drive.c **** 
 818              		.loc 1 173 12 view .LVU217
 819 00f2 F0EE408A 		vmov.f32	s17, s0
 820              	.LVL63:
 175:Core/Src/drive.c ****     float rt = clampf(base + steer, 0.0f, 100.0f);
 821              		.loc 1 175 5 is_stmt 1 view .LVU218
 175:Core/Src/drive.c ****     float rt = clampf(base + steer, 0.0f, 100.0f);
 822              		.loc 1 175 16 is_stmt 0 view .LVU219
 823 00f6 9FED49AA 		vldr.32	s20, .L67+48
 824 00fa DFED429A 		vldr.32	s19, .L67+24
 825              	.LVL64:
 175:Core/Src/drive.c ****     float rt = clampf(base + steer, 0.0f, 100.0f);
 826              		.loc 1 175 16 view .LVU220
 827 00fe B0EE4A1A 		vmov.f32	s2, s20
 828 0102 F0EE690A 		vmov.f32	s1, s19
 829 0106 30EE480A 		vsub.f32	s0, s0, s16
 830              	.LVL65:
 175:Core/Src/drive.c ****     float rt = clampf(base + steer, 0.0f, 100.0f);
 831              		.loc 1 175 16 view .LVU221
 832 010a FFF7FEFF 		bl	clampf
 833              	.LVL66:
 834 010e B0EE409A 		vmov.f32	s18, s0
 835              	.LVL67:
 176:Core/Src/drive.c **** 
ARM GAS  C:\Users\user\AppData\Local\Temp\ccy8zY0Q.s 			page 24


 836              		.loc 1 176 5 is_stmt 1 view .LVU222
 176:Core/Src/drive.c **** 
 837              		.loc 1 176 16 is_stmt 0 view .LVU223
 838 0112 B0EE4A1A 		vmov.f32	s2, s20
 839 0116 F0EE690A 		vmov.f32	s1, s19
 840 011a 38EE280A 		vadd.f32	s0, s16, s17
 841              	.LVL68:
 176:Core/Src/drive.c **** 
 842              		.loc 1 176 16 view .LVU224
 843 011e FFF7FEFF 		bl	clampf
 844              	.LVL69:
 845 0122 F0EE408A 		vmov.f32	s17, s0
 846              	.LVL70:
 178:Core/Src/drive.c ****     Motor_Right((int8_t)(rt + 0.5f));
 847              		.loc 1 178 5 is_stmt 1 view .LVU225
 178:Core/Src/drive.c ****     Motor_Right((int8_t)(rt + 0.5f));
 848              		.loc 1 178 28 is_stmt 0 view .LVU226
 849 0126 F6EE009A 		vmov.f32	s19, #5.0e-1
 850 012a 39EE299A 		vadd.f32	s18, s18, s19
 851              	.LVL71:
 178:Core/Src/drive.c ****     Motor_Right((int8_t)(rt + 0.5f));
 852              		.loc 1 178 16 view .LVU227
 853 012e FDEEC97A 		vcvt.s32.f32	s15, s18
 854 0132 CDED007A 		vstr.32	s15, [sp]	@ int
 178:Core/Src/drive.c ****     Motor_Right((int8_t)(rt + 0.5f));
 855              		.loc 1 178 5 view .LVU228
 856 0136 9DF90000 		ldrsb	r0, [sp]
 857 013a FFF7FEFF 		bl	Motor_Left
 858              	.LVL72:
 179:Core/Src/drive.c **** 
 859              		.loc 1 179 5 is_stmt 1 view .LVU229
 179:Core/Src/drive.c **** 
 860              		.loc 1 179 29 is_stmt 0 view .LVU230
 861 013e 78EEA98A 		vadd.f32	s17, s17, s19
 862              	.LVL73:
 179:Core/Src/drive.c **** 
 863              		.loc 1 179 17 view .LVU231
 864 0142 FDEEE87A 		vcvt.s32.f32	s15, s17
 865 0146 CDED017A 		vstr.32	s15, [sp, #4]	@ int
 179:Core/Src/drive.c **** 
 866              		.loc 1 179 5 view .LVU232
 867 014a 9DF90400 		ldrsb	r0, [sp, #4]
 868 014e FFF7FEFF 		bl	Motor_Right
 869              	.LVL74:
 181:Core/Src/drive.c ****     dbg_steer_mode = SM_BOTH;
 870              		.loc 1 181 5 is_stmt 1 view .LVU233
 181:Core/Src/drive.c ****     dbg_steer_mode = SM_BOTH;
 871              		.loc 1 181 20 is_stmt 0 view .LVU234
 872 0152 334B     		ldr	r3, .L67+52
 873 0154 83ED008A 		vstr.32	s16, [r3]
 182:Core/Src/drive.c ****     dbg_duty_l     = (int16_t)(lt + 0.5f);
 874              		.loc 1 182 5 is_stmt 1 view .LVU235
 182:Core/Src/drive.c ****     dbg_duty_l     = (int16_t)(lt + 0.5f);
 875              		.loc 1 182 20 is_stmt 0 view .LVU236
 876 0158 324B     		ldr	r3, .L67+56
 877 015a 0022     		movs	r2, #0
 878 015c 1A70     		strb	r2, [r3]
ARM GAS  C:\Users\user\AppData\Local\Temp\ccy8zY0Q.s 			page 25


 183:Core/Src/drive.c ****     dbg_duty_r     = (int16_t)(rt + 0.5f);
 879              		.loc 1 183 5 is_stmt 1 view .LVU237
 183:Core/Src/drive.c ****     dbg_duty_r     = (int16_t)(rt + 0.5f);
 880              		.loc 1 183 22 is_stmt 0 view .LVU238
 881 015e BDF90030 		ldrsh	r3, [sp]
 183:Core/Src/drive.c ****     dbg_duty_r     = (int16_t)(rt + 0.5f);
 882              		.loc 1 183 20 view .LVU239
 883 0162 314A     		ldr	r2, .L67+60
 884 0164 1380     		strh	r3, [r2]	@ movhi
 184:Core/Src/drive.c **** }
 885              		.loc 1 184 5 is_stmt 1 view .LVU240
 184:Core/Src/drive.c **** }
 886              		.loc 1 184 22 is_stmt 0 view .LVU241
 887 0166 BDF90430 		ldrsh	r3, [sp, #4]
 184:Core/Src/drive.c **** }
 888              		.loc 1 184 20 view .LVU242
 889 016a 304A     		ldr	r2, .L67+64
 890 016c 1380     		strh	r3, [r2]	@ movhi
 185:Core/Src/drive.c **** 
 891              		.loc 1 185 1 view .LVU243
 892 016e 02B0     		add	sp, sp, #8
 893              	.LCFI9:
 894              		.cfi_remember_state
 895              		.cfi_def_cfa_offset 40
 896              		@ sp needed
 897 0170 BDEC068B 		vldm	sp!, {d8-d10}
 898              	.LCFI10:
 899              		.cfi_restore 84
 900              		.cfi_restore 85
 901              		.cfi_restore 82
 902              		.cfi_restore 83
 903              		.cfi_restore 80
 904              		.cfi_restore 81
 905              		.cfi_def_cfa_offset 16
 906              	.LVL75:
 185:Core/Src/drive.c **** 
 907              		.loc 1 185 1 view .LVU244
 908 0174 70BD     		pop	{r4, r5, r6, pc}
 909              	.LVL76:
 910              	.L61:
 911              	.LCFI11:
 912              		.cfi_restore_state
 136:Core/Src/drive.c ****     if ((float)in->f < CORNER_NEAR_CM)
 913              		.loc 1 136 11 view .LVU245
 914 0176 DFED239A 		vldr.32	s19, .L67+24
 915 017a 8BE7     		b	.L56
 916              	.LVL77:
 917              	.L65:
 918              	.LBB4:
 151:Core/Src/drive.c **** 
 919              		.loc 1 151 9 is_stmt 1 view .LVU246
 153:Core/Src/drive.c ****         {
 920              		.loc 1 153 9 view .LVU247
 153:Core/Src/drive.c ****         {
 921              		.loc 1 153 21 is_stmt 0 view .LVU248
 922 017c 244B     		ldr	r3, .L67+36
 923 017e 1B68     		ldr	r3, [r3]
ARM GAS  C:\Users\user\AppData\Local\Temp\ccy8zY0Q.s 			page 26


 153:Core/Src/drive.c ****         {
 924              		.loc 1 153 12 view .LVU249
 925 0180 93B1     		cbz	r3, .L62
 153:Core/Src/drive.c ****         {
 926              		.loc 1 153 32 discriminator 1 view .LVU250
 927 0182 2A69     		ldr	r2, [r5, #16]
 153:Core/Src/drive.c ****         {
 928              		.loc 1 153 27 discriminator 1 view .LVU251
 929 0184 9342     		cmp	r3, r2
 930 0186 2DD2     		bcs	.L63
 155:Core/Src/drive.c ****             dt = clampf(dt, 0.005f, 0.100f);
 931              		.loc 1 155 13 is_stmt 1 view .LVU252
 155:Core/Src/drive.c ****             dt = clampf(dt, 0.005f, 0.100f);
 932              		.loc 1 155 34 is_stmt 0 view .LVU253
 933 0188 D21A     		subs	r2, r2, r3
 155:Core/Src/drive.c ****             dt = clampf(dt, 0.005f, 0.100f);
 934              		.loc 1 155 18 view .LVU254
 935 018a 07EE902A 		vmov	s15, r2	@ int
 936 018e F8EE677A 		vcvt.f32.u32	s15, s15
 937              	.LVL78:
 156:Core/Src/drive.c ****         }
 938              		.loc 1 156 13 is_stmt 1 view .LVU255
 156:Core/Src/drive.c ****         }
 939              		.loc 1 156 18 is_stmt 0 view .LVU256
 940 0192 9FED271A 		vldr.32	s2, .L67+68
 941 0196 DFED270A 		vldr.32	s1, .L67+72
 942 019a 9FED270A 		vldr.32	s0, .L67+76
 943 019e 87EE800A 		vdiv.f32	s0, s15, s0
 944              	.LVL79:
 156:Core/Src/drive.c ****         }
 945              		.loc 1 156 18 view .LVU257
 946 01a2 FFF7FEFF 		bl	clampf
 947              	.LVL80:
 156:Core/Src/drive.c ****         }
 948              		.loc 1 156 18 view .LVU258
 949 01a6 01E0     		b	.L60
 950              	.LVL81:
 951              	.L62:
 151:Core/Src/drive.c **** 
 952              		.loc 1 151 15 view .LVU259
 953 01a8 9FED240A 		vldr.32	s0, .L67+80
 954              	.LVL82:
 955              	.L60:
 159:Core/Src/drive.c **** 
 956              		.loc 1 159 9 is_stmt 1 view .LVU260
 159:Core/Src/drive.c **** 
 957              		.loc 1 159 32 is_stmt 0 view .LVU261
 958 01ac 174C     		ldr	r4, .L67+32
 959 01ae 94ED007A 		vldr.32	s14, [r4]
 960 01b2 38EEC77A 		vsub.f32	s14, s17, s14
 159:Core/Src/drive.c **** 
 961              		.loc 1 159 15 view .LVU262
 962 01b6 C7EE007A 		vdiv.f32	s15, s14, s0
 963              	.LVL83:
 161:Core/Src/drive.c ****         steer = clampf(steer, -steer_max, steer_max);   /* кі м • 10 лҢҖмӢ  лһЁн”„лҗң мғҒн•ң */
 964              		.loc 1 161 9 is_stmt 1 view .LVU263
 161:Core/Src/drive.c ****         steer = clampf(steer, -steer_max, steer_max);   /* кі м • 10 лҢҖмӢ  лһЁн”„лҗң мғҒн•ң */
ARM GAS  C:\Users\user\AppData\Local\Temp\ccy8zY0Q.s 			page 27


 965              		.loc 1 161 28 is_stmt 0 view .LVU264
 966 01ba 9FED210A 		vldr.32	s0, .L67+84
 967              	.LVL84:
 161:Core/Src/drive.c ****         steer = clampf(steer, -steer_max, steer_max);   /* кі м • 10 лҢҖмӢ  лһЁн”„лҗң мғҒн•ң */
 968              		.loc 1 161 28 view .LVU265
 969 01be 28EE800A 		vmul.f32	s0, s17, s0
 161:Core/Src/drive.c ****         steer = clampf(steer, -steer_max, steer_max);   /* кі м • 10 лҢҖмӢ  лһЁн”„лҗң мғҒн•ң */
 970              		.loc 1 161 50 view .LVU266
 971 01c2 9FED207A 		vldr.32	s14, .L67+88
 972 01c6 67EE877A 		vmul.f32	s15, s15, s14
 973              	.LVL85:
 162:Core/Src/drive.c ****         prev_error = error;
 974              		.loc 1 162 9 is_stmt 1 view .LVU267
 162:Core/Src/drive.c ****         prev_error = error;
 975              		.loc 1 162 17 is_stmt 0 view .LVU268
 976 01ca B0EE491A 		vmov.f32	s2, s18
 977 01ce F1EE490A 		vneg.f32	s1, s18
 978 01d2 30EE270A 		vadd.f32	s0, s0, s15
 979              	.LVL86:
 162:Core/Src/drive.c ****         prev_error = error;
 980              		.loc 1 162 17 view .LVU269
 981 01d6 FFF7FEFF 		bl	clampf
 982              	.LVL87:
 162:Core/Src/drive.c ****         prev_error = error;
 983              		.loc 1 162 17 view .LVU270
 984 01da B0EE408A 		vmov.f32	s16, s0
 985              	.LVL88:
 163:Core/Src/drive.c ****     }
 986              		.loc 1 163 9 is_stmt 1 view .LVU271
 163:Core/Src/drive.c ****     }
 987              		.loc 1 163 20 is_stmt 0 view .LVU272
 988 01de C4ED008A 		vstr.32	s17, [r4]
 989 01e2 6DE7     		b	.L59
 990              	.LVL89:
 991              	.L63:
 151:Core/Src/drive.c **** 
 992              		.loc 1 151 15 view .LVU273
 993 01e4 9FED150A 		vldr.32	s0, .L67+80
 994 01e8 E0E7     		b	.L60
 995              	.L68:
 996 01ea 00BF     		.align	2
 997              	.L67:
 998 01ec 00000000 		.word	idx.5
 999 01f0 00000000 		.word	l_buf.4
 1000 01f4 00000000 		.word	r_buf.3
 1001 01f8 CDCCCCCC 		.word	-858993459
 1002 01fc 00000000 		.word	count.2
 1003 0200 00005C42 		.word	1113325568
 1004 0204 00000000 		.word	0
 1005 0208 00000C42 		.word	1108082688
 1006 020c 00000000 		.word	prev_error.1
 1007 0210 00000000 		.word	prev_ms.0
 1008 0214 00003442 		.word	1110704128
 1009 0218 00000042 		.word	1107296256
 1010 021c 0000C842 		.word	1120403456
 1011 0220 00000000 		.word	dbg_steer
 1012 0224 00000000 		.word	dbg_steer_mode
ARM GAS  C:\Users\user\AppData\Local\Temp\ccy8zY0Q.s 			page 28


 1013 0228 00000000 		.word	dbg_duty_l
 1014 022c 00000000 		.word	dbg_duty_r
 1015 0230 CDCCCC3D 		.word	1036831949
 1016 0234 0AD7A33B 		.word	1000593162
 1017 0238 00007A44 		.word	1148846080
 1018 023c 0AD7A33C 		.word	1017370378
 1019 0240 CDCC4C3F 		.word	1061997773
 1020 0244 295C0F3D 		.word	1024416809
 1021              	.LBE4:
 1022              		.cfi_endproc
 1023              	.LFE138:
 1025              		.section	.text.cruise_run,"ax",%progbits
 1026              		.align	1
 1027              		.syntax unified
 1028              		.thumb
 1029              		.thumb_func
 1031              	cruise_run:
 1032              	.LVL90:
 1033              	.LFB146:
 254:Core/Src/drive.c ****     /* fail-safe: м •л©ҙ м—°мҶҚ л¬ҙм—җмҪ” вҶ’ HOLD. CRUISEм—җм„ңл§Ң вҖ” SPIN/REVERSEлҠ” м „л°© л…ём
 1034              		.loc 1 254 1 is_stmt 1 view -0
 1035              		.cfi_startproc
 1036              		@ args = 0, pretend = 0, frame = 0
 1037              		@ frame_needed = 0, uses_anonymous_args = 0
 254:Core/Src/drive.c ****     /* fail-safe: м •л©ҙ м—°мҶҚ л¬ҙм—җмҪ” вҶ’ HOLD. CRUISEм—җм„ңл§Ң вҖ” SPIN/REVERSEлҠ” м „л°© л…ём
 1038              		.loc 1 254 1 is_stmt 0 view .LVU275
 1039 0000 08B5     		push	{r3, lr}
 1040              	.LCFI12:
 1041              		.cfi_def_cfa_offset 8
 1042              		.cfi_offset 3, -8
 1043              		.cfi_offset 14, -4
 256:Core/Src/drive.c **** 
 1044              		.loc 1 256 5 is_stmt 1 view .LVU276
 256:Core/Src/drive.c **** 
 1045              		.loc 1 256 11 is_stmt 0 view .LVU277
 1046 0002 C379     		ldrb	r3, [r0, #7]	@ zero_extendqisi2
 256:Core/Src/drive.c **** 
 1047              		.loc 1 256 8 view .LVU278
 1048 0004 042B     		cmp	r3, #4
 1049 0006 0CD8     		bhi	.L75
 259:Core/Src/drive.c **** 
 1050              		.loc 1 259 5 is_stmt 1 view .LVU279
 259:Core/Src/drive.c **** 
 1051              		.loc 1 259 11 is_stmt 0 view .LVU280
 1052 0008 0388     		ldrh	r3, [r0]
 259:Core/Src/drive.c **** 
 1053              		.loc 1 259 8 view .LVU281
 1054 000a 132B     		cmp	r3, #19
 1055 000c 0CD9     		bls	.L76
 1056              	.LBB5:
 263:Core/Src/drive.c ****         if (smin < SIDE_AVOID_CM) { side_avoid_enter(in); return; }
 1057              		.loc 1 263 9 is_stmt 1 view .LVU282
 263:Core/Src/drive.c ****         if (smin < SIDE_AVOID_CM) { side_avoid_enter(in); return; }
 1058              		.loc 1 263 36 is_stmt 0 view .LVU283
 1059 000e 8388     		ldrh	r3, [r0, #4]
 263:Core/Src/drive.c ****         if (smin < SIDE_AVOID_CM) { side_avoid_enter(in); return; }
 1060              		.loc 1 263 28 view .LVU284
ARM GAS  C:\Users\user\AppData\Local\Temp\ccy8zY0Q.s 			page 29


 1061 0010 4288     		ldrh	r2, [r0, #2]
 263:Core/Src/drive.c ****         if (smin < SIDE_AVOID_CM) { side_avoid_enter(in); return; }
 1062              		.loc 1 263 18 view .LVU285
 1063 0012 9342     		cmp	r3, r2
 1064 0014 28BF     		it	cs
 1065 0016 1346     		movcs	r3, r2
 1066              	.LVL91:
 264:Core/Src/drive.c ****     }
 1067              		.loc 1 264 9 is_stmt 1 view .LVU286
 264:Core/Src/drive.c ****     }
 1068              		.loc 1 264 12 is_stmt 0 view .LVU287
 1069 0018 042B     		cmp	r3, #4
 1070 001a 08D9     		bls	.L77
 1071              	.LBE5:
 266:Core/Src/drive.c ****     return;
 1072              		.loc 1 266 5 is_stmt 1 view .LVU288
 1073 001c FFF7FEFF 		bl	Drive_CenteringPD_Run
 1074              	.LVL92:
 267:Core/Src/drive.c **** }
 1075              		.loc 1 267 5 view .LVU289
 1076              	.L69:
 268:Core/Src/drive.c **** 
 1077              		.loc 1 268 1 is_stmt 0 view .LVU290
 1078 0020 08BD     		pop	{r3, pc}
 1079              	.LVL93:
 1080              	.L75:
 256:Core/Src/drive.c **** 
 1081              		.loc 1 256 47 is_stmt 1 discriminator 1 view .LVU291
 1082 0022 FFF7FEFF 		bl	hold_enter
 1083              	.LVL94:
 256:Core/Src/drive.c **** 
 1084              		.loc 1 256 63 discriminator 1 view .LVU292
 256:Core/Src/drive.c **** 
 1085              		.loc 1 256 63 is_stmt 0 view .LVU293
 1086 0026 FBE7     		b	.L69
 1087              	.LVL95:
 1088              	.L76:
 259:Core/Src/drive.c **** 
 1089              		.loc 1 259 34 is_stmt 1 discriminator 1 view .LVU294
 1090 0028 FFF7FEFF 		bl	brake_enter
 1091              	.LVL96:
 259:Core/Src/drive.c **** 
 1092              		.loc 1 259 51 discriminator 1 view .LVU295
 259:Core/Src/drive.c **** 
 1093              		.loc 1 259 51 is_stmt 0 view .LVU296
 1094 002c F8E7     		b	.L69
 1095              	.LVL97:
 1096              	.L77:
 1097              	.LBB6:
 264:Core/Src/drive.c ****     }
 1098              		.loc 1 264 37 is_stmt 1 discriminator 1 view .LVU297
 1099 002e FFF7FEFF 		bl	side_avoid_enter
 1100              	.LVL98:
 264:Core/Src/drive.c ****     }
 1101              		.loc 1 264 59 discriminator 1 view .LVU298
 264:Core/Src/drive.c ****     }
 1102              		.loc 1 264 59 is_stmt 0 view .LVU299
ARM GAS  C:\Users\user\AppData\Local\Temp\ccy8zY0Q.s 			page 30


 1103 0032 F5E7     		b	.L69
 1104              	.LBE6:
 1105              		.cfi_endproc
 1106              	.LFE146:
 1108              		.section	.text.reverse_enter,"ax",%progbits
 1109              		.align	1
 1110              		.syntax unified
 1111              		.thumb
 1112              		.thumb_func
 1114              	reverse_enter:
 1115              	.LVL99:
 1116              	.LFB143:
 229:Core/Src/drive.c ****     Car_Backward(DRIVE_SPEED);
 1117              		.loc 1 229 1 is_stmt 1 view -0
 1118              		.cfi_startproc
 1119              		@ args = 0, pretend = 0, frame = 0
 1120              		@ frame_needed = 0, uses_anonymous_args = 0
 229:Core/Src/drive.c ****     Car_Backward(DRIVE_SPEED);
 1121              		.loc 1 229 1 is_stmt 0 view .LVU301
 1122 0000 10B5     		push	{r4, lr}
 1123              	.LCFI13:
 1124              		.cfi_def_cfa_offset 8
 1125              		.cfi_offset 4, -8
 1126              		.cfi_offset 14, -4
 1127 0002 0446     		mov	r4, r0
 230:Core/Src/drive.c ****     if (rev_cnt < 255) rev_cnt++;
 1128              		.loc 1 230 5 is_stmt 1 view .LVU302
 1129 0004 2020     		movs	r0, #32
 1130              	.LVL100:
 230:Core/Src/drive.c ****     if (rev_cnt < 255) rev_cnt++;
 1131              		.loc 1 230 5 is_stmt 0 view .LVU303
 1132 0006 FFF7FEFF 		bl	Car_Backward
 1133              	.LVL101:
 231:Core/Src/drive.c ****     enter(DS_REVERSE, in->now);
 1134              		.loc 1 231 5 is_stmt 1 view .LVU304
 231:Core/Src/drive.c ****     enter(DS_REVERSE, in->now);
 1135              		.loc 1 231 17 is_stmt 0 view .LVU305
 1136 000a 064B     		ldr	r3, .L81
 1137 000c 1B78     		ldrb	r3, [r3]	@ zero_extendqisi2
 231:Core/Src/drive.c ****     enter(DS_REVERSE, in->now);
 1138              		.loc 1 231 8 view .LVU306
 1139 000e FF2B     		cmp	r3, #255
 1140 0010 02D0     		beq	.L79
 231:Core/Src/drive.c ****     enter(DS_REVERSE, in->now);
 1141              		.loc 1 231 24 is_stmt 1 discriminator 1 view .LVU307
 231:Core/Src/drive.c ****     enter(DS_REVERSE, in->now);
 1142              		.loc 1 231 31 is_stmt 0 discriminator 1 view .LVU308
 1143 0012 0133     		adds	r3, r3, #1
 1144 0014 034A     		ldr	r2, .L81
 1145 0016 1370     		strb	r3, [r2]
 1146              	.L79:
 232:Core/Src/drive.c **** }
 1147              		.loc 1 232 5 is_stmt 1 view .LVU309
 1148 0018 2169     		ldr	r1, [r4, #16]
 1149 001a 0320     		movs	r0, #3
 1150 001c FFF7FEFF 		bl	enter
 1151              	.LVL102:
ARM GAS  C:\Users\user\AppData\Local\Temp\ccy8zY0Q.s 			page 31


 233:Core/Src/drive.c **** 
 1152              		.loc 1 233 1 is_stmt 0 view .LVU310
 1153 0020 10BD     		pop	{r4, pc}
 1154              	.LVL103:
 1155              	.L82:
 233:Core/Src/drive.c **** 
 1156              		.loc 1 233 1 view .LVU311
 1157 0022 00BF     		.align	2
 1158              	.L81:
 1159 0024 00000000 		.word	rev_cnt
 1160              		.cfi_endproc
 1161              	.LFE143:
 1163              		.section	.text.brake_run,"ax",%progbits
 1164              		.align	1
 1165              		.syntax unified
 1166              		.thumb
 1167              		.thumb_func
 1169              	brake_run:
 1170              	.LVL104:
 1171              	.LFB147:
 272:Core/Src/drive.c ****     if ((in->now - t_state) < (uint32_t)BRAKE_MS) return;   /* м ңлҸҷ мң м§Җ мӨ‘ */
 1172              		.loc 1 272 1 is_stmt 1 view -0
 1173              		.cfi_startproc
 1174              		@ args = 0, pretend = 0, frame = 0
 1175              		@ frame_needed = 0, uses_anonymous_args = 0
 273:Core/Src/drive.c **** 
 1176              		.loc 1 273 5 view .LVU313
 273:Core/Src/drive.c **** 
 1177              		.loc 1 273 12 is_stmt 0 view .LVU314
 1178 0000 0369     		ldr	r3, [r0, #16]
 273:Core/Src/drive.c **** 
 1179              		.loc 1 273 18 view .LVU315
 1180 0002 124A     		ldr	r2, .L92
 1181 0004 1268     		ldr	r2, [r2]
 1182 0006 9B1A     		subs	r3, r3, r2
 273:Core/Src/drive.c **** 
 1183              		.loc 1 273 8 view .LVU316
 1184 0008 772B     		cmp	r3, #119
 1185 000a 00D8     		bhi	.L90
 1186 000c 7047     		bx	lr
 1187              	.L90:
 272:Core/Src/drive.c ****     if ((in->now - t_state) < (uint32_t)BRAKE_MS) return;   /* м ңлҸҷ мң м§Җ мӨ‘ */
 1188              		.loc 1 272 1 view .LVU317
 1189 000e 10B5     		push	{r4, lr}
 1190              	.LCFI14:
 1191              		.cfi_def_cfa_offset 8
 1192              		.cfi_offset 4, -8
 1193              		.cfi_offset 14, -4
 1194 0010 0446     		mov	r4, r0
 275:Core/Src/drive.c **** 
 1195              		.loc 1 275 5 is_stmt 1 view .LVU318
 1196 0012 FFF7FEFF 		bl	Car_Stop
 1197              	.LVL105:
 277:Core/Src/drive.c ****                         in->l < SIDE_BLOCK_CM   &&
 1198              		.loc 1 277 5 view .LVU319
 277:Core/Src/drive.c ****                         in->l < SIDE_BLOCK_CM   &&
 1199              		.loc 1 277 27 is_stmt 0 view .LVU320
ARM GAS  C:\Users\user\AppData\Local\Temp\ccy8zY0Q.s 			page 32


 1200 0016 2388     		ldrh	r3, [r4]
 278:Core/Src/drive.c ****                         in->r < SIDE_BLOCK_CM);
 1201              		.loc 1 278 49 view .LVU321
 1202 0018 0B2B     		cmp	r3, #11
 1203 001a 09D8     		bhi	.L85
 278:Core/Src/drive.c ****                         in->r < SIDE_BLOCK_CM);
 1204              		.loc 1 278 27 discriminator 1 view .LVU322
 1205 001c 6388     		ldrh	r3, [r4, #2]
 277:Core/Src/drive.c ****                         in->l < SIDE_BLOCK_CM   &&
 1206              		.loc 1 277 49 view .LVU323
 1207 001e 052B     		cmp	r3, #5
 1208 0020 06D8     		bhi	.L85
 279:Core/Src/drive.c ****     if (dead_end && rev_cnt < REV_MAX_CHUNKS)
 1209              		.loc 1 279 27 view .LVU324
 1210 0022 A388     		ldrh	r3, [r4, #4]
 278:Core/Src/drive.c ****                         in->r < SIDE_BLOCK_CM);
 1211              		.loc 1 278 49 discriminator 4 view .LVU325
 1212 0024 052B     		cmp	r3, #5
 1213 0026 03D8     		bhi	.L85
 1214              	.LVL106:
 280:Core/Src/drive.c ****         reverse_enter(in);
 1215              		.loc 1 280 5 is_stmt 1 view .LVU326
 280:Core/Src/drive.c ****         reverse_enter(in);
 1216              		.loc 1 280 29 is_stmt 0 discriminator 1 view .LVU327
 1217 0028 094B     		ldr	r3, .L92+4
 1218 002a 1B78     		ldrb	r3, [r3]	@ zero_extendqisi2
 280:Core/Src/drive.c ****         reverse_enter(in);
 1219              		.loc 1 280 18 discriminator 1 view .LVU328
 1220 002c 022B     		cmp	r3, #2
 1221 002e 08D9     		bls	.L91
 1222              	.LVL107:
 1223              	.L85:
 283:Core/Src/drive.c **** }
 1224              		.loc 1 283 9 is_stmt 1 view .LVU329
 1225 0030 074B     		ldr	r3, .L92+4
 1226 0032 1978     		ldrb	r1, [r3]	@ zero_extendqisi2
 1227 0034 0039     		subs	r1, r1, #0
 1228 0036 18BF     		it	ne
 1229 0038 0121     		movne	r1, #1
 1230 003a 2046     		mov	r0, r4
 1231 003c FFF7FEFF 		bl	spin_enter
 1232              	.LVL108:
 1233              	.L83:
 284:Core/Src/drive.c **** 
 1234              		.loc 1 284 1 is_stmt 0 view .LVU330
 1235 0040 10BD     		pop	{r4, pc}
 1236              	.LVL109:
 1237              	.L91:
 281:Core/Src/drive.c ****     else
 1238              		.loc 1 281 9 is_stmt 1 view .LVU331
 1239 0042 2046     		mov	r0, r4
 1240 0044 FFF7FEFF 		bl	reverse_enter
 1241              	.LVL110:
 1242 0048 FAE7     		b	.L83
 1243              	.L93:
 1244 004a 00BF     		.align	2
 1245              	.L92:
ARM GAS  C:\Users\user\AppData\Local\Temp\ccy8zY0Q.s 			page 33


 1246 004c 00000000 		.word	t_state
 1247 0050 00000000 		.word	rev_cnt
 1248              		.cfi_endproc
 1249              	.LFE147:
 1251              		.section	.text.reverse_run,"ax",%progbits
 1252              		.align	1
 1253              		.syntax unified
 1254              		.thumb
 1255              		.thumb_func
 1257              	reverse_run:
 1258              	.LVL111:
 1259              	.LFB149:
 362:Core/Src/drive.c ****     if ((in->now - t_state) >= (uint32_t)BACK_CHUNK_MS)
 1260              		.loc 1 362 1 view -0
 1261              		.cfi_startproc
 1262              		@ args = 0, pretend = 0, frame = 0
 1263              		@ frame_needed = 0, uses_anonymous_args = 0
 362:Core/Src/drive.c ****     if ((in->now - t_state) >= (uint32_t)BACK_CHUNK_MS)
 1264              		.loc 1 362 1 is_stmt 0 view .LVU333
 1265 0000 08B5     		push	{r3, lr}
 1266              	.LCFI15:
 1267              		.cfi_def_cfa_offset 8
 1268              		.cfi_offset 3, -8
 1269              		.cfi_offset 14, -4
 363:Core/Src/drive.c ****     {
 1270              		.loc 1 363 5 is_stmt 1 view .LVU334
 363:Core/Src/drive.c ****     {
 1271              		.loc 1 363 12 is_stmt 0 view .LVU335
 1272 0002 0369     		ldr	r3, [r0, #16]
 363:Core/Src/drive.c ****     {
 1273              		.loc 1 363 18 view .LVU336
 1274 0004 054A     		ldr	r2, .L99
 1275 0006 1268     		ldr	r2, [r2]
 1276 0008 9B1A     		subs	r3, r3, r2
 363:Core/Src/drive.c ****     {
 1277              		.loc 1 363 8 view .LVU337
 1278 000a 772B     		cmp	r3, #119
 1279 000c 03D8     		bhi	.L98
 368:Core/Src/drive.c **** }
 1280              		.loc 1 368 5 is_stmt 1 view .LVU338
 1281 000e 2020     		movs	r0, #32
 1282              	.LVL112:
 368:Core/Src/drive.c **** }
 1283              		.loc 1 368 5 is_stmt 0 view .LVU339
 1284 0010 FFF7FEFF 		bl	Car_Backward
 1285              	.LVL113:
 1286              	.L94:
 369:Core/Src/drive.c **** 
 1287              		.loc 1 369 1 view .LVU340
 1288 0014 08BD     		pop	{r3, pc}
 1289              	.LVL114:
 1290              	.L98:
 365:Core/Src/drive.c ****         return;
 1291              		.loc 1 365 9 is_stmt 1 view .LVU341
 1292 0016 FFF7FEFF 		bl	brake_enter
 1293              	.LVL115:
 366:Core/Src/drive.c ****     }
ARM GAS  C:\Users\user\AppData\Local\Temp\ccy8zY0Q.s 			page 34


 1294              		.loc 1 366 9 view .LVU342
 1295 001a FBE7     		b	.L94
 1296              	.L100:
 1297              		.align	2
 1298              	.L99:
 1299 001c 00000000 		.word	t_state
 1300              		.cfi_endproc
 1301              	.LFE149:
 1303              		.section	.text.spin_run,"ax",%progbits
 1304              		.align	1
 1305              		.syntax unified
 1306              		.thumb
 1307              		.thumb_func
 1309              	spin_run:
 1310              	.LVL116:
 1311              	.LFB148:
 288:Core/Src/drive.c ****     /* л§үлӢӨлҘё кіі вҶ’ нӣ„м§„ (chunk мҳҲмӮ° лӮҙм—җм„ңл§Ң) */
 1312              		.loc 1 288 1 view -0
 1313              		.cfi_startproc
 1314              		@ args = 0, pretend = 0, frame = 0
 1315              		@ frame_needed = 0, uses_anonymous_args = 0
 288:Core/Src/drive.c ****     /* л§үлӢӨлҘё кіі вҶ’ нӣ„м§„ (chunk мҳҲмӮ° лӮҙм—җм„ңл§Ң) */
 1316              		.loc 1 288 1 is_stmt 0 view .LVU344
 1317 0000 70B5     		push	{r4, r5, r6, lr}
 1318              	.LCFI16:
 1319              		.cfi_def_cfa_offset 16
 1320              		.cfi_offset 4, -16
 1321              		.cfi_offset 5, -12
 1322              		.cfi_offset 6, -8
 1323              		.cfi_offset 14, -4
 1324 0002 2DED028B 		vpush.64	{d8}
 1325              	.LCFI17:
 1326              		.cfi_def_cfa_offset 24
 1327              		.cfi_offset 80, -24
 1328              		.cfi_offset 81, -20
 1329 0006 0446     		mov	r4, r0
 290:Core/Src/drive.c ****         && rev_cnt < REV_MAX_CHUNKS)
 1330              		.loc 1 290 5 is_stmt 1 view .LVU345
 290:Core/Src/drive.c ****         && rev_cnt < REV_MAX_CHUNKS)
 1331              		.loc 1 290 11 is_stmt 0 view .LVU346
 1332 0008 0388     		ldrh	r3, [r0]
 290:Core/Src/drive.c ****         && rev_cnt < REV_MAX_CHUNKS)
 1333              		.loc 1 290 8 view .LVU347
 1334 000a 0B2B     		cmp	r3, #11
 1335 000c 09D8     		bhi	.L102
 290:Core/Src/drive.c ****         && rev_cnt < REV_MAX_CHUNKS)
 1336              		.loc 1 290 38 discriminator 1 view .LVU348
 1337 000e 4388     		ldrh	r3, [r0, #2]
 290:Core/Src/drive.c ****         && rev_cnt < REV_MAX_CHUNKS)
 1338              		.loc 1 290 33 discriminator 1 view .LVU349
 1339 0010 052B     		cmp	r3, #5
 1340 0012 06D8     		bhi	.L102
 290:Core/Src/drive.c ****         && rev_cnt < REV_MAX_CHUNKS)
 1341              		.loc 1 290 63 discriminator 2 view .LVU350
 1342 0014 8388     		ldrh	r3, [r0, #4]
 290:Core/Src/drive.c ****         && rev_cnt < REV_MAX_CHUNKS)
 1343              		.loc 1 290 58 discriminator 2 view .LVU351
ARM GAS  C:\Users\user\AppData\Local\Temp\ccy8zY0Q.s 			page 35


 1344 0016 052B     		cmp	r3, #5
 1345 0018 03D8     		bhi	.L102
 291:Core/Src/drive.c ****     {
 1346              		.loc 1 291 20 view .LVU352
 1347 001a 5C4B     		ldr	r3, .L126
 1348 001c 1B78     		ldrb	r3, [r3]	@ zero_extendqisi2
 291:Core/Src/drive.c ****     {
 1349              		.loc 1 291 9 view .LVU353
 1350 001e 022B     		cmp	r3, #2
 1351 0020 63D9     		bls	.L122
 1352              	.L102:
 297:Core/Src/drive.c ****     {
 1353              		.loc 1 297 5 is_stmt 1 view .LVU354
 297:Core/Src/drive.c ****     {
 1354              		.loc 1 297 11 is_stmt 0 view .LVU355
 1355 0022 257B     		ldrb	r5, [r4, #12]	@ zero_extendqisi2
 297:Core/Src/drive.c ****     {
 1356              		.loc 1 297 8 view .LVU356
 1357 0024 002D     		cmp	r5, #0
 1358 0026 63D1     		bne	.L123
 1359              	.LVL117:
 1360              	.L104:
 316:Core/Src/drive.c ****     {
 1361              		.loc 1 316 5 is_stmt 1 view .LVU357
 316:Core/Src/drive.c ****     {
 1362              		.loc 1 316 12 is_stmt 0 view .LVU358
 1363 0028 2269     		ldr	r2, [r4, #16]
 316:Core/Src/drive.c ****     {
 1364              		.loc 1 316 18 view .LVU359
 1365 002a 594B     		ldr	r3, .L126+4
 1366 002c 1B68     		ldr	r3, [r3]
 1367 002e D31A     		subs	r3, r2, r3
 316:Core/Src/drive.c ****     {
 1368              		.loc 1 316 8 view .LVU360
 1369 0030 40F6C411 		movw	r1, #2500
 1370 0034 8B42     		cmp	r3, r1
 1371 0036 0ED9     		bls	.L107
 318:Core/Src/drive.c ****         turn_dir ^= 1;
 1372              		.loc 1 318 9 is_stmt 1 view .LVU361
 318:Core/Src/drive.c ****         turn_dir ^= 1;
 1373              		.loc 1 318 21 is_stmt 0 view .LVU362
 1374 0038 544B     		ldr	r3, .L126
 1375 003a 1B78     		ldrb	r3, [r3]	@ zero_extendqisi2
 318:Core/Src/drive.c ****         turn_dir ^= 1;
 1376              		.loc 1 318 12 view .LVU363
 1377 003c 022B     		cmp	r3, #2
 1378 003e 40F28880 		bls	.L124
 319:Core/Src/drive.c ****         t_state = in->now;
 1379              		.loc 1 319 9 is_stmt 1 view .LVU364
 319:Core/Src/drive.c ****         t_state = in->now;
 1380              		.loc 1 319 18 is_stmt 0 view .LVU365
 1381 0042 5449     		ldr	r1, .L126+8
 1382 0044 0B78     		ldrb	r3, [r1]	@ zero_extendqisi2
 1383 0046 83F00103 		eor	r3, r3, #1
 1384 004a 0B70     		strb	r3, [r1]
 320:Core/Src/drive.c ****         h_entry = in->heading;
 1385              		.loc 1 320 9 is_stmt 1 view .LVU366
ARM GAS  C:\Users\user\AppData\Local\Temp\ccy8zY0Q.s 			page 36


 320:Core/Src/drive.c ****         h_entry = in->heading;
 1386              		.loc 1 320 17 is_stmt 0 view .LVU367
 1387 004c 504B     		ldr	r3, .L126+4
 1388 004e 1A60     		str	r2, [r3]
 321:Core/Src/drive.c ****     }
 1389              		.loc 1 321 9 is_stmt 1 view .LVU368
 321:Core/Src/drive.c ****     }
 1390              		.loc 1 321 21 is_stmt 0 view .LVU369
 1391 0050 A168     		ldr	r1, [r4, #8]	@ float
 321:Core/Src/drive.c ****     }
 1392              		.loc 1 321 17 view .LVU370
 1393 0052 514B     		ldr	r3, .L126+12
 1394 0054 1960     		str	r1, [r3]	@ float
 1395              	.L107:
 325:Core/Src/drive.c ****     {
 1396              		.loc 1 325 5 is_stmt 1 view .LVU371
 325:Core/Src/drive.c ****     {
 1397              		.loc 1 325 18 is_stmt 0 view .LVU372
 1398 0056 4E4B     		ldr	r3, .L126+4
 1399 0058 1B68     		ldr	r3, [r3]
 1400 005a D31A     		subs	r3, r2, r3
 325:Core/Src/drive.c ****     {
 1401              		.loc 1 325 8 view .LVU373
 1402 005c 952B     		cmp	r3, #149
 1403 005e 1CD9     		bls	.L109
 325:Core/Src/drive.c ****     {
 1404              		.loc 1 325 69 discriminator 1 view .LVU374
 1405 0060 4E4B     		ldr	r3, .L126+16
 1406 0062 1B78     		ldrb	r3, [r3]	@ zero_extendqisi2
 325:Core/Src/drive.c ****     {
 1407              		.loc 1 325 57 discriminator 1 view .LVU375
 1408 0064 CBB9     		cbnz	r3, .L109
 1409              	.LBB7:
 327:Core/Src/drive.c ****         uint16_t other   = (turn_dir == 0) ? in->r : in->l;
 1410              		.loc 1 327 9 is_stmt 1 view .LVU376
 327:Core/Src/drive.c ****         uint16_t other   = (turn_dir == 0) ? in->r : in->l;
 1411              		.loc 1 327 38 is_stmt 0 view .LVU377
 1412 0066 4B49     		ldr	r1, .L126+8
 1413 0068 0878     		ldrb	r0, [r1]	@ zero_extendqisi2
 327:Core/Src/drive.c ****         uint16_t other   = (turn_dir == 0) ? in->r : in->l;
 1414              		.loc 1 327 18 view .LVU378
 1415 006a 0028     		cmp	r0, #0
 1416 006c 75D1     		bne	.L110
 327:Core/Src/drive.c ****         uint16_t other   = (turn_dir == 0) ? in->r : in->l;
 1417              		.loc 1 327 18 discriminator 1 view .LVU379
 1418 006e 6188     		ldrh	r1, [r4, #2]
 1419              	.L111:
 1420              	.LVL118:
 328:Core/Src/drive.c ****         if (latched < SIDE_BLOCK_CM && other > (uint16_t)(latched + SIDE_HYST))
 1421              		.loc 1 328 9 is_stmt 1 view .LVU380
 328:Core/Src/drive.c ****         if (latched < SIDE_BLOCK_CM && other > (uint16_t)(latched + SIDE_HYST))
 1422              		.loc 1 328 18 is_stmt 0 view .LVU381
 1423 0070 0028     		cmp	r0, #0
 1424 0072 74D1     		bne	.L112
 328:Core/Src/drive.c ****         if (latched < SIDE_BLOCK_CM && other > (uint16_t)(latched + SIDE_HYST))
 1425              		.loc 1 328 18 discriminator 1 view .LVU382
 1426 0074 A688     		ldrh	r6, [r4, #4]
ARM GAS  C:\Users\user\AppData\Local\Temp\ccy8zY0Q.s 			page 37


 1427              	.L113:
 1428              	.LVL119:
 329:Core/Src/drive.c ****         {
 1429              		.loc 1 329 9 is_stmt 1 view .LVU383
 329:Core/Src/drive.c ****         {
 1430              		.loc 1 329 12 is_stmt 0 view .LVU384
 1431 0076 0529     		cmp	r1, #5
 1432 0078 0FD8     		bhi	.L109
 329:Core/Src/drive.c ****         {
 1433              		.loc 1 329 48 discriminator 1 view .LVU385
 1434 007a 0531     		adds	r1, r1, #5
 1435              	.LVL120:
 329:Core/Src/drive.c ****         {
 1436              		.loc 1 329 48 discriminator 1 view .LVU386
 1437 007c 89B2     		uxth	r1, r1
 329:Core/Src/drive.c ****         {
 1438              		.loc 1 329 37 discriminator 1 view .LVU387
 1439 007e B142     		cmp	r1, r6
 1440 0080 0BD2     		bcs	.L109
 331:Core/Src/drive.c ****             swap_cnt++;
 1441              		.loc 1 331 13 is_stmt 1 view .LVU388
 331:Core/Src/drive.c ****             swap_cnt++;
 1442              		.loc 1 331 22 is_stmt 0 view .LVU389
 1443 0082 80F00100 		eor	r0, r0, #1
 1444 0086 4349     		ldr	r1, .L126+8
 1445 0088 0870     		strb	r0, [r1]
 332:Core/Src/drive.c ****             t_state = in->now;
 1446              		.loc 1 332 13 is_stmt 1 view .LVU390
 332:Core/Src/drive.c ****             t_state = in->now;
 1447              		.loc 1 332 21 is_stmt 0 view .LVU391
 1448 008a 0133     		adds	r3, r3, #1
 1449 008c 4349     		ldr	r1, .L126+16
 1450 008e 0B70     		strb	r3, [r1]
 333:Core/Src/drive.c ****             h_entry = in->heading;
 1451              		.loc 1 333 13 is_stmt 1 view .LVU392
 333:Core/Src/drive.c ****             h_entry = in->heading;
 1452              		.loc 1 333 21 is_stmt 0 view .LVU393
 1453 0090 3F4B     		ldr	r3, .L126+4
 1454 0092 1A60     		str	r2, [r3]
 334:Core/Src/drive.c ****         }
 1455              		.loc 1 334 13 is_stmt 1 view .LVU394
 334:Core/Src/drive.c ****         }
 1456              		.loc 1 334 25 is_stmt 0 view .LVU395
 1457 0094 A268     		ldr	r2, [r4, #8]	@ float
 334:Core/Src/drive.c ****         }
 1458              		.loc 1 334 21 view .LVU396
 1459 0096 404B     		ldr	r3, .L126+12
 1460 0098 1A60     		str	r2, [r3]	@ float
 1461              	.LVL121:
 1462              	.L109:
 334:Core/Src/drive.c ****         }
 1463              		.loc 1 334 21 view .LVU397
 1464              	.LBE7:
 340:Core/Src/drive.c ****     {
 1465              		.loc 1 340 5 is_stmt 1 view .LVU398
 340:Core/Src/drive.c ****     {
 1466              		.loc 1 340 11 is_stmt 0 view .LVU399
ARM GAS  C:\Users\user\AppData\Local\Temp\ccy8zY0Q.s 			page 38


 1467 009a 2388     		ldrh	r3, [r4]
 340:Core/Src/drive.c ****     {
 1468              		.loc 1 340 8 view .LVU400
 1469 009c 252B     		cmp	r3, #37
 1470 009e 60D9     		bls	.L114
 340:Core/Src/drive.c ****     {
 1471              		.loc 1 340 38 discriminator 1 view .LVU401
 1472 00a0 A279     		ldrb	r2, [r4, #6]	@ zero_extendqisi2
 340:Core/Src/drive.c ****     {
 1473              		.loc 1 340 33 discriminator 1 view .LVU402
 1474 00a2 002A     		cmp	r2, #0
 1475 00a4 5DD0     		beq	.L114
 342:Core/Src/drive.c ****         if (clear_cnt >= CLEAR_CONFIRM &&
 1476              		.loc 1 342 9 is_stmt 1 view .LVU403
 342:Core/Src/drive.c ****         if (clear_cnt >= CLEAR_CONFIRM &&
 1477              		.loc 1 342 23 is_stmt 0 view .LVU404
 1478 00a6 3E4B     		ldr	r3, .L126+20
 1479 00a8 1B78     		ldrb	r3, [r3]	@ zero_extendqisi2
 342:Core/Src/drive.c ****         if (clear_cnt >= CLEAR_CONFIRM &&
 1480              		.loc 1 342 12 view .LVU405
 1481 00aa FF2B     		cmp	r3, #255
 1482 00ac 02D0     		beq	.L115
 342:Core/Src/drive.c ****         if (clear_cnt >= CLEAR_CONFIRM &&
 1483              		.loc 1 342 30 is_stmt 1 discriminator 1 view .LVU406
 342:Core/Src/drive.c ****         if (clear_cnt >= CLEAR_CONFIRM &&
 1484              		.loc 1 342 39 is_stmt 0 discriminator 1 view .LVU407
 1485 00ae 0133     		adds	r3, r3, #1
 1486 00b0 3B4A     		ldr	r2, .L126+20
 1487 00b2 1370     		strb	r3, [r2]
 1488              	.L115:
 343:Core/Src/drive.c ****             (!in->imu_live || fabsf(wrap180(in->heading - h_entry)) >= TURN_MIN_DEG))
 1489              		.loc 1 343 9 is_stmt 1 view .LVU408
 343:Core/Src/drive.c ****             (!in->imu_live || fabsf(wrap180(in->heading - h_entry)) >= TURN_MIN_DEG))
 1490              		.loc 1 343 23 is_stmt 0 view .LVU409
 1491 00b4 3A4B     		ldr	r3, .L126+20
 1492 00b6 1B78     		ldrb	r3, [r3]	@ zero_extendqisi2
 343:Core/Src/drive.c ****             (!in->imu_live || fabsf(wrap180(in->heading - h_entry)) >= TURN_MIN_DEG))
 1493              		.loc 1 343 12 view .LVU410
 1494 00b8 022B     		cmp	r3, #2
 1495 00ba 57D9     		bls	.L116
 343:Core/Src/drive.c ****             (!in->imu_live || fabsf(wrap180(in->heading - h_entry)) >= TURN_MIN_DEG))
 1496              		.loc 1 343 40 discriminator 1 view .LVU411
 1497 00bc 8DB1     		cbz	r5, .L117
 344:Core/Src/drive.c ****         {
 1498              		.loc 1 344 47 view .LVU412
 1499 00be 94ED020A 		vldr.32	s0, [r4, #8]
 344:Core/Src/drive.c ****         {
 1500              		.loc 1 344 37 view .LVU413
 1501 00c2 354B     		ldr	r3, .L126+12
 1502 00c4 D3ED007A 		vldr.32	s15, [r3]
 1503 00c8 30EE670A 		vsub.f32	s0, s0, s15
 1504 00cc FFF7FEFF 		bl	wrap180
 1505              	.LVL122:
 344:Core/Src/drive.c ****         {
 1506              		.loc 1 344 31 discriminator 1 view .LVU414
 1507 00d0 B0EEC00A 		vabs.f32	s0, s0
 344:Core/Src/drive.c ****         {
ARM GAS  C:\Users\user\AppData\Local\Temp\ccy8zY0Q.s 			page 39


 1508              		.loc 1 344 28 discriminator 1 view .LVU415
 1509 00d4 F3EE097A 		vmov.f32	s15, #2.5e+1
 1510 00d8 B4EEE70A 		vcmpe.f32	s0, s15
 1511 00dc F1EE10FA 		vmrs	APSR_nzcv, FPSCR
 1512 00e0 44DB     		blt	.L116
 1513              	.L117:
 346:Core/Src/drive.c ****             return;
 1514              		.loc 1 346 13 is_stmt 1 view .LVU416
 1515 00e2 2046     		mov	r0, r4
 1516 00e4 FFF7FEFF 		bl	cruise_enter
 1517              	.LVL123:
 347:Core/Src/drive.c ****         }
 1518              		.loc 1 347 13 view .LVU417
 1519 00e8 47E0     		b	.L101
 1520              	.LVL124:
 1521              	.L122:
 293:Core/Src/drive.c ****         return;
 1522              		.loc 1 293 9 view .LVU418
 1523 00ea FFF7FEFF 		bl	reverse_enter
 1524              	.LVL125:
 294:Core/Src/drive.c ****     }
 1525              		.loc 1 294 9 view .LVU419
 1526 00ee 44E0     		b	.L101
 1527              	.LVL126:
 1528              	.L123:
 299:Core/Src/drive.c **** 
 1529              		.loc 1 299 9 view .LVU420
 299:Core/Src/drive.c **** 
 1530              		.loc 1 299 34 is_stmt 0 view .LVU421
 1531 00f0 94ED028A 		vldr.32	s16, [r4, #8]
 299:Core/Src/drive.c **** 
 1532              		.loc 1 299 24 view .LVU422
 1533 00f4 284B     		ldr	r3, .L126+12
 1534 00f6 93ED000A 		vldr.32	s0, [r3]
 1535 00fa 38EE400A 		vsub.f32	s0, s16, s0
 1536 00fe FFF7FEFF 		bl	wrap180
 1537              	.LVL127:
 299:Core/Src/drive.c **** 
 1538              		.loc 1 299 22 discriminator 1 view .LVU423
 1539 0102 284B     		ldr	r3, .L126+24
 1540 0104 83ED000A 		vstr.32	s0, [r3]
 302:Core/Src/drive.c ****         {
 1541              		.loc 1 302 9 is_stmt 1 view .LVU424
 302:Core/Src/drive.c ****         {
 1542              		.loc 1 302 16 is_stmt 0 view .LVU425
 1543 0108 2669     		ldr	r6, [r4, #16]
 302:Core/Src/drive.c ****         {
 1544              		.loc 1 302 22 view .LVU426
 1545 010a 274B     		ldr	r3, .L126+28
 1546 010c 1B68     		ldr	r3, [r3]
 1547 010e F31A     		subs	r3, r6, r3
 302:Core/Src/drive.c ****         {
 1548              		.loc 1 302 12 view .LVU427
 1549 0110 B3F5C87F 		cmp	r3, #400
 1550 0114 88D3     		bcc	.L104
 304:Core/Src/drive.c ****                 && rev_cnt < REV_MAX_CHUNKS)
 1551              		.loc 1 304 13 is_stmt 1 view .LVU428
ARM GAS  C:\Users\user\AppData\Local\Temp\ccy8zY0Q.s 			page 40


 304:Core/Src/drive.c ****                 && rev_cnt < REV_MAX_CHUNKS)
 1552              		.loc 1 304 23 is_stmt 0 view .LVU429
 1553 0116 254B     		ldr	r3, .L126+32
 1554 0118 93ED000A 		vldr.32	s0, [r3]
 1555 011c 38EE400A 		vsub.f32	s0, s16, s0
 1556 0120 FFF7FEFF 		bl	wrap180
 1557              	.LVL128:
 304:Core/Src/drive.c ****                 && rev_cnt < REV_MAX_CHUNKS)
 1558              		.loc 1 304 17 discriminator 1 view .LVU430
 1559 0124 B0EEC00A 		vabs.f32	s0, s0
 304:Core/Src/drive.c ****                 && rev_cnt < REV_MAX_CHUNKS)
 1560              		.loc 1 304 16 discriminator 1 view .LVU431
 1561 0128 F2EE007A 		vmov.f32	s15, #8.0e+0
 1562 012c B4EEE70A 		vcmpe.f32	s0, s15
 1563 0130 F1EE10FA 		vmrs	APSR_nzcv, FPSCR
 1564 0134 03D5     		bpl	.L105
 305:Core/Src/drive.c ****             {
 1565              		.loc 1 305 28 view .LVU432
 1566 0136 154B     		ldr	r3, .L126
 1567 0138 1B78     		ldrb	r3, [r3]	@ zero_extendqisi2
 305:Core/Src/drive.c ****             {
 1568              		.loc 1 305 17 view .LVU433
 1569 013a 022B     		cmp	r3, #2
 1570 013c 05D9     		bls	.L125
 1571              	.L105:
 310:Core/Src/drive.c ****             t_stuck = in->now;
 1572              		.loc 1 310 13 is_stmt 1 view .LVU434
 310:Core/Src/drive.c ****             t_stuck = in->now;
 1573              		.loc 1 310 21 is_stmt 0 view .LVU435
 1574 013e 1B4B     		ldr	r3, .L126+32
 1575 0140 83ED008A 		vstr.32	s16, [r3]
 311:Core/Src/drive.c ****         }
 1576              		.loc 1 311 13 is_stmt 1 view .LVU436
 311:Core/Src/drive.c ****         }
 1577              		.loc 1 311 21 is_stmt 0 view .LVU437
 1578 0144 184B     		ldr	r3, .L126+28
 1579 0146 1E60     		str	r6, [r3]
 1580 0148 6EE7     		b	.L104
 1581              	.L125:
 307:Core/Src/drive.c ****                 return;
 1582              		.loc 1 307 17 is_stmt 1 view .LVU438
 1583 014a 2046     		mov	r0, r4
 1584 014c FFF7FEFF 		bl	reverse_enter
 1585              	.LVL129:
 308:Core/Src/drive.c ****             }
 1586              		.loc 1 308 17 view .LVU439
 1587 0150 13E0     		b	.L101
 1588              	.L124:
 318:Core/Src/drive.c ****         turn_dir ^= 1;
 1589              		.loc 1 318 41 discriminator 1 view .LVU440
 1590 0152 2046     		mov	r0, r4
 1591 0154 FFF7FEFF 		bl	reverse_enter
 1592              	.LVL130:
 318:Core/Src/drive.c ****         turn_dir ^= 1;
 1593              		.loc 1 318 60 discriminator 1 view .LVU441
 318:Core/Src/drive.c ****         turn_dir ^= 1;
 1594              		.loc 1 318 60 is_stmt 0 view .LVU442
ARM GAS  C:\Users\user\AppData\Local\Temp\ccy8zY0Q.s 			page 41


 1595 0158 0FE0     		b	.L101
 1596              	.L110:
 1597              	.LBB8:
 327:Core/Src/drive.c ****         uint16_t other   = (turn_dir == 0) ? in->r : in->l;
 1598              		.loc 1 327 18 discriminator 2 view .LVU443
 1599 015a A188     		ldrh	r1, [r4, #4]
 1600 015c 88E7     		b	.L111
 1601              	.LVL131:
 1602              	.L112:
 328:Core/Src/drive.c ****         if (latched < SIDE_BLOCK_CM && other > (uint16_t)(latched + SIDE_HYST))
 1603              		.loc 1 328 18 discriminator 2 view .LVU444
 1604 015e 6688     		ldrh	r6, [r4, #2]
 1605 0160 89E7     		b	.L113
 1606              	.LVL132:
 1607              	.L114:
 328:Core/Src/drive.c ****         if (latched < SIDE_BLOCK_CM && other > (uint16_t)(latched + SIDE_HYST))
 1608              		.loc 1 328 18 discriminator 2 view .LVU445
 1609              	.LBE8:
 350:Core/Src/drive.c ****     {
 1610              		.loc 1 350 10 is_stmt 1 view .LVU446
 350:Core/Src/drive.c ****     {
 1611              		.loc 1 350 13 is_stmt 0 view .LVU447
 1612 0162 252B     		cmp	r3, #37
 1613 0164 02D8     		bhi	.L116
 352:Core/Src/drive.c ****     }
 1614              		.loc 1 352 9 is_stmt 1 view .LVU448
 352:Core/Src/drive.c ****     }
 1615              		.loc 1 352 19 is_stmt 0 view .LVU449
 1616 0166 0E4B     		ldr	r3, .L126+20
 1617 0168 0022     		movs	r2, #0
 1618 016a 1A70     		strb	r2, [r3]
 1619              	.L116:
 356:Core/Src/drive.c ****     else               Car_PivotRight(TURN_SPEED, TURN_INNER);
 1620              		.loc 1 356 5 is_stmt 1 view .LVU450
 356:Core/Src/drive.c ****     else               Car_PivotRight(TURN_SPEED, TURN_INNER);
 1621              		.loc 1 356 18 is_stmt 0 view .LVU451
 1622 016c 094B     		ldr	r3, .L126+8
 1623 016e 1B78     		ldrb	r3, [r3]	@ zero_extendqisi2
 356:Core/Src/drive.c ****     else               Car_PivotRight(TURN_SPEED, TURN_INNER);
 1624              		.loc 1 356 8 view .LVU452
 1625 0170 33B9     		cbnz	r3, .L119
 356:Core/Src/drive.c ****     else               Car_PivotRight(TURN_SPEED, TURN_INNER);
 1626              		.loc 1 356 24 is_stmt 1 discriminator 1 view .LVU453
 1627 0172 1E21     		movs	r1, #30
 1628 0174 2820     		movs	r0, #40
 1629 0176 FFF7FEFF 		bl	Car_PivotLeft
 1630              	.LVL133:
 1631              	.L101:
 358:Core/Src/drive.c **** 
 1632              		.loc 1 358 1 is_stmt 0 view .LVU454
 1633 017a BDEC028B 		vldm	sp!, {d8}
 1634              	.LCFI18:
 1635              		.cfi_remember_state
 1636              		.cfi_restore 80
 1637              		.cfi_restore 81
 1638              		.cfi_def_cfa_offset 16
 1639 017e 70BD     		pop	{r4, r5, r6, pc}
ARM GAS  C:\Users\user\AppData\Local\Temp\ccy8zY0Q.s 			page 42


 1640              	.LVL134:
 1641              	.L119:
 1642              	.LCFI19:
 1643              		.cfi_restore_state
 357:Core/Src/drive.c **** }
 1644              		.loc 1 357 24 is_stmt 1 view .LVU455
 1645 0180 1E21     		movs	r1, #30
 1646 0182 2820     		movs	r0, #40
 1647 0184 FFF7FEFF 		bl	Car_PivotRight
 1648              	.LVL135:
 1649 0188 F7E7     		b	.L101
 1650              	.L127:
 1651 018a 00BF     		.align	2
 1652              	.L126:
 1653 018c 00000000 		.word	rev_cnt
 1654 0190 00000000 		.word	t_state
 1655 0194 00000000 		.word	turn_dir
 1656 0198 00000000 		.word	h_entry
 1657 019c 00000000 		.word	swap_cnt
 1658 01a0 00000000 		.word	clear_cnt
 1659 01a4 00000000 		.word	dbg_spin_deg
 1660 01a8 00000000 		.word	t_stuck
 1661 01ac 00000000 		.word	h_stuck
 1662              		.cfi_endproc
 1663              	.LFE148:
 1665              		.section	.text.side_avoid_run,"ax",%progbits
 1666              		.align	1
 1667              		.syntax unified
 1668              		.thumb
 1669              		.thumb_func
 1671              	side_avoid_run:
 1672              	.LVL136:
 1673              	.LFB151:
 387:Core/Src/drive.c **** 
 388:Core/Src/drive.c **** /* SIDE_AVOID: мёЎлІҪ л°•кё°м§Ғм „ л№„мғҒ нҡҢн”ј. л°•нһҢ мӘҪ л°ҳлҢҖлЎң м ңмһҗлҰ¬ н”јлІ—н•ҳл©° мёЎл©
 389:Core/Src/drive.c **** static void side_avoid_run(const DriveInputs *in)
 390:Core/Src/drive.c **** {
 1674              		.loc 1 390 1 view -0
 1675              		.cfi_startproc
 1676              		@ args = 0, pretend = 0, frame = 0
 1677              		@ frame_needed = 0, uses_anonymous_args = 0
 1678              		.loc 1 390 1 is_stmt 0 view .LVU457
 1679 0000 08B5     		push	{r3, lr}
 1680              	.LCFI20:
 1681              		.cfi_def_cfa_offset 8
 1682              		.cfi_offset 3, -8
 1683              		.cfi_offset 14, -4
 391:Core/Src/drive.c ****     /* м •л©ҙ мң„кёү мҡ°м„  вҖ” мёЎл©ҙ н”јн•ҳлӢӨ м •л©ҙ л°•лҠ” кІғ л°©м§Җ */
 392:Core/Src/drive.c ****     if (in->f < FRONT_STOP_CM) { brake_enter(in); return; }
 1684              		.loc 1 392 5 is_stmt 1 view .LVU458
 1685              		.loc 1 392 11 is_stmt 0 view .LVU459
 1686 0002 0388     		ldrh	r3, [r0]
 1687              		.loc 1 392 8 view .LVU460
 1688 0004 132B     		cmp	r3, #19
 1689 0006 1CD9     		bls	.L135
 393:Core/Src/drive.c **** 
 394:Core/Src/drive.c ****     /* мёЎл©ҙ нҠёмһ„(нһҲмҠӨн…ҢлҰ¬мӢңмҠӨ) вҶ’ CRUISE ліөк·Җ. cruise_enterк°Җ h_ref к°ұмӢ  = мғҲ м§„н
ARM GAS  C:\Users\user\AppData\Local\Temp\ccy8zY0Q.s 			page 43


 395:Core/Src/drive.c ****     uint16_t smin = (in->l < in->r) ? in->l : in->r;
 1690              		.loc 1 395 5 is_stmt 1 view .LVU461
 1691              		.loc 1 395 32 is_stmt 0 view .LVU462
 1692 0008 8388     		ldrh	r3, [r0, #4]
 1693              		.loc 1 395 24 view .LVU463
 1694 000a 4288     		ldrh	r2, [r0, #2]
 1695              		.loc 1 395 14 view .LVU464
 1696 000c 9342     		cmp	r3, r2
 1697 000e 28BF     		it	cs
 1698 0010 1346     		movcs	r3, r2
 1699              	.LVL137:
 396:Core/Src/drive.c ****     if (smin >= SIDE_AVOID_CLEAR_CM) { cruise_enter(in); return; }
 1700              		.loc 1 396 5 is_stmt 1 view .LVU465
 1701              		.loc 1 396 8 is_stmt 0 view .LVU466
 1702 0012 072B     		cmp	r3, #7
 1703 0014 18D8     		bhi	.L136
 397:Core/Src/drive.c **** 
 398:Core/Src/drive.c ****     /* н•ң л°©н–ҘмңјлЎң лӘ» л№ м§Җл©ҙ л°©н–Ҙ flip нӣ„ мһ¬мӢңлҸ„ (м–‘мӘҪ мўҒмқҖ лҒјмһ„ л°ұмҠӨнҶұ) */
 399:Core/Src/drive.c ****     if ((in->now - t_state) > (uint32_t)SIDE_AVOID_MAX_MS)
 1704              		.loc 1 399 5 is_stmt 1 view .LVU467
 1705              		.loc 1 399 12 is_stmt 0 view .LVU468
 1706 0016 0269     		ldr	r2, [r0, #16]
 1707              		.loc 1 399 18 view .LVU469
 1708 0018 0F4B     		ldr	r3, .L137
 1709              	.LVL138:
 1710              		.loc 1 399 18 view .LVU470
 1711 001a 1B68     		ldr	r3, [r3]
 1712 001c D31A     		subs	r3, r2, r3
 1713              		.loc 1 399 8 view .LVU471
 1714 001e B3F5167F 		cmp	r3, #600
 1715 0022 06D9     		bls	.L132
 400:Core/Src/drive.c ****     {
 401:Core/Src/drive.c ****         turn_dir ^= 1;
 1716              		.loc 1 401 9 is_stmt 1 view .LVU472
 1717              		.loc 1 401 18 is_stmt 0 view .LVU473
 1718 0024 0D49     		ldr	r1, .L137+4
 1719 0026 0B78     		ldrb	r3, [r1]	@ zero_extendqisi2
 1720 0028 83F00103 		eor	r3, r3, #1
 1721 002c 0B70     		strb	r3, [r1]
 402:Core/Src/drive.c ****         t_state = in->now;
 1722              		.loc 1 402 9 is_stmt 1 view .LVU474
 1723              		.loc 1 402 17 is_stmt 0 view .LVU475
 1724 002e 0A4B     		ldr	r3, .L137
 1725 0030 1A60     		str	r2, [r3]
 1726              	.L132:
 403:Core/Src/drive.c ****     }
 404:Core/Src/drive.c **** 
 405:Core/Src/drive.c ****     /* л°•нһҢ мӘҪ л°ҳлҢҖлЎң м ңмһҗлҰ¬ н”јлІ— (м „м§„ 0 вҖ” 'л©Ҳм¶”кі  л°©н–Ҙ мһЎкё°') */
 406:Core/Src/drive.c ****     if (turn_dir == 0) Car_PivotLeft(TURN_SPEED, TURN_INNER);
 1727              		.loc 1 406 5 is_stmt 1 view .LVU476
 1728              		.loc 1 406 18 is_stmt 0 view .LVU477
 1729 0032 0A4B     		ldr	r3, .L137+4
 1730 0034 1B78     		ldrb	r3, [r3]	@ zero_extendqisi2
 1731              		.loc 1 406 8 view .LVU478
 1732 0036 53B9     		cbnz	r3, .L133
 1733              		.loc 1 406 24 is_stmt 1 discriminator 1 view .LVU479
 1734 0038 1E21     		movs	r1, #30
ARM GAS  C:\Users\user\AppData\Local\Temp\ccy8zY0Q.s 			page 44


 1735 003a 2820     		movs	r0, #40
 1736              	.LVL139:
 1737              		.loc 1 406 24 is_stmt 0 discriminator 1 view .LVU480
 1738 003c FFF7FEFF 		bl	Car_PivotLeft
 1739              	.LVL140:
 1740              	.L128:
 407:Core/Src/drive.c ****     else               Car_PivotRight(TURN_SPEED, TURN_INNER);
 408:Core/Src/drive.c **** }
 1741              		.loc 1 408 1 view .LVU481
 1742 0040 08BD     		pop	{r3, pc}
 1743              	.LVL141:
 1744              	.L135:
 392:Core/Src/drive.c **** 
 1745              		.loc 1 392 34 is_stmt 1 discriminator 1 view .LVU482
 1746 0042 FFF7FEFF 		bl	brake_enter
 1747              	.LVL142:
 392:Core/Src/drive.c **** 
 1748              		.loc 1 392 51 discriminator 1 view .LVU483
 392:Core/Src/drive.c **** 
 1749              		.loc 1 392 51 is_stmt 0 view .LVU484
 1750 0046 FBE7     		b	.L128
 1751              	.LVL143:
 1752              	.L136:
 396:Core/Src/drive.c **** 
 1753              		.loc 1 396 40 is_stmt 1 discriminator 1 view .LVU485
 1754 0048 FFF7FEFF 		bl	cruise_enter
 1755              	.LVL144:
 396:Core/Src/drive.c **** 
 1756              		.loc 1 396 58 discriminator 1 view .LVU486
 396:Core/Src/drive.c **** 
 1757              		.loc 1 396 58 is_stmt 0 view .LVU487
 1758 004c F8E7     		b	.L128
 1759              	.LVL145:
 1760              	.L133:
 407:Core/Src/drive.c ****     else               Car_PivotRight(TURN_SPEED, TURN_INNER);
 1761              		.loc 1 407 24 is_stmt 1 view .LVU488
 1762 004e 1E21     		movs	r1, #30
 1763 0050 2820     		movs	r0, #40
 1764              	.LVL146:
 407:Core/Src/drive.c ****     else               Car_PivotRight(TURN_SPEED, TURN_INNER);
 1765              		.loc 1 407 24 is_stmt 0 view .LVU489
 1766 0052 FFF7FEFF 		bl	Car_PivotRight
 1767              	.LVL147:
 407:Core/Src/drive.c ****     else               Car_PivotRight(TURN_SPEED, TURN_INNER);
 1768              		.loc 1 407 24 view .LVU490
 1769 0056 F3E7     		b	.L128
 1770              	.L138:
 1771              		.align	2
 1772              	.L137:
 1773 0058 00000000 		.word	t_state
 1774 005c 00000000 		.word	turn_dir
 1775              		.cfi_endproc
 1776              	.LFE151:
 1778              		.section	.text.Drive_Init,"ax",%progbits
 1779              		.align	1
 1780              		.global	Drive_Init
 1781              		.syntax unified
ARM GAS  C:\Users\user\AppData\Local\Temp\ccy8zY0Q.s 			page 45


 1782              		.thumb
 1783              		.thumb_func
 1785              	Drive_Init:
 1786              	.LFB152:
 409:Core/Src/drive.c **** 
 410:Core/Src/drive.c **** /* ---- кіөк°ң API ---- */
 411:Core/Src/drive.c **** 
 412:Core/Src/drive.c **** void Drive_Init(void)
 413:Core/Src/drive.c **** {
 1787              		.loc 1 413 1 is_stmt 1 view -0
 1788              		.cfi_startproc
 1789              		@ args = 0, pretend = 0, frame = 0
 1790              		@ frame_needed = 0, uses_anonymous_args = 0
 1791              		@ link register save eliminated.
 414:Core/Src/drive.c ****     st         = DS_CRUISE;
 1792              		.loc 1 414 5 view .LVU492
 1793              		.loc 1 414 16 is_stmt 0 view .LVU493
 1794 0000 0023     		movs	r3, #0
 1795 0002 094A     		ldr	r2, .L140
 1796 0004 1370     		strb	r3, [r2]
 415:Core/Src/drive.c ****     t_state    = 0;
 1797              		.loc 1 415 5 is_stmt 1 view .LVU494
 1798              		.loc 1 415 16 is_stmt 0 view .LVU495
 1799 0006 094A     		ldr	r2, .L140+4
 1800 0008 1360     		str	r3, [r2]
 416:Core/Src/drive.c ****     turn_dir   = 0;
 1801              		.loc 1 416 5 is_stmt 1 view .LVU496
 1802              		.loc 1 416 16 is_stmt 0 view .LVU497
 1803 000a 094A     		ldr	r2, .L140+8
 1804 000c 1370     		strb	r3, [r2]
 417:Core/Src/drive.c ****     swap_cnt   = 0;
 1805              		.loc 1 417 5 is_stmt 1 view .LVU498
 1806              		.loc 1 417 16 is_stmt 0 view .LVU499
 1807 000e 094A     		ldr	r2, .L140+12
 1808 0010 1370     		strb	r3, [r2]
 418:Core/Src/drive.c ****     rev_cnt    = 0;
 1809              		.loc 1 418 5 is_stmt 1 view .LVU500
 1810              		.loc 1 418 16 is_stmt 0 view .LVU501
 1811 0012 094A     		ldr	r2, .L140+16
 1812 0014 1370     		strb	r3, [r2]
 419:Core/Src/drive.c ****     clear_cnt  = 0;
 1813              		.loc 1 419 5 is_stmt 1 view .LVU502
 1814              		.loc 1 419 16 is_stmt 0 view .LVU503
 1815 0016 094A     		ldr	r2, .L140+20
 1816 0018 1370     		strb	r3, [r2]
 420:Core/Src/drive.c ****     steer_u    = 0.0f;
 1817              		.loc 1 420 5 is_stmt 1 view .LVU504
 1818              		.loc 1 420 16 is_stmt 0 view .LVU505
 1819 001a 094B     		ldr	r3, .L140+24
 1820 001c 0022     		movs	r2, #0
 1821 001e 1A60     		str	r2, [r3]	@ float
 421:Core/Src/drive.c ****     steer_mode = SM_INIT;
 1822              		.loc 1 421 5 is_stmt 1 view .LVU506
 1823              		.loc 1 421 16 is_stmt 0 view .LVU507
 1824 0020 084B     		ldr	r3, .L140+28
 1825 0022 FF22     		movs	r2, #255
 1826 0024 1A70     		strb	r2, [r3]
ARM GAS  C:\Users\user\AppData\Local\Temp\ccy8zY0Q.s 			page 46


 422:Core/Src/drive.c **** }
 1827              		.loc 1 422 1 view .LVU508
 1828 0026 7047     		bx	lr
 1829              	.L141:
 1830              		.align	2
 1831              	.L140:
 1832 0028 00000000 		.word	st
 1833 002c 00000000 		.word	t_state
 1834 0030 00000000 		.word	turn_dir
 1835 0034 00000000 		.word	swap_cnt
 1836 0038 00000000 		.word	rev_cnt
 1837 003c 00000000 		.word	clear_cnt
 1838 0040 00000000 		.word	steer_u
 1839 0044 00000000 		.word	steer_mode
 1840              		.cfi_endproc
 1841              	.LFE152:
 1843              		.section	.text.Drive_Update,"ax",%progbits
 1844              		.align	1
 1845              		.global	Drive_Update
 1846              		.syntax unified
 1847              		.thumb
 1848              		.thumb_func
 1850              	Drive_Update:
 1851              	.LVL148:
 1852              	.LFB153:
 423:Core/Src/drive.c **** 
 424:Core/Src/drive.c **** void Drive_Update(const DriveInputs *in)
 425:Core/Src/drive.c **** {
 1853              		.loc 1 425 1 is_stmt 1 view -0
 1854              		.cfi_startproc
 1855              		@ args = 0, pretend = 0, frame = 0
 1856              		@ frame_needed = 0, uses_anonymous_args = 0
 1857              		.loc 1 425 1 is_stmt 0 view .LVU510
 1858 0000 08B5     		push	{r3, lr}
 1859              	.LCFI21:
 1860              		.cfi_def_cfa_offset 8
 1861              		.cfi_offset 3, -8
 1862              		.cfi_offset 14, -4
 426:Core/Src/drive.c ****     switch (st)
 1863              		.loc 1 426 5 is_stmt 1 view .LVU511
 1864 0002 174B     		ldr	r3, .L153
 1865 0004 1B78     		ldrb	r3, [r3]	@ zero_extendqisi2
 1866 0006 052B     		cmp	r3, #5
 1867 0008 23D8     		bhi	.L143
 1868 000a DFE803F0 		tbb	[pc, r3]
 1869              	.L145:
 1870 000e 03       		.byte	(.L150-.L145)/2
 1871 000f 13       		.byte	(.L149-.L145)/2
 1872 0010 16       		.byte	(.L148-.L145)/2
 1873 0011 19       		.byte	(.L147-.L145)/2
 1874 0012 1C       		.byte	(.L146-.L145)/2
 1875 0013 1F       		.byte	(.L144-.L145)/2
 1876              		.p2align 1
 1877              	.L150:
 427:Core/Src/drive.c ****     {
 428:Core/Src/drive.c ****     case DS_CRUISE:  cruise_run(in);  break;
 1878              		.loc 1 428 22 view .LVU512
ARM GAS  C:\Users\user\AppData\Local\Temp\ccy8zY0Q.s 			page 47


 1879 0014 FFF7FEFF 		bl	cruise_run
 1880              	.LVL149:
 1881              		.loc 1 428 39 discriminator 1 view .LVU513
 1882              	.L151:
 429:Core/Src/drive.c ****     case DS_BRAKE:   brake_run(in);   break;
 430:Core/Src/drive.c ****     case DS_SPIN:    spin_run(in);    break;
 431:Core/Src/drive.c ****     case DS_REVERSE: reverse_run(in); break;
 432:Core/Src/drive.c ****     case DS_HOLD:    hold_run(in);    break;
 433:Core/Src/drive.c ****     case DS_SIDE_AVOID: side_avoid_run(in); break;
 434:Core/Src/drive.c ****     default:         Car_Stop(); st = DS_CRUISE; break;
 435:Core/Src/drive.c ****     }
 436:Core/Src/drive.c ****     dbg_state    = (uint8_t)st;
 1883              		.loc 1 436 5 view .LVU514
 1884              		.loc 1 436 18 is_stmt 0 view .LVU515
 1885 0018 114B     		ldr	r3, .L153
 1886 001a 1B78     		ldrb	r3, [r3]	@ zero_extendqisi2
 1887 001c DBB2     		uxtb	r3, r3
 1888 001e 114A     		ldr	r2, .L153+4
 1889 0020 1370     		strb	r3, [r2]
 437:Core/Src/drive.c ****     dbg_turn_dir = turn_dir;
 1890              		.loc 1 437 5 is_stmt 1 view .LVU516
 1891              		.loc 1 437 18 is_stmt 0 view .LVU517
 1892 0022 114B     		ldr	r3, .L153+8
 1893 0024 1A78     		ldrb	r2, [r3]	@ zero_extendqisi2
 1894 0026 114B     		ldr	r3, .L153+12
 1895 0028 1A70     		strb	r2, [r3]
 438:Core/Src/drive.c ****     dbg_rev_cnt  = rev_cnt;
 1896              		.loc 1 438 5 is_stmt 1 view .LVU518
 1897              		.loc 1 438 18 is_stmt 0 view .LVU519
 1898 002a 114B     		ldr	r3, .L153+16
 1899 002c 1A78     		ldrb	r2, [r3]	@ zero_extendqisi2
 1900 002e 114B     		ldr	r3, .L153+20
 1901 0030 1A70     		strb	r2, [r3]
 439:Core/Src/drive.c **** }
 1902              		.loc 1 439 1 view .LVU520
 1903 0032 08BD     		pop	{r3, pc}
 1904              	.LVL150:
 1905              	.L149:
 429:Core/Src/drive.c ****     case DS_SPIN:    spin_run(in);    break;
 1906              		.loc 1 429 22 is_stmt 1 view .LVU521
 1907 0034 FFF7FEFF 		bl	brake_run
 1908              	.LVL151:
 429:Core/Src/drive.c ****     case DS_SPIN:    spin_run(in);    break;
 1909              		.loc 1 429 39 discriminator 1 view .LVU522
 429:Core/Src/drive.c ****     case DS_SPIN:    spin_run(in);    break;
 1910              		.loc 1 429 39 is_stmt 0 view .LVU523
 1911 0038 EEE7     		b	.L151
 1912              	.LVL152:
 1913              	.L148:
 430:Core/Src/drive.c ****     case DS_REVERSE: reverse_run(in); break;
 1914              		.loc 1 430 22 is_stmt 1 view .LVU524
 1915 003a FFF7FEFF 		bl	spin_run
 1916              	.LVL153:
 430:Core/Src/drive.c ****     case DS_REVERSE: reverse_run(in); break;
 1917              		.loc 1 430 39 discriminator 1 view .LVU525
 430:Core/Src/drive.c ****     case DS_REVERSE: reverse_run(in); break;
 1918              		.loc 1 430 39 is_stmt 0 view .LVU526
ARM GAS  C:\Users\user\AppData\Local\Temp\ccy8zY0Q.s 			page 48


 1919 003e EBE7     		b	.L151
 1920              	.LVL154:
 1921              	.L147:
 431:Core/Src/drive.c ****     case DS_HOLD:    hold_run(in);    break;
 1922              		.loc 1 431 22 is_stmt 1 view .LVU527
 1923 0040 FFF7FEFF 		bl	reverse_run
 1924              	.LVL155:
 431:Core/Src/drive.c ****     case DS_HOLD:    hold_run(in);    break;
 1925              		.loc 1 431 39 discriminator 1 view .LVU528
 431:Core/Src/drive.c ****     case DS_HOLD:    hold_run(in);    break;
 1926              		.loc 1 431 39 is_stmt 0 view .LVU529
 1927 0044 E8E7     		b	.L151
 1928              	.LVL156:
 1929              	.L146:
 432:Core/Src/drive.c ****     case DS_SIDE_AVOID: side_avoid_run(in); break;
 1930              		.loc 1 432 22 is_stmt 1 view .LVU530
 1931 0046 FFF7FEFF 		bl	hold_run
 1932              	.LVL157:
 432:Core/Src/drive.c ****     case DS_SIDE_AVOID: side_avoid_run(in); break;
 1933              		.loc 1 432 39 discriminator 1 view .LVU531
 432:Core/Src/drive.c ****     case DS_SIDE_AVOID: side_avoid_run(in); break;
 1934              		.loc 1 432 39 is_stmt 0 view .LVU532
 1935 004a E5E7     		b	.L151
 1936              	.LVL158:
 1937              	.L144:
 433:Core/Src/drive.c ****     default:         Car_Stop(); st = DS_CRUISE; break;
 1938              		.loc 1 433 25 is_stmt 1 view .LVU533
 1939 004c FFF7FEFF 		bl	side_avoid_run
 1940              	.LVL159:
 433:Core/Src/drive.c ****     default:         Car_Stop(); st = DS_CRUISE; break;
 1941              		.loc 1 433 45 discriminator 1 view .LVU534
 433:Core/Src/drive.c ****     default:         Car_Stop(); st = DS_CRUISE; break;
 1942              		.loc 1 433 45 is_stmt 0 view .LVU535
 1943 0050 E2E7     		b	.L151
 1944              	.LVL160:
 1945              	.L143:
 434:Core/Src/drive.c ****     }
 1946              		.loc 1 434 22 is_stmt 1 view .LVU536
 1947 0052 FFF7FEFF 		bl	Car_Stop
 1948              	.LVL161:
 434:Core/Src/drive.c ****     }
 1949              		.loc 1 434 34 discriminator 1 view .LVU537
 434:Core/Src/drive.c ****     }
 1950              		.loc 1 434 37 is_stmt 0 discriminator 1 view .LVU538
 1951 0056 024B     		ldr	r3, .L153
 1952 0058 0022     		movs	r2, #0
 1953 005a 1A70     		strb	r2, [r3]
 434:Core/Src/drive.c ****     }
 1954              		.loc 1 434 50 is_stmt 1 discriminator 1 view .LVU539
 434:Core/Src/drive.c ****     }
 1955              		.loc 1 434 50 is_stmt 0 view .LVU540
 1956 005c DCE7     		b	.L151
 1957              	.L154:
 1958 005e 00BF     		.align	2
 1959              	.L153:
 1960 0060 00000000 		.word	st
 1961 0064 00000000 		.word	dbg_state
ARM GAS  C:\Users\user\AppData\Local\Temp\ccy8zY0Q.s 			page 49


 1962 0068 00000000 		.word	turn_dir
 1963 006c 00000000 		.word	dbg_turn_dir
 1964 0070 00000000 		.word	rev_cnt
 1965 0074 00000000 		.word	dbg_rev_cnt
 1966              		.cfi_endproc
 1967              	.LFE153:
 1969              		.section	.text.Drive_GetState,"ax",%progbits
 1970              		.align	1
 1971              		.global	Drive_GetState
 1972              		.syntax unified
 1973              		.thumb
 1974              		.thumb_func
 1976              	Drive_GetState:
 1977              	.LFB154:
 440:Core/Src/drive.c **** 
 441:Core/Src/drive.c **** DriveState Drive_GetState(void)
 442:Core/Src/drive.c **** {
 1978              		.loc 1 442 1 is_stmt 1 view -0
 1979              		.cfi_startproc
 1980              		@ args = 0, pretend = 0, frame = 0
 1981              		@ frame_needed = 0, uses_anonymous_args = 0
 1982              		@ link register save eliminated.
 443:Core/Src/drive.c ****     return st;
 1983              		.loc 1 443 5 view .LVU542
 1984              		.loc 1 443 12 is_stmt 0 view .LVU543
 1985 0000 014B     		ldr	r3, .L156
 1986 0002 1878     		ldrb	r0, [r3]	@ zero_extendqisi2
 444:Core/Src/drive.c **** }
 1987              		.loc 1 444 1 view .LVU544
 1988 0004 7047     		bx	lr
 1989              	.L157:
 1990 0006 00BF     		.align	2
 1991              	.L156:
 1992 0008 00000000 		.word	st
 1993              		.cfi_endproc
 1994              	.LFE154:
 1996              		.section	.bss.prev_ms.0,"aw",%nobits
 1997              		.align	2
 2000              	prev_ms.0:
 2001 0000 00000000 		.space	4
 2002              		.section	.bss.prev_error.1,"aw",%nobits
 2003              		.align	2
 2006              	prev_error.1:
 2007 0000 00000000 		.space	4
 2008              		.section	.bss.count.2,"aw",%nobits
 2011              	count.2:
 2012 0000 00       		.space	1
 2013              		.section	.bss.r_buf.3,"aw",%nobits
 2014              		.align	2
 2017              	r_buf.3:
 2018 0000 00000000 		.space	10
 2018      00000000 
 2018      0000
 2019              		.section	.bss.l_buf.4,"aw",%nobits
 2020              		.align	2
 2023              	l_buf.4:
 2024 0000 00000000 		.space	10
ARM GAS  C:\Users\user\AppData\Local\Temp\ccy8zY0Q.s 			page 50


 2024      00000000 
 2024      0000
 2025              		.section	.bss.idx.5,"aw",%nobits
 2028              	idx.5:
 2029 0000 00       		.space	1
 2030              		.section	.bss.t_prev,"aw",%nobits
 2031              		.align	2
 2034              	t_prev:
 2035 0000 00000000 		.space	4
 2036              		.section	.bss.h_prev,"aw",%nobits
 2037              		.align	2
 2040              	h_prev:
 2041 0000 00000000 		.space	4
 2042              		.section	.bss.steer_mode,"aw",%nobits
 2045              	steer_mode:
 2046 0000 00       		.space	1
 2047              		.section	.bss.steer_u,"aw",%nobits
 2048              		.align	2
 2051              	steer_u:
 2052 0000 00000000 		.space	4
 2053              		.section	.bss.t_stuck,"aw",%nobits
 2054              		.align	2
 2057              	t_stuck:
 2058 0000 00000000 		.space	4
 2059              		.section	.bss.h_stuck,"aw",%nobits
 2060              		.align	2
 2063              	h_stuck:
 2064 0000 00000000 		.space	4
 2065              		.section	.bss.h_ref,"aw",%nobits
 2066              		.align	2
 2069              	h_ref:
 2070 0000 00000000 		.space	4
 2071              		.section	.bss.h_entry,"aw",%nobits
 2072              		.align	2
 2075              	h_entry:
 2076 0000 00000000 		.space	4
 2077              		.section	.bss.clear_cnt,"aw",%nobits
 2080              	clear_cnt:
 2081 0000 00       		.space	1
 2082              		.section	.bss.rev_cnt,"aw",%nobits
 2085              	rev_cnt:
 2086 0000 00       		.space	1
 2087              		.section	.bss.swap_cnt,"aw",%nobits
 2090              	swap_cnt:
 2091 0000 00       		.space	1
 2092              		.section	.bss.turn_dir,"aw",%nobits
 2095              	turn_dir:
 2096 0000 00       		.space	1
 2097              		.section	.bss.t_state,"aw",%nobits
 2098              		.align	2
 2101              	t_state:
 2102 0000 00000000 		.space	4
 2103              		.section	.bss.st,"aw",%nobits
 2106              	st:
 2107 0000 00       		.space	1
 2108              		.global	dbg_rev_cnt
 2109              		.section	.bss.dbg_rev_cnt,"aw",%nobits
ARM GAS  C:\Users\user\AppData\Local\Temp\ccy8zY0Q.s 			page 51


 2112              	dbg_rev_cnt:
 2113 0000 00       		.space	1
 2114              		.global	dbg_turn_dir
 2115              		.section	.bss.dbg_turn_dir,"aw",%nobits
 2118              	dbg_turn_dir:
 2119 0000 00       		.space	1
 2120              		.global	dbg_spin_deg
 2121              		.section	.bss.dbg_spin_deg,"aw",%nobits
 2122              		.align	2
 2125              	dbg_spin_deg:
 2126 0000 00000000 		.space	4
 2127              		.global	dbg_yaw_rate
 2128              		.section	.bss.dbg_yaw_rate,"aw",%nobits
 2129              		.align	2
 2132              	dbg_yaw_rate:
 2133 0000 00000000 		.space	4
 2134              		.global	dbg_hdg_err
 2135              		.section	.bss.dbg_hdg_err,"aw",%nobits
 2136              		.align	2
 2139              	dbg_hdg_err:
 2140 0000 00000000 		.space	4
 2141              		.global	dbg_duty_r
 2142              		.section	.bss.dbg_duty_r,"aw",%nobits
 2143              		.align	1
 2146              	dbg_duty_r:
 2147 0000 0000     		.space	2
 2148              		.global	dbg_duty_l
 2149              		.section	.bss.dbg_duty_l,"aw",%nobits
 2150              		.align	1
 2153              	dbg_duty_l:
 2154 0000 0000     		.space	2
 2155              		.global	dbg_steer
 2156              		.section	.bss.dbg_steer,"aw",%nobits
 2157              		.align	2
 2160              	dbg_steer:
 2161 0000 00000000 		.space	4
 2162              		.global	dbg_steer_mode
 2163              		.section	.bss.dbg_steer_mode,"aw",%nobits
 2166              	dbg_steer_mode:
 2167 0000 00       		.space	1
 2168              		.global	dbg_state
 2169              		.section	.bss.dbg_state,"aw",%nobits
 2172              	dbg_state:
 2173 0000 00       		.space	1
 2174              		.text
 2175              	.Letext0:
 2176              		.file 2 "C:\\ST\\STM32CubeIDE_2.1.0\\STM32CubeIDE\\plugins\\com.st.stm32cube.ide.mcu.externaltools
 2177              		.file 3 "C:\\ST\\STM32CubeIDE_2.1.0\\STM32CubeIDE\\plugins\\com.st.stm32cube.ide.mcu.externaltools
 2178              		.file 4 "Core/Inc/drive.h"
 2179              		.file 5 "Core/Inc/motor.h"
ARM GAS  C:\Users\user\AppData\Local\Temp\ccy8zY0Q.s 			page 52

