ARM GAS  C:\Users\user\AppData\Local\Temp\ccDst2FA.s 			page 1


   1              		.cpu cortex-m4
   2              		.arch armv7e-m
   3              		.fpu fpv4-sp-d16
   4              		.eabi_attribute 27, 1
   5              		.eabi_attribute 28, 1
   6              		.eabi_attribute 20, 1
   7              		.eabi_attribute 21, 1
   8              		.eabi_attribute 23, 3
   9              		.eabi_attribute 24, 1
  10              		.eabi_attribute 25, 1
  11              		.eabi_attribute 26, 1
  12              		.eabi_attribute 30, 1
  13              		.eabi_attribute 34, 1
  14              		.eabi_attribute 18, 4
  15              		.file	"freertos.c"
  16              		.text
  17              	.Ltext0:
  18              		.cfi_sections	.debug_frame
  19              		.file 1 "Core/Src/freertos.c"
  20              		.section	.text.StartTask03,"ax",%progbits
  21              		.align	1
  22              		.global	StartTask03
  23              		.syntax unified
  24              		.thumb
  25              		.thumb_func
  27              	StartTask03:
  28              	.LFB141:
   1:Core/Src/freertos.c **** /* USER CODE BEGIN Header */
   2:Core/Src/freertos.c **** /**
   3:Core/Src/freertos.c ****   ******************************************************************************
   4:Core/Src/freertos.c ****   * File Name          : freertos.c
   5:Core/Src/freertos.c ****   * Description        : Code for freertos applications
   6:Core/Src/freertos.c ****   ******************************************************************************
   7:Core/Src/freertos.c ****   * @attention
   8:Core/Src/freertos.c ****   *
   9:Core/Src/freertos.c ****   * Copyright (c) 2026 STMicroelectronics.
  10:Core/Src/freertos.c ****   * All rights reserved.
  11:Core/Src/freertos.c ****   *
  12:Core/Src/freertos.c ****   * This software is licensed under terms that can be found in the LICENSE file
  13:Core/Src/freertos.c ****   * in the root directory of this software component.
  14:Core/Src/freertos.c ****   * If no LICENSE file comes with this software, it is provided AS-IS.
  15:Core/Src/freertos.c ****   *
  16:Core/Src/freertos.c ****   ******************************************************************************
  17:Core/Src/freertos.c ****   */
  18:Core/Src/freertos.c **** /* USER CODE END Header */
  19:Core/Src/freertos.c **** 
  20:Core/Src/freertos.c **** /* Includes ------------------------------------------------------------------*/
  21:Core/Src/freertos.c **** #include "FreeRTOS.h"
  22:Core/Src/freertos.c **** #include "task.h"
  23:Core/Src/freertos.c **** #include "main.h"
  24:Core/Src/freertos.c **** #include "cmsis_os.h"
  25:Core/Src/freertos.c **** 
  26:Core/Src/freertos.c **** /* Private includes ----------------------------------------------------------*/
  27:Core/Src/freertos.c **** /* USER CODE BEGIN Includes */
  28:Core/Src/freertos.c **** #include "iwdg.h"    /* hiwdg ‚ÄĒ MotorTaskÍįÄ ŪĀź žąėžč† žĄĪÍ≥Ķ žčúžóźŽßĆ refresh */
  29:Core/Src/freertos.c **** #include "motor.h"
  30:Core/Src/freertos.c **** #include "drive.h"   /* DriveInputs(ŪĀź Ž©ĒžčúžßÄ Í∑łŽĆÄŽ°ú žā¨žö©) + ŪäúŽčĚ ŽÖłŽłĆ */
ARM GAS  C:\Users\user\AppData\Local\Temp\ccDst2FA.s 			page 2


  31:Core/Src/freertos.c **** #include "bno055.h"
  32:Core/Src/freertos.c **** #include "ultra.h"
  33:Core/Src/freertos.c **** #include "usart.h"   /* huart1 ‚ÄĒ ŽłĒŽ£®Ūą¨žä§ 1ŽįĒžĚīŪäł IT žąėžč† */
  34:Core/Src/freertos.c **** /* USER CODE END Includes */
  35:Core/Src/freertos.c **** 
  36:Core/Src/freertos.c **** /* Private typedef -----------------------------------------------------------*/
  37:Core/Src/freertos.c **** /* USER CODE BEGIN PTD */
  38:Core/Src/freertos.c **** 
  39:Core/Src/freertos.c **** /* USER CODE END PTD */
  40:Core/Src/freertos.c **** 
  41:Core/Src/freertos.c **** /* Private define ------------------------------------------------------------*/
  42:Core/Src/freertos.c **** /* USER CODE BEGIN PD */
  43:Core/Src/freertos.c **** 
  44:Core/Src/freertos.c **** /* MotorTask ŪĀź žąėžč† timeout [ms]: ž†ēžÉĀ žĶúžēÖ žĄľžĄú žā¨žĚīŪĀī(front 25 + side 6+6 + IMU time
  45:Core/Src/freertos.c ****  * + Ž≥ĶÍĶ¨ ~1ms ‚Čą 60-70ms)žĚė žēĹ 2Žįį. žīąÍ≥ľ = žĄľžĄú ŪĆĆžĚīŪĒĄŽĚľžĚł žĻ®Ž¨Ķ ‚Üí Car_Stop + IW
  46:Core/Src/freertos.c ****  * ‚Üí 2.048s žßÄžÜć žčú žõĆžĻėŽŹÖ Ž¶¨žÖč (ÍĶ¨ žäąŪćľŽ£®ŪĒĄžĚė 'Ž£®ŪĒĄ Ž©ąž∂§=Ž¶¨žÖč' žĚėŽĮł Ž≥īž°ī
  47:Core/Src/freertos.c **** #define DRIVE_Q_TIMEOUT_MS  150U
  48:Core/Src/freertos.c **** 
  49:Core/Src/freertos.c **** /* USER CODE END PD */
  50:Core/Src/freertos.c **** 
  51:Core/Src/freertos.c **** /* Private macro -------------------------------------------------------------*/
  52:Core/Src/freertos.c **** /* USER CODE BEGIN PM */
  53:Core/Src/freertos.c **** 
  54:Core/Src/freertos.c **** /* USER CODE END PM */
  55:Core/Src/freertos.c **** 
  56:Core/Src/freertos.c **** /* Private variables ---------------------------------------------------------*/
  57:Core/Src/freertos.c **** /* USER CODE BEGIN Variables */
  58:Core/Src/freertos.c **** 
  59:Core/Src/freertos.c **** /* SensorTask ‚Üí MotorTask Žč®Žį©ŪĖ• Ž©ĒžĚľŽįēžä§ (DriveInputs Íįí Ž≥Ķžā¨ ‚ÄĒ Í≥Ķžú†Ž≥Äžąė/Žģ§ŪÖćž
  60:Core/Src/freertos.c ****  * depth 2: full Ž©ĒžčúžßÄ + žĄ†ž†úž†úŽŹô early Ž©ĒžčúžßÄ Í≥Ķž°īžö© */
  61:Core/Src/freertos.c **** static osMessageQueueId_t driveQ = NULL;
  62:Core/Src/freertos.c **** 
  63:Core/Src/freertos.c **** /* ---- ŽĒĒŽ≤ĄÍ∑ł ŽĮłŽü¨ (SWD Live Expressions ŽďĪŽ°Ě ŽĆÄžÉĀ ‚ÄĒ ÍĶ¨ main.cžóźžĄú žĚīŽŹô, žĚīŽ¶Ą Ž∂
  64:Core/Src/freertos.c **** volatile uint16_t dbg_front = 0, dbg_left = 0, dbg_right = 0;   /* ŪēĄŪĄį ŪõĄ ÍĪįŽ¶¨ cm */
  65:Core/Src/freertos.c **** volatile uint8_t  dbg_front_miss = 0;
  66:Core/Src/freertos.c **** volatile uint32_t dbg_loop_ms = 0;     /* žĄľžĄú žā¨žĚīŪĀī 1ŪöĆ žÜĆžöĒ(ms) ‚ÄĒ ŽįėžĚĎžßÄžóį Íįźžčú 
  67:Core/Src/freertos.c **** 
  68:Core/Src/freertos.c **** /* IMU(BNO055) ŽĮłŽü¨: heading/roll/pitch + žÉĀŪÉú */
  69:Core/Src/freertos.c **** volatile float    dbg_heading = 0.0f, dbg_roll = 0.0f, dbg_pitch = 0.0f;
  70:Core/Src/freertos.c **** volatile uint8_t  dbg_imu_ok = 0;      /* BNO055_Init žĄĪÍ≥Ķ=1 (main.c USER CODE 2žóźžĄú ÍłįŽ°Ě) */
  71:Core/Src/freertos.c **** volatile uint8_t  dbg_imu_live = 0;    /* žßÄÍłą IMU žĚĹÍłį žč†ŽĘį ÍįÄŽä•(žÉĚž°ī Í≤ĆžĚīŪäł) ‚ÄĒ 0žĚ
  72:Core/Src/freertos.c **** volatile uint8_t  dbg_imu_calib = 0;   /* CALIB_STAT: [7:6]sys [5:4]gyr [3:2]acc [1:0]mag(IMUŽ™®Žďú
  73:Core/Src/freertos.c **** volatile uint32_t dbg_imu_evt = 0;     /* INT(PA0/EXTI0) ŽįúžÉĚ žĻīžöīŪĄį */
  74:Core/Src/freertos.c **** 
  75:Core/Src/freertos.c **** /* ---- RTOS ÍįÄžčúžĄĪ ŽĮłŽü¨ (žč†Í∑ú) ---- */
  76:Core/Src/freertos.c **** volatile uint32_t dbg_q_drop    = 0;   /* ŪĀź put žč§ŪĆ®(ÍįÄŽďĚžįł) ŽąĄž†Ā ‚ÄĒ 0žĚīžĖīžēľ ž†ēžÉĀ */
  77:Core/Src/freertos.c **** volatile uint32_t dbg_q_timeout = 0;   /* MotorTask ŪĀź žąėžč† timeout ŽąĄž†Ā ‚ÄĒ žĄľžĄú ŪĆĆžĚīŪĒĄŽ
  78:Core/Src/freertos.c **** volatile uint32_t dbg_hw_sensor = 0;   /* SensorTask žä§ŪÉĚ high-water [words] ‚ÄĒ 64 ŽĮłŽßĆžĚīŽ©ī 
  79:Core/Src/freertos.c **** volatile uint32_t dbg_hw_motor  = 0;   /* MotorTask žä§ŪÉĚ high-water [words] */
  80:Core/Src/freertos.c **** 
  81:Core/Src/freertos.c **** /* ---- ŽłĒŽ£®Ūą¨žä§ žõźÍ≤©ž†úžĖī žÉĀŪÉú (BluetoothTask Žč®žĚľ writer, MotorTask reader) ----
  82:Core/Src/freertos.c ****  * 1ŽįĒžĚīŪäł/int8 žõźžěź ž†ĎÍ∑ľ ‚Üí Žģ§ŪÖćžä§ Ž∂ąžöĒ. volatile = ŪÉúžä§ŪĀ¨ÍįĄ ÍįÄžčúžĄĪ(žĽīŪĆĆžĚľŽ
  83:Core/Src/freertos.c **** volatile uint8_t sys_power = 0;     /* 0=OFF(Ž™®ŪĄį Íįēž†úž†ēžßÄ) 1=ON. Ž∂ÄŪĆÖ OFF(žēąž†Ą) */
  84:Core/Src/freertos.c **** volatile uint8_t sys_mode  = 0;     /* 0=žěźžú®ž£ľŪĖČ(Drive_Update) 1=žąėŽŹô(manual_* žĚłÍįÄ) */
  85:Core/Src/freertos.c **** volatile int8_t  manual_left  = 0;  /* žąėŽŹô žĘĆ ŽďÄŪčį [-100..100] (+ž†ĄžßĄ / -ŪõĄžßĄ) */
  86:Core/Src/freertos.c **** volatile int8_t  manual_right = 0;  /* žąėŽŹô žöį ŽďÄŪčį */
  87:Core/Src/freertos.c **** volatile uint8_t bt_rx_byte   = 0;  /* USART1 1ŽįĒžĚīŪäł IT žąėžč† Ž≤ĄŪćľ (RxCpltCallback ‚Üí uartQ
ARM GAS  C:\Users\user\AppData\Local\Temp\ccDst2FA.s 			page 3


  88:Core/Src/freertos.c **** volatile uint32_t dbg_bt_err  = 0;  /* USART1 žóźŽü¨žĹúŽįĪ(ORE/FE/NE) ŽįúžÉĚ¬∑Ž≥ĶÍĶ¨ Ūöüžąė (SWD Íī
  89:Core/Src/freertos.c **** 
  90:Core/Src/freertos.c **** /* USER CODE END Variables */
  91:Core/Src/freertos.c **** /* Definitions for MotorTask */
  92:Core/Src/freertos.c **** osThreadId_t MotorTaskHandle;
  93:Core/Src/freertos.c **** const osThreadAttr_t MotorTask_attributes = {
  94:Core/Src/freertos.c ****   .name = "MotorTask",
  95:Core/Src/freertos.c ****   .stack_size = 256 * 4,
  96:Core/Src/freertos.c ****   .priority = (osPriority_t) osPriorityNormal,
  97:Core/Src/freertos.c **** };
  98:Core/Src/freertos.c **** /* Definitions for SensorTask */
  99:Core/Src/freertos.c **** osThreadId_t SensorTaskHandle;
 100:Core/Src/freertos.c **** const osThreadAttr_t SensorTask_attributes = {
 101:Core/Src/freertos.c ****   .name = "SensorTask",
 102:Core/Src/freertos.c ****   .stack_size = 256 * 4,
 103:Core/Src/freertos.c ****   .priority = (osPriority_t) osPriorityLow,
 104:Core/Src/freertos.c **** };
 105:Core/Src/freertos.c **** /* Definitions for BluetoothTask */
 106:Core/Src/freertos.c **** osThreadId_t BluetoothTaskHandle;
 107:Core/Src/freertos.c **** const osThreadAttr_t BluetoothTask_attributes = {
 108:Core/Src/freertos.c ****   .name = "BluetoothTask",
 109:Core/Src/freertos.c ****   .stack_size = 256 * 4,
 110:Core/Src/freertos.c ****   .priority = (osPriority_t) osPriorityLow,
 111:Core/Src/freertos.c **** };
 112:Core/Src/freertos.c **** /* Definitions for uartQ */
 113:Core/Src/freertos.c **** osMessageQueueId_t uartQHandle;
 114:Core/Src/freertos.c **** const osMessageQueueAttr_t uartQ_attributes = {
 115:Core/Src/freertos.c ****   .name = "uartQ"
 116:Core/Src/freertos.c **** };
 117:Core/Src/freertos.c **** 
 118:Core/Src/freertos.c **** /* Private function prototypes -----------------------------------------------*/
 119:Core/Src/freertos.c **** /* USER CODE BEGIN FunctionPrototypes */
 120:Core/Src/freertos.c **** 
 121:Core/Src/freertos.c **** #if MOTOR_TEST
 122:Core/Src/freertos.c **** /* ŪÖĆžä§Ūäł žčúŪÄÄžä§ ž†Ąžö© ŽĆÄÍłį: IWDG timeout(2.048s)Ž≥īŽč§ Íłī Ž¨īÍįĪžč† ŽĆÄÍłįÍįÄ ŪĚźŽ•īŽ©ī 
 123:Core/Src/freertos.c ****  * Ž¶¨žÖč ‚Üí 'ž†ĄžßĄŽßĆ ŽįėŽ≥Ķ' ŪŹ≠ž£ľ. 10ms Žč®žúĄ(osDelay)Ž°ú ÍįĪžč†ŪēėŽ©į ŽĆÄÍłį (ÍĶ¨ test_dela
 124:Core/Src/freertos.c **** static void test_delay(uint32_t ms)
 125:Core/Src/freertos.c **** {
 126:Core/Src/freertos.c ****     for (uint32_t t = 0; t < ms; t += 10U)
 127:Core/Src/freertos.c ****     {
 128:Core/Src/freertos.c ****         HAL_IWDG_Refresh(&hiwdg);
 129:Core/Src/freertos.c ****         osDelay(10);
 130:Core/Src/freertos.c ****     }
 131:Core/Src/freertos.c **** }
 132:Core/Src/freertos.c **** #endif
 133:Core/Src/freertos.c **** 
 134:Core/Src/freertos.c **** /* USER CODE END FunctionPrototypes */
 135:Core/Src/freertos.c **** 
 136:Core/Src/freertos.c **** void StartDefaultTask(void *argument);
 137:Core/Src/freertos.c **** void StartTask02(void *argument);
 138:Core/Src/freertos.c **** void StartTask03(void *argument);
 139:Core/Src/freertos.c **** 
 140:Core/Src/freertos.c **** void MX_FREERTOS_Init(void); /* (MISRA C 2004 rule 8.1) */
 141:Core/Src/freertos.c **** 
 142:Core/Src/freertos.c **** /**
 143:Core/Src/freertos.c ****   * @brief  FreeRTOS initialization
 144:Core/Src/freertos.c ****   * @param  None
ARM GAS  C:\Users\user\AppData\Local\Temp\ccDst2FA.s 			page 4


 145:Core/Src/freertos.c ****   * @retval None
 146:Core/Src/freertos.c ****   */
 147:Core/Src/freertos.c **** void MX_FREERTOS_Init(void) {
 148:Core/Src/freertos.c ****   /* USER CODE BEGIN Init */
 149:Core/Src/freertos.c **** 
 150:Core/Src/freertos.c ****   /* USER CODE END Init */
 151:Core/Src/freertos.c **** 
 152:Core/Src/freertos.c ****   /* USER CODE BEGIN RTOS_MUTEX */
 153:Core/Src/freertos.c ****   /* add mutexes, ... */
 154:Core/Src/freertos.c ****   /* USER CODE END RTOS_MUTEX */
 155:Core/Src/freertos.c **** 
 156:Core/Src/freertos.c ****   /* USER CODE BEGIN RTOS_SEMAPHORES */
 157:Core/Src/freertos.c ****   /* add semaphores, ... */
 158:Core/Src/freertos.c ****   /* USER CODE END RTOS_SEMAPHORES */
 159:Core/Src/freertos.c **** 
 160:Core/Src/freertos.c ****   /* USER CODE BEGIN RTOS_TIMERS */
 161:Core/Src/freertos.c ****   /* start timers, add new ones, ... */
 162:Core/Src/freertos.c ****   /* USER CODE END RTOS_TIMERS */
 163:Core/Src/freertos.c **** 
 164:Core/Src/freertos.c ****   /* Create the queue(s) */
 165:Core/Src/freertos.c ****   /* creation of uartQ */
 166:Core/Src/freertos.c ****   uartQHandle = osMessageQueueNew (16, sizeof(uint8_t), &uartQ_attributes);
 167:Core/Src/freertos.c **** 
 168:Core/Src/freertos.c ****   /* USER CODE BEGIN RTOS_QUEUES */
 169:Core/Src/freertos.c ****   driveQ = osMessageQueueNew(2, sizeof(DriveInputs), NULL);
 170:Core/Src/freertos.c ****   /* žÉĚžĄĪ žč§ŪĆ®(NULL) žčú put/getžĚī ž†ĄŽ∂Ä žóźŽü¨ ‚Üí MotorTaskÍįÄ Car_Stop + refresh žÉĚŽěĶ ‚Ü
 171:Core/Src/freertos.c ****    * heap_4 15KBžóź ŪĀź ~žąėžč≠BŽĚľ žč§ŪĆ® ÍįÄŽä•žĄĪ žā¨žč§žÉĀ žóÜžĚĆ ‚ÄĒ Ž≥ĄŽŹĄ ž≤ėŽ¶¨ Ž∂ąžöĒ */
 172:Core/Src/freertos.c **** 
 173:Core/Src/freertos.c ****   /* ŽłĒŽ£®Ūą¨žä§ žąėžč† Íįúžčú: žĶúžīą 1ŽįĒžĚīŪäł IT Ž¨īžě• (žĚīŪõĄ RxCpltCallbackÍįÄ žěźÍįÄ žě¨Ž¨
 174:Core/Src/freertos.c ****    * uartQ žÉĚžĄĪ žßĀŪõĄŽĚľ žĹúŽįĪ put ŽĆÄžÉĀ ž°īžě¨. USART1žĚÄ žä§žľÄž§ĄŽü¨ ž†Ą init žôĄŽ£Ć ‚Üí žß
 175:Core/Src/freertos.c ****   __HAL_UART_CLEAR_OREFLAG(&huart1);  /* Ž∂ÄŪĆÖ ŽĚľžĚł ÍłÄŽ¶¨žĻėŽ°ú žĄ†-ŽįēŪěĆ ORE ž†úÍĪį ŪõĄ Ž¨īžě
 176:Core/Src/freertos.c ****   HAL_UART_Receive_IT(&huart1, (uint8_t *)&bt_rx_byte, 1);
 177:Core/Src/freertos.c ****   /* USER CODE END RTOS_QUEUES */
 178:Core/Src/freertos.c **** 
 179:Core/Src/freertos.c ****   /* Create the thread(s) */
 180:Core/Src/freertos.c ****   /* creation of MotorTask */
 181:Core/Src/freertos.c ****   MotorTaskHandle = osThreadNew(StartDefaultTask, NULL, &MotorTask_attributes);
 182:Core/Src/freertos.c **** 
 183:Core/Src/freertos.c ****   /* creation of SensorTask */
 184:Core/Src/freertos.c ****   SensorTaskHandle = osThreadNew(StartTask02, NULL, &SensorTask_attributes);
 185:Core/Src/freertos.c **** 
 186:Core/Src/freertos.c ****   /* creation of BluetoothTask */
 187:Core/Src/freertos.c ****   BluetoothTaskHandle = osThreadNew(StartTask03, NULL, &BluetoothTask_attributes);
 188:Core/Src/freertos.c **** 
 189:Core/Src/freertos.c ****   /* USER CODE BEGIN RTOS_THREADS */
 190:Core/Src/freertos.c ****   /* add threads, ... */
 191:Core/Src/freertos.c ****   /* USER CODE END RTOS_THREADS */
 192:Core/Src/freertos.c **** 
 193:Core/Src/freertos.c ****   /* USER CODE BEGIN RTOS_EVENTS */
 194:Core/Src/freertos.c ****   /* add events, ... */
 195:Core/Src/freertos.c ****   /* USER CODE END RTOS_EVENTS */
 196:Core/Src/freertos.c **** 
 197:Core/Src/freertos.c **** }
 198:Core/Src/freertos.c **** 
 199:Core/Src/freertos.c **** /* USER CODE BEGIN Header_StartDefaultTask */
 200:Core/Src/freertos.c **** /**
 201:Core/Src/freertos.c ****   * @brief  Function implementing the MotorTask thread.
ARM GAS  C:\Users\user\AppData\Local\Temp\ccDst2FA.s 			page 5


 202:Core/Src/freertos.c ****   * @param  argument: Not used
 203:Core/Src/freertos.c ****   * @retval None
 204:Core/Src/freertos.c ****   */
 205:Core/Src/freertos.c **** /* USER CODE END Header_StartDefaultTask */
 206:Core/Src/freertos.c **** void StartDefaultTask(void *argument)
 207:Core/Src/freertos.c **** {
 208:Core/Src/freertos.c ****   /* USER CODE BEGIN StartDefaultTask */
 209:Core/Src/freertos.c ****   (void)argument;
 210:Core/Src/freertos.c **** 
 211:Core/Src/freertos.c **** #if MOTOR_TEST
 212:Core/Src/freertos.c ****   /* ŽįĒŪÄī Žį©ŪĖ•/žÜćŽŹĄ/ž†úŽŹô Žąą ŪôēžĚł + žąėžĻė ŪäúŽčĚžö©. žĄľžĄú Ž°úžßĀ ÍĪīŽĄąŽúÄ(SensorTaskŽ
 213:Core/Src/freertos.c ****    * test_delay žā¨žö© ŪēĄžąė: Ž¨īÍįĪžč† ŽĆÄÍłįŽäĒ IWDG Ž¶¨žÖč ‚Üí žčúŪÄÄžä§ ž§ĎÍįĄ ŪŹ≠ž£ľ */
 214:Core/Src/freertos.c ****   for(;;)
 215:Core/Src/freertos.c ****   {
 216:Core/Src/freertos.c ****     Car_Forward(DRIVE_SPEED);   test_delay(1500);   /* žĖĎž™Ĺ Žč§ ž†ĄžßĄŪēėŽäĒžßÄ ŪôēžĚł */
 217:Core/Src/freertos.c ****     Car_Brake();                test_delay(400);    /* Žä•ŽŹô ž†úŽŹô: žĹĒžä§Ūäł ŽĆÄŽĻĄ ž†ēžßÄÍĪįŽ¶¨
 218:Core/Src/freertos.c ****     Car_Stop();                 test_delay(800);
 219:Core/Src/freertos.c ****     Car_PivotLeft(TURN_SPEED, TURN_INNER);   test_delay(1500);   /* IN1 ž†ĄžßĄ + IN3 ŪõĄžßĄžÜĆŽüČ ‚
 220:Core/Src/freertos.c ****     Car_Stop();                              test_delay(800);
 221:Core/Src/freertos.c ****     Car_PivotRight(TURN_SPEED, TURN_INNER);  test_delay(1500);   /* IN4 ž†ĄžßĄ + IN2 ŪõĄžßĄžÜĆŽüČ ‚
 222:Core/Src/freertos.c ****     Car_Stop();                              test_delay(800);
 223:Core/Src/freertos.c ****     Car_Backward(DRIVE_SPEED);  test_delay(1500);
 224:Core/Src/freertos.c ****     Car_Stop();                 test_delay(800);
 225:Core/Src/freertos.c ****   }
 226:Core/Src/freertos.c **** #else
 227:Core/Src/freertos.c ****   /* ž†úžĖī žÜĆŽĻĄžěź = Ž™®ŪĄį Ž™ÖŽ†Ļ žú†žĚľ ŽįúŪĖČžěź (ŪŹīŪäł ŪēłŽď§Žü¨žĚė Car_Stop ž†úžôł).
 228:Core/Src/freertos.c ****    * IWDGŽäĒ 'žč†žĄ†Ūēú žĄľžĄú ŽćįžĚīŪĄįÍįÄ ŪĚźŽ•ľ ŽēĆŽßĆ' refresh ‚ÄĒ SensorTask ŪĖČ/žā¨ŽßĚ, ŪĀź Ž
 229:Core/Src/freertos.c ****    * Ž≥ł ŪÉúžä§ŪĀ¨ ŪĖČ žĖīŽäź ž™ĹžĚīŽď† 2.048s Žāī žõĆžĻėŽŹÖ Ž¶¨žÖč (ÍĶ¨ žäąŪćľŽ£®ŪĒĄ fail-safe žĚė
 230:Core/Src/freertos.c ****   DriveInputs din;
 231:Core/Src/freertos.c ****   uint8_t prev_auto = 0;   /* žßĀž†Ą Ž£®ŪĒĄÍįÄ žěźžú® ÍĶ¨ŽŹô? M‚ÜíA / OFF‚ÜíA žě¨žßĄžěÖ edge Í≤Äž∂ú
 232:Core/Src/freertos.c ****   for(;;)
 233:Core/Src/freertos.c ****   {
 234:Core/Src/freertos.c ****     if (osMessageQueueGet(driveQ, &din, NULL, DRIVE_Q_TIMEOUT_MS) == osOK)
 235:Core/Src/freertos.c ****     {
 236:Core/Src/freertos.c ****       HAL_IWDG_Refresh(&hiwdg);   /* žĄľžĄú ŪĆĆžĚīŪĒĄŽĚľžĚł žÉĚž°ī = refresh (ž£ľŪĖČŽ™®Žďú Ž¨īÍīÄ) 
 237:Core/Src/freertos.c **** 
 238:Core/Src/freertos.c ****       /* === Ž™®ŪĄį ž†úžĖīÍ∂Ć Žč®žĚľ Ž∂ĄÍłį (Í≤ĹžüĀ žõźž≤ú žį®Žč®; ŽįúŪĖČžěźŽäĒ Ž≥ł ŪÉúžä§ŪĀ¨ ŪēėŽā
 239:Core/Src/freertos.c ****       if (sys_power == 0)
 240:Core/Src/freertos.c ****       {
 241:Core/Src/freertos.c ****         Car_Stop();                    /* ž†Ąžõź OFF: Íįēž†ú ž†ēžßÄ (žĶúžöįžĄ†) */
 242:Core/Src/freertos.c ****         prev_auto = 0;
 243:Core/Src/freertos.c ****       }
 244:Core/Src/freertos.c ****       else if (sys_mode == 1)
 245:Core/Src/freertos.c ****       {
 246:Core/Src/freertos.c ****         Motor_Left(manual_left);       /* žąėŽŹô: žēĪ ŽďÄŪčį žßĀž†Ď žĚłÍįÄ (žĚĆžąė=ŪõĄžßĄ) */
 247:Core/Src/freertos.c ****         Motor_Right(manual_right);
 248:Core/Src/freertos.c ****         prev_auto = 0;
 249:Core/Src/freertos.c ****       }
 250:Core/Src/freertos.c ****       else                             /* sys_power==1 && sys_mode==0 ‚Üí žěźžú®ž£ľŪĖČ */
 251:Core/Src/freertos.c ****       {
 252:Core/Src/freertos.c ****         if (!prev_auto)                /* žąėŽŹô/OFFžóźžĄú ŽßČ Ž≥ĶÍ∑Ä ‚Üí žÉĀŪÉúŽ®łžč† Ž¶¨žÖč(žä§ŪÖ
 253:Core/Src/freertos.c ****         {
 254:Core/Src/freertos.c ****           Drive_Init();
 255:Core/Src/freertos.c ****           prev_auto = 1;
 256:Core/Src/freertos.c ****         }
 257:Core/Src/freertos.c ****         Drive_Update(&din);            /* Ūėłž∂úŽčĻ ž†ēŪôēŪěą 1ŪöĆ Ž™®ŪĄį Ž™ÖŽ†Ļ (din.now ÍłįŽįė ŽĻ
 258:Core/Src/freertos.c ****       }
ARM GAS  C:\Users\user\AppData\Local\Temp\ccDst2FA.s 			page 6


 259:Core/Src/freertos.c ****     }
 260:Core/Src/freertos.c ****     else
 261:Core/Src/freertos.c ****     {
 262:Core/Src/freertos.c ****       dbg_q_timeout++;
 263:Core/Src/freertos.c ****       Car_Stop();           /* žĄľžĄú žĻ®Ž¨Ķ ŽŹôžēą žēąž†Ą ž†ēžßÄ. refresh žÉĚŽěĶ ‚Üí žßÄžÜć žčú IW
 264:Core/Src/freertos.c ****     }
 265:Core/Src/freertos.c ****     dbg_hw_motor = (uint32_t)uxTaskGetStackHighWaterMark(NULL);
 266:Core/Src/freertos.c ****   }
 267:Core/Src/freertos.c **** #endif
 268:Core/Src/freertos.c ****   /* USER CODE END StartDefaultTask */
 269:Core/Src/freertos.c **** }
 270:Core/Src/freertos.c **** 
 271:Core/Src/freertos.c **** /* USER CODE BEGIN Header_StartTask02 */
 272:Core/Src/freertos.c **** /**
 273:Core/Src/freertos.c **** * @brief Function implementing the SensorTask thread.
 274:Core/Src/freertos.c **** * @param argument: Not used
 275:Core/Src/freertos.c **** * @retval None
 276:Core/Src/freertos.c **** */
 277:Core/Src/freertos.c **** /* USER CODE END Header_StartTask02 */
 278:Core/Src/freertos.c **** void StartTask02(void *argument)
 279:Core/Src/freertos.c **** {
 280:Core/Src/freertos.c ****   /* USER CODE BEGIN StartTask02 */
 281:Core/Src/freertos.c ****   (void)argument;
 282:Core/Src/freertos.c **** 
 283:Core/Src/freertos.c **** #if MOTOR_TEST
 284:Core/Src/freertos.c ****   /* Ž™®ŪĄį ž†źÍ≤Ä Ž™®Žďú: žł°ž†ē/ŪĀź Ž∂ąžöĒ ‚ÄĒ MotorTaskÍįÄ žčúŪÄÄžä§ ž†ĄŽčī, žó¨ÍłįŽäĒ ŪúīŽ©ī */
 285:Core/Src/freertos.c ****   for(;;) osDelay(1000);
 286:Core/Src/freertos.c **** #else
 287:Core/Src/freertos.c ****   /* žł°ž†ē/ŪēĄŪĄį žÉĀŪÉú (ÍĶ¨ main.c žäąŪćľŽ£®ŪĒĄžóźžĄú žĚīŽŹô) ‚ÄĒ ž†úžĖī žÉĀŪÉúŽ®łžč†žĚÄ drive.c
 288:Core/Src/freertos.c ****    * hist žúąŽŹĄ = SIDE_MED_WIN(drive.h): žł°Ž©ī median žÉėŪĒĆžąė = 'ŪēúŽ≤ąžĒ© ŪäÄŽäĒ Íįí' ž†úÍĪį Í
 289:Core/Src/freertos.c ****   static uint16_t hist[3][SIDE_MED_WIN];
 290:Core/Src/freertos.c ****   for (int ch = 0; ch < 3; ch++)
 291:Core/Src/freertos.c ****       for (int i = 0; i < SIDE_MED_WIN; i++) hist[ch][i] = ULTRA_MAX_CM;
 292:Core/Src/freertos.c ****   static uint8_t  front_miss = 0;   /* ž†ēŽ©ī žóźžĹĒ žóįžÜć ŽĮłŪöĆžč† (drive.c HOLD ŪĆźž†ē žěÖŽ†•) 
 293:Core/Src/freertos.c ****   static uint8_t  side_miss[3] = {0,0,0};  /* žł°Ž©ī ch1(L)/ch2(R) žóįžÜć Ž¨īžóźžĹĒ ‚ÄĒ ŪēúÍ≥Ą žīąÍ
 294:Core/Src/freertos.c ****   static uint8_t  imu_live = 0;     /* IMU žÉĚž°ī Í≤ĆžĚīŪäł */
 295:Core/Src/freertos.c ****   static uint8_t  imu_fail = 0;     /* žĚĹÍłį žóįžÜć žč§ŪĆ® žĻīžöīŪäł */
 296:Core/Src/freertos.c ****   static uint32_t t_imu_retry = 0;  /* žā¨ŽßĚ ŪõĄ žě¨žčúŽŹĄ ŪÉÄžĚīŽ®ł */
 297:Core/Src/freertos.c ****   static uint32_t t_calib = 0;      /* CALIB_STAT ŽĒĒŽ≤ĄÍ∑ł žĚĹÍłį žä§Ž°úŪčÄ */
 298:Core/Src/freertos.c ****   static uint32_t t_loop = 0;       /* žā¨žĚīŪĀī ž£ľÍłį žł°ž†ē */
 299:Core/Src/freertos.c ****   static BNO055_Euler imu;          /* žĶúÍ∑ľ žúĶŪē©Íįí (read žč§ŪĆ® žčú žßĀž†ĄÍįí žú†žßÄ) */
 300:Core/Src/freertos.c **** 
 301:Core/Src/freertos.c ****   uint16_t f = ULTRA_MAX_CM, l = ULTRA_MAX_CM, r = ULTRA_MAX_CM;  /* ŪēĄŪĄį ž∂úŽ†• (l/ržĚÄ early Ž©
 302:Core/Src/freertos.c ****   uint16_t d_snap[3];
 303:Core/Src/freertos.c ****   uint8_t  v_snap[3];
 304:Core/Src/freertos.c **** 
 305:Core/Src/freertos.c ****   Ultra_Init(osThreadGetId());      /* TIM3 IC start + žł°ž†ē žôĄŽ£Ć flag žąėžč†žěź ŽďĪŽ°Ě */
 306:Core/Src/freertos.c ****   imu_live = dbg_imu_ok;            /* Init žĄĪÍ≥ĶŪĖąžĚĄ ŽēĆŽßĆ žÉĚž°ī žčúžěĎ (žč§ŪĆ® žčú ÍĪįŽ¶¨-on
 307:Core/Src/freertos.c **** 
 308:Core/Src/freertos.c ****   for(;;)
 309:Core/Src/freertos.c ****   {
 310:Core/Src/freertos.c ****       uint32_t now = HAL_GetTick();
 311:Core/Src/freertos.c ****       dbg_loop_ms = now - t_loop;   /* žā¨žĚīŪĀī ž£ľÍłį ŽĮłŽü¨ (ŽįėžĚĎžßÄžóį Íįźžčú: ŪÜĶžÉĀ 6~9ms) 
 312:Core/Src/freertos.c ****       t_loop = now;
 313:Core/Src/freertos.c **** 
 314:Core/Src/freertos.c ****       /* 1) ž†ēŽ©ī žł°ž†ē ‚Üí ŪēĄŪĄį ‚Üí Í∑ľž†Ď žčú 'early' Ž©ĒžčúžßÄŽ°ú žĄ†ž†ú ž†úŽŹô žßĄžěÖ(žĹĒŽĄ
 315:Core/Src/freertos.c ****        *    MotorTaskÍįÄ ŽÜížĚÄ prioŽĚľ put ž¶Čžčú žĄ†ž†źŽźėžĖī cruise_run žě¨ŪŹČÍįÄ ‚Üí žā¨žĚīŽďú 
ARM GAS  C:\Users\user\AppData\Local\Temp\ccDst2FA.s 			page 7


 316:Core/Src/freertos.c ****        *    ÍłįŽč§Ž¶¨žßÄ žēäÍ≥† BRAKE‚ÜíSPIN(ž†ēžßÄ+ž†úžěźŽ¶¨ ŪĒľŽ≤ó) žßĄžěÖ = Ž≤Ĺ žēěžóźžĄú ŽćĒ žĚ
 317:Core/Src/freertos.c ****        *    Ž™®ŪĄį Ž™ÖŽ†Ļ ŽįúŪĖČžěźŽäĒ MotorTask ŪēėŽāėŽ°ú žú†žßÄ */
 318:Core/Src/freertos.c ****       v_snap[0] = Ultra_Measure(0, MEAS_WAIT_MS, &d_snap[0]);    /* front (TRIG PA5, ECHO CH1) */
 319:Core/Src/freertos.c **** 
 320:Core/Src/freertos.c ****       if (v_snap[0])             { front_miss = 0; }   /* ž†ēžßÄ Í≤įž†ēžĚÄ drive.c HOLDÍįÄ ŽčīŽčĻ *
 321:Core/Src/freertos.c ****       else if (front_miss < 255) { front_miss++; }
 322:Core/Src/freertos.c ****       dbg_front_miss = front_miss;
 323:Core/Src/freertos.c **** 
 324:Core/Src/freertos.c ****       if (v_snap[0])   /* žú†Ūö® žł°ž†ēŽßĆ hist ŪĎłžčú ‚Üí Ž¨īŪöĆžč†žĚĄ 200(Ž©ÄŽč§)žúľŽ°ú ŽćģŽäĒ fa
 325:Core/Src/freertos.c ****       {
 326:Core/Src/freertos.c ****           for (int i = SIDE_MED_WIN - 1; i > 0; i--) hist[0][i] = hist[0][i - 1];
 327:Core/Src/freertos.c ****           hist[0][0] = d_snap[0];
 328:Core/Src/freertos.c ****       }
 329:Core/Src/freertos.c ****       f = min_n(hist[0], FRONT_MIN_WIN);   /* ž†ēŽ©īžĚÄ žĶúÍ∑ľ FRONT_MIN_WINÍįú min (žĶúÍ∑ľž†Ď, žßÄ
 330:Core/Src/freertos.c **** 
 331:Core/Src/freertos.c ****       if (Drive_GetState() == DS_CRUISE && f < FRONT_TURN_CM)
 332:Core/Src/freertos.c ****       {
 333:Core/Src/freertos.c ****           DriveInputs early;
 334:Core/Src/freertos.c ****           early.f          = f;
 335:Core/Src/freertos.c ****           early.l          = l;            /* žßĀž†Ą žā¨žĚīŪĀī ŪēĄŪĄįÍįí ‚ÄĒ ž†úŽŹô ŪĆźž†ēžóĒ fŽßĆ 
 336:Core/Src/freertos.c ****           early.r          = r;
 337:Core/Src/freertos.c ****           early.f_valid    = v_snap[0];
 338:Core/Src/freertos.c ****           early.front_miss = front_miss;
 339:Core/Src/freertos.c ****           early.heading    = imu.heading;
 340:Core/Src/freertos.c ****           early.imu_live   = imu_live;
 341:Core/Src/freertos.c ****           early.now        = HAL_GetTick();
 342:Core/Src/freertos.c ****           if (osMessageQueuePut(driveQ, &early, 0U, 0U) != osOK) { dbg_q_drop++; }
 343:Core/Src/freertos.c ****       }
 344:Core/Src/freertos.c **** 
 345:Core/Src/freertos.c ****       /* 2) žł°Ž©ī žł°ž†ē (žąúžį® Žįúžā¨ ‚ÄĒ ŪĀ¨Ž°úžä§ŪÜ†ŪĀ¨ ž†úÍĪį) + ŪēĄŪĄį */
 346:Core/Src/freertos.c ****       v_snap[1] = Ultra_Measure(1, SIDE_WAIT_MS, &d_snap[1]);    /* left  (TRIG PA4, ECHO CH2) */
 347:Core/Src/freertos.c ****       v_snap[2] = Ultra_Measure(2, SIDE_WAIT_MS, &d_snap[2]);    /* right (TRIG PA3, ECHO CH3) */
 348:Core/Src/freertos.c **** 
 349:Core/Src/freertos.c ****       for (int ch = 1; ch < 3; ch++)
 350:Core/Src/freertos.c ****       {
 351:Core/Src/freertos.c ****           if (v_snap[ch])
 352:Core/Src/freertos.c ****           {
 353:Core/Src/freertos.c ****               side_miss[ch] = 0;
 354:Core/Src/freertos.c ****               for (int i = SIDE_MED_WIN - 1; i > 0; i--) hist[ch][i] = hist[ch][i - 1];
 355:Core/Src/freertos.c ****               hist[ch][0] = d_snap[ch];
 356:Core/Src/freertos.c ****           }
 357:Core/Src/freertos.c ****           else if (side_miss[ch] < 255)
 358:Core/Src/freertos.c ****           {
 359:Core/Src/freertos.c ****               /* žóįžÜć Ž¨īžóźžĹĒ SIDE_FAIL_LIMIT ŽŹĄŽč¨ ‚Üí histŽ•ľ ŪäłžěĄ(MAX)žúľŽ°ú ŽĻĄžõÄ ‚Üí m
 360:Core/Src/freertos.c ****                  stale Í∑ľž†ĎÍįí Ž¨īŪēúžú†žßÄ žį®Žč®(žĹĒŽĄą žė§ž°įŪĖ•/žė§ŪöĆŪĒľ Žį©žßÄ). žóźžĹĒ Ž≥Ķ
 361:Core/Src/freertos.c ****               if (++side_miss[ch] >= SIDE_FAIL_LIMIT)
 362:Core/Src/freertos.c ****                   for (int i = 0; i < SIDE_MED_WIN; i++) hist[ch][i] = ULTRA_MAX_CM;
 363:Core/Src/freertos.c ****           }
 364:Core/Src/freertos.c ****       }
 365:Core/Src/freertos.c ****       l = median_n(hist[1], SIDE_MED_WIN);   /* žł°Ž©īžĚÄ median (žä§ŪĆĆžĚīŪĀ¨ ž†úÍĪį ‚ÄĒ žúąŽŹĄ=SI
 366:Core/Src/freertos.c ****       r = median_n(hist[2], SIDE_MED_WIN);
 367:Core/Src/freertos.c ****       dbg_front = f; dbg_left = l; dbg_right = r;
 368:Core/Src/freertos.c **** 
 369:Core/Src/freertos.c ****       /* 3) IMU žÉėŪĒĆ (žÉĚž°ī Í≤ĆžĚīŪäł): ž†ēžÉĀ žčú Žß§ žā¨žĚīŪĀī heading ÍįĪžč†. žóįžÜć IMU_FAIL
 370:Core/Src/freertos.c ****        *    žā¨ŽßĚ žĄ†žĖł ŪõĄ IMU_RETRY_MS ž£ľÍłįŽ°úŽßĆ žě¨žčúŽŹĄ ‚ÄĒ ž£ĹžĚÄ IMUÍįÄ žā¨žĚīŪĀīŽßąŽč§
 371:Core/Src/freertos.c ****        *    ŪÉúžõĆ ŽįėžĚĎžßÄžóį Ūā§žöįŽäĒ Í≤É žį®Žč®. CalibStatusŽäĒ ŽĒĒŽ≤ĄÍ∑ł ž†Ąžö©žĚīŽĚľ CALIB_P
 372:Core/Src/freertos.c ****       if (imu_live)
ARM GAS  C:\Users\user\AppData\Local\Temp\ccDst2FA.s 			page 8


 373:Core/Src/freertos.c ****       {
 374:Core/Src/freertos.c ****           if (BNO055_ReadEuler(&imu))
 375:Core/Src/freertos.c ****           {
 376:Core/Src/freertos.c ****               imu_fail = 0;
 377:Core/Src/freertos.c ****               dbg_heading = imu.heading;
 378:Core/Src/freertos.c ****               dbg_roll    = imu.roll;
 379:Core/Src/freertos.c ****               dbg_pitch   = imu.pitch;
 380:Core/Src/freertos.c ****           }
 381:Core/Src/freertos.c ****           else if (++imu_fail >= IMU_FAIL_LIMIT)
 382:Core/Src/freertos.c ****           {
 383:Core/Src/freertos.c ****               imu_live = 0;
 384:Core/Src/freertos.c ****               t_imu_retry = now;
 385:Core/Src/freertos.c ****           }
 386:Core/Src/freertos.c ****           if ((now - t_calib) >= CALIB_POLL_MS)
 387:Core/Src/freertos.c ****           {
 388:Core/Src/freertos.c ****               t_calib = now;
 389:Core/Src/freertos.c ****               dbg_imu_calib = BNO055_ReadCalibStatus();
 390:Core/Src/freertos.c ****           }
 391:Core/Src/freertos.c ****       }
 392:Core/Src/freertos.c ****       else if (dbg_imu_ok && (now - t_imu_retry) >= IMU_RETRY_MS)
 393:Core/Src/freertos.c ****       {
 394:Core/Src/freertos.c ****           /* Init žĄĪÍ≥Ķ žĚīŽ†• žěąžĚĄ ŽēĆŽßĆ žě¨žčúŽŹĄ ‚ÄĒ Init žč§ŪĆ® žÉĀŪÉúžĚė garbage žĚĹÍłįŽ°ú
 395:Core/Src/freertos.c ****            * žė§ŪĆźŪēėŽäĒ Í≤É Žį©žßÄ. Ž≤Ąžä§ wedgeŽäĒ bno_rd ŽāīŽ∂Ä Ž≥ĶÍĶ¨(10ŪöĆ žč§ŪĆ®‚Üí9ŪĀīŽü≠)ž
 396:Core/Src/freertos.c ****           t_imu_retry = now;
 397:Core/Src/freertos.c ****           if (BNO055_ReadEuler(&imu)) { imu_live = 1; imu_fail = 0; }
 398:Core/Src/freertos.c ****       }
 399:Core/Src/freertos.c ****       dbg_imu_live = imu_live;
 400:Core/Src/freertos.c **** 
 401:Core/Src/freertos.c ****       /* 4) ž†úžĖī žěÖŽ†• žä§ŽÉÖžÉ∑ ‚Üí ŪĀź (Íįí Ž≥Ķžā¨ ‚ÄĒ MotorTaskÍįÄ IWDG refresh + Drive_Updat
 402:Core/Src/freertos.c ****       DriveInputs din;
 403:Core/Src/freertos.c ****       din.f          = f;
 404:Core/Src/freertos.c ****       din.l          = l;
 405:Core/Src/freertos.c ****       din.r          = r;
 406:Core/Src/freertos.c ****       din.f_valid    = v_snap[0];
 407:Core/Src/freertos.c ****       din.front_miss = front_miss;
 408:Core/Src/freertos.c ****       din.heading    = imu.heading;   /* imu_live=0žĚīŽ©ī drive.cÍįÄ Ž¨īžčú(ÍĪįŽ¶¨-only ÍįēŽďĪ) */
 409:Core/Src/freertos.c ****       din.imu_live   = imu_live;
 410:Core/Src/freertos.c ****       din.now        = HAL_GetTick();
 411:Core/Src/freertos.c ****       if (osMessageQueuePut(driveQ, &din, 0U, 0U) != osOK) { dbg_q_drop++; }
 412:Core/Src/freertos.c **** 
 413:Core/Src/freertos.c ****       dbg_hw_sensor = (uint32_t)uxTaskGetStackHighWaterMark(NULL);
 414:Core/Src/freertos.c ****   }
 415:Core/Src/freertos.c **** #endif
 416:Core/Src/freertos.c ****   /* USER CODE END StartTask02 */
 417:Core/Src/freertos.c **** }
 418:Core/Src/freertos.c **** 
 419:Core/Src/freertos.c **** /* USER CODE BEGIN Header_StartTask03 */
 420:Core/Src/freertos.c **** /**
 421:Core/Src/freertos.c **** * @brief Function implementing the BluetoothTask thread.
 422:Core/Src/freertos.c **** * @param argument: Not used
 423:Core/Src/freertos.c **** * @retval None
 424:Core/Src/freertos.c **** */
 425:Core/Src/freertos.c **** /* USER CODE END Header_StartTask03 */
 426:Core/Src/freertos.c **** void StartTask03(void *argument)
 427:Core/Src/freertos.c **** {
  29              		.loc 1 427 1 view -0
  30              		.cfi_startproc
ARM GAS  C:\Users\user\AppData\Local\Temp\ccDst2FA.s 			page 9


  31              		@ Volatile: function does not return.
  32              		@ args = 0, pretend = 0, frame = 8
  33              		@ frame_needed = 0, uses_anonymous_args = 0
  34              	.LVL0:
  35              		.loc 1 427 1 is_stmt 0 view .LVU1
  36 0000 00B5     		push	{lr}
  37              	.LCFI0:
  38              		.cfi_def_cfa_offset 4
  39              		.cfi_offset 14, -4
  40 0002 83B0     		sub	sp, sp, #12
  41              	.LCFI1:
  42              		.cfi_def_cfa_offset 16
  43 0004 02E0     		b	.L2
  44              	.LVL1:
  45              	.L12:
 428:Core/Src/freertos.c ****   /* USER CODE BEGIN StartTask03 */
 429:Core/Src/freertos.c ****   (void)argument;
 430:Core/Src/freertos.c ****   uint8_t cmd;
 431:Core/Src/freertos.c **** 
 432:Core/Src/freertos.c ****   for(;;)
 433:Core/Src/freertos.c ****   {
 434:Core/Src/freertos.c ****     /* uartQžóźžĄú 1ŽįĒžĚīŪäł ŽłĒŽ°úŪāĻ žąėžč† ‚ÄĒ Ž™ÖŽ†Ļ žė¨ ŽēĆÍĻĆžßÄ CPU žĖĎŽ≥ī(busy-wait žóÜžĚĆ
 435:Core/Src/freertos.c ****     if (osMessageQueueGet(uartQHandle, &cmd, NULL, osWaitForever) != osOK)
 436:Core/Src/freertos.c ****         continue;
 437:Core/Src/freertos.c **** 
 438:Core/Src/freertos.c ****     switch (cmd)
 439:Core/Src/freertos.c ****     {
 440:Core/Src/freertos.c ****       /* ---- žčúžä§ŪÖú ž†Ąžõź ---- */
 441:Core/Src/freertos.c ****       case '1':                                  /* ON */
 442:Core/Src/freertos.c ****         sys_power = 1;
  46              		.loc 1 442 9 is_stmt 1 view .LVU2
  47              		.loc 1 442 19 is_stmt 0 view .LVU3
  48 0006 5A4B     		ldr	r3, .L16
  49 0008 0122     		movs	r2, #1
  50 000a 1A70     		strb	r2, [r3]
 443:Core/Src/freertos.c ****         break;
  51              		.loc 1 443 9 is_stmt 1 view .LVU4
  52              	.L2:
 429:Core/Src/freertos.c ****   uint8_t cmd;
  53              		.loc 1 429 3 view .LVU5
 430:Core/Src/freertos.c **** 
  54              		.loc 1 430 3 view .LVU6
 432:Core/Src/freertos.c ****   {
  55              		.loc 1 432 3 view .LVU7
 435:Core/Src/freertos.c ****         continue;
  56              		.loc 1 435 5 view .LVU8
 435:Core/Src/freertos.c ****         continue;
  57              		.loc 1 435 9 is_stmt 0 view .LVU9
  58 000c 4FF0FF33 		mov	r3, #-1
  59 0010 0022     		movs	r2, #0
  60 0012 0DF10701 		add	r1, sp, #7
  61 0016 5748     		ldr	r0, .L16+4
  62 0018 0068     		ldr	r0, [r0]
  63 001a FFF7FEFF 		bl	osMessageQueueGet
  64              	.LVL2:
 435:Core/Src/freertos.c ****         continue;
  65              		.loc 1 435 8 discriminator 1 view .LVU10
ARM GAS  C:\Users\user\AppData\Local\Temp\ccDst2FA.s 			page 10


  66 001e 0028     		cmp	r0, #0
  67 0020 F4D1     		bne	.L2
 438:Core/Src/freertos.c ****     {
  68              		.loc 1 438 5 is_stmt 1 view .LVU11
  69 0022 9DF80730 		ldrb	r3, [sp, #7]	@ zero_extendqisi2
  70 0026 303B     		subs	r3, r3, #48
  71 0028 252B     		cmp	r3, #37
  72 002a EFD8     		bhi	.L2
  73 002c 01A2     		adr	r2, .L5
  74 002e 52F823F0 		ldr	pc, [r2, r3, lsl #2]
  75 0032 00BF     		.p2align 2
  76              	.L5:
  77 0034 CD000000 		.word	.L13+1
  78 0038 07000000 		.word	.L12+1
  79 003c 0D000000 		.word	.L2+1
  80 0040 0D000000 		.word	.L2+1
  81 0044 0D000000 		.word	.L2+1
  82 0048 0D000000 		.word	.L2+1
  83 004c 0D000000 		.word	.L2+1
  84 0050 0D000000 		.word	.L2+1
  85 0054 0D000000 		.word	.L2+1
  86 0058 0D000000 		.word	.L2+1
  87 005c 0D000000 		.word	.L2+1
  88 0060 0D000000 		.word	.L2+1
  89 0064 0D000000 		.word	.L2+1
  90 0068 0D000000 		.word	.L2+1
  91 006c 0D000000 		.word	.L2+1
  92 0070 0D000000 		.word	.L2+1
  93 0074 0D000000 		.word	.L2+1
  94 0078 DD000000 		.word	.L11+1
  95 007c 0D000000 		.word	.L2+1
  96 0080 0D000000 		.word	.L2+1
  97 0084 15010000 		.word	.L10+1
  98 0088 0D000000 		.word	.L2+1
  99 008c 0D000000 		.word	.L2+1
 100 0090 0D000000 		.word	.L2+1
 101 0094 0D000000 		.word	.L2+1
 102 0098 0D000000 		.word	.L2+1
 103 009c 0D000000 		.word	.L2+1
 104 00a0 0D000000 		.word	.L2+1
 105 00a4 2B010000 		.word	.L9+1
 106 00a8 EB000000 		.word	.L8+1
 107 00ac 0D000000 		.word	.L2+1
 108 00b0 0D000000 		.word	.L2+1
 109 00b4 0D000000 		.word	.L2+1
 110 00b8 0D000000 		.word	.L2+1
 111 00bc 43010000 		.word	.L7+1
 112 00c0 5B010000 		.word	.L6+1
 113 00c4 0D000000 		.word	.L2+1
 114 00c8 01010000 		.word	.L4+1
 115              		.p2align 1
 116              	.L13:
 444:Core/Src/freertos.c ****       case '0':                                  /* OFF: žąėŽŹôÍįí Ž¶¨žÖč + ž†ēžßÄ(žĖīŽäź Ž™®ŽďúŽď†
 445:Core/Src/freertos.c ****         sys_power = 0;
 117              		.loc 1 445 9 view .LVU12
 118              		.loc 1 445 19 is_stmt 0 view .LVU13
 119 00cc 0023     		movs	r3, #0
ARM GAS  C:\Users\user\AppData\Local\Temp\ccDst2FA.s 			page 11


 120 00ce 284A     		ldr	r2, .L16
 121 00d0 1370     		strb	r3, [r2]
 446:Core/Src/freertos.c ****         manual_left = 0;
 122              		.loc 1 446 9 is_stmt 1 view .LVU14
 123              		.loc 1 446 21 is_stmt 0 view .LVU15
 124 00d2 294A     		ldr	r2, .L16+8
 125 00d4 1370     		strb	r3, [r2]
 447:Core/Src/freertos.c ****         manual_right = 0;
 126              		.loc 1 447 9 is_stmt 1 view .LVU16
 127              		.loc 1 447 22 is_stmt 0 view .LVU17
 128 00d6 294A     		ldr	r2, .L16+12
 129 00d8 1370     		strb	r3, [r2]
 448:Core/Src/freertos.c ****         break;
 130              		.loc 1 448 9 is_stmt 1 view .LVU18
 131 00da 97E7     		b	.L2
 132              	.L11:
 449:Core/Src/freertos.c **** 
 450:Core/Src/freertos.c ****       /* ---- Ž™®ŪĄį Ž™®Žďú (Ž™®Žďú žĄ†ŪÉĚ = ž†Ąžõź ON žĽ§ŪĒĆŽßĀ) ----
 451:Core/Src/freertos.c ****        * žēĪžóź '1'(ž†Ąžõź ON) Ž≤ĄŪäľžĚī žóÜžĖī sys_powerÍįÄ 0žóź Ž¨∂žó¨ Ž™®ŪĄįÍįÄ Íįēž†úž†ēžßÄŪēėŽ
 452:Core/Src/freertos.c ****        * Ž™®ŽďúŽ•ľ Í≥†Ž•īŽäĒ Í≤É = ž£ľŪĖČ žĚėžā¨ ‚Üí sys_power=1. Ž∂ÄŪĆÖžĚÄ žó¨ž†ĄŪěą OFF(žēąž†Ą). 
 453:Core/Src/freertos.c ****       case 'A':                                  /* žěźžú®ž£ľŪĖČ */
 454:Core/Src/freertos.c ****         sys_mode = 0;
 133              		.loc 1 454 9 view .LVU19
 134              		.loc 1 454 18 is_stmt 0 view .LVU20
 135 00dc 284B     		ldr	r3, .L16+16
 136 00de 0022     		movs	r2, #0
 137 00e0 1A70     		strb	r2, [r3]
 455:Core/Src/freertos.c ****         sys_power = 1;
 138              		.loc 1 455 9 is_stmt 1 view .LVU21
 139              		.loc 1 455 19 is_stmt 0 view .LVU22
 140 00e2 234B     		ldr	r3, .L16
 141 00e4 0122     		movs	r2, #1
 142 00e6 1A70     		strb	r2, [r3]
 456:Core/Src/freertos.c ****         break;
 143              		.loc 1 456 9 is_stmt 1 view .LVU23
 144 00e8 90E7     		b	.L2
 145              	.L8:
 457:Core/Src/freertos.c ****       case 'M':                                  /* žąėŽŹô: žßĄžěÖ žčú ž†ēžßÄÍįížúľŽ°ú žčúžěĎ(ŽŹĆŽį
 458:Core/Src/freertos.c ****         sys_mode = 1;
 146              		.loc 1 458 9 view .LVU24
 147              		.loc 1 458 18 is_stmt 0 view .LVU25
 148 00ea 0123     		movs	r3, #1
 149 00ec 244A     		ldr	r2, .L16+16
 150 00ee 1370     		strb	r3, [r2]
 459:Core/Src/freertos.c ****         sys_power = 1;
 151              		.loc 1 459 9 is_stmt 1 view .LVU26
 152              		.loc 1 459 19 is_stmt 0 view .LVU27
 153 00f0 1F4A     		ldr	r2, .L16
 154 00f2 1370     		strb	r3, [r2]
 460:Core/Src/freertos.c ****         manual_left = 0;
 155              		.loc 1 460 9 is_stmt 1 view .LVU28
 156              		.loc 1 460 21 is_stmt 0 view .LVU29
 157 00f4 0023     		movs	r3, #0
 158 00f6 204A     		ldr	r2, .L16+8
 159 00f8 1370     		strb	r3, [r2]
 461:Core/Src/freertos.c ****         manual_right = 0;
 160              		.loc 1 461 9 is_stmt 1 view .LVU30
ARM GAS  C:\Users\user\AppData\Local\Temp\ccDst2FA.s 			page 12


 161              		.loc 1 461 22 is_stmt 0 view .LVU31
 162 00fa 204A     		ldr	r2, .L16+12
 163 00fc 1370     		strb	r3, [r2]
 462:Core/Src/freertos.c ****         break;
 164              		.loc 1 462 9 is_stmt 1 view .LVU32
 165 00fe 85E7     		b	.L2
 166              	.L4:
 463:Core/Src/freertos.c **** 
 464:Core/Src/freertos.c ****       /* ---- žąėŽŹô ž°įžěĎ (Manual Ž™®Žďú ž†Ąžö©) ---- */
 465:Core/Src/freertos.c ****       case 'U': if (sys_mode) { manual_left =  80; manual_right =  80; } break;  /* ž†ĄžßĄ */
 167              		.loc 1 465 17 view .LVU33
 168              		.loc 1 465 21 is_stmt 0 view .LVU34
 169 0100 1F4B     		ldr	r3, .L16+16
 170 0102 1B78     		ldrb	r3, [r3]	@ zero_extendqisi2
 171              		.loc 1 465 20 view .LVU35
 172 0104 002B     		cmp	r3, #0
 173 0106 81D0     		beq	.L2
 174              		.loc 1 465 33 is_stmt 1 discriminator 1 view .LVU36
 175              		.loc 1 465 45 is_stmt 0 discriminator 1 view .LVU37
 176 0108 5023     		movs	r3, #80
 177 010a 1B4A     		ldr	r2, .L16+8
 178 010c 1370     		strb	r3, [r2]
 179              		.loc 1 465 52 is_stmt 1 view .LVU38
 180              		.loc 1 465 65 is_stmt 0 discriminator 1 view .LVU39
 181 010e 1B4A     		ldr	r2, .L16+12
 182 0110 1370     		strb	r3, [r2]
 183 0112 7BE7     		b	.L2
 184              	.L10:
 466:Core/Src/freertos.c ****       case 'D': if (sys_mode) { manual_left = -80; manual_right = -80; } break;  /* ŪõĄžßĄ */
 185              		.loc 1 466 17 is_stmt 1 view .LVU40
 186              		.loc 1 466 21 is_stmt 0 view .LVU41
 187 0114 1A4B     		ldr	r3, .L16+16
 188 0116 1B78     		ldrb	r3, [r3]	@ zero_extendqisi2
 189              		.loc 1 466 20 view .LVU42
 190 0118 002B     		cmp	r3, #0
 191 011a 3FF477AF 		beq	.L2
 192              		.loc 1 466 33 is_stmt 1 discriminator 1 view .LVU43
 193              		.loc 1 466 45 is_stmt 0 discriminator 1 view .LVU44
 194 011e B023     		movs	r3, #176
 195 0120 154A     		ldr	r2, .L16+8
 196 0122 1370     		strb	r3, [r2]
 197              		.loc 1 466 52 is_stmt 1 view .LVU45
 198              		.loc 1 466 65 is_stmt 0 discriminator 1 view .LVU46
 199 0124 154A     		ldr	r2, .L16+12
 200 0126 1370     		strb	r3, [r2]
 201 0128 70E7     		b	.L2
 202              	.L9:
 467:Core/Src/freertos.c ****       case 'L': if (sys_mode) { manual_left = -60; manual_right =  60; } break;  /* žĘĆŪöĆž†Ą */
 203              		.loc 1 467 17 is_stmt 1 view .LVU47
 204              		.loc 1 467 21 is_stmt 0 view .LVU48
 205 012a 154B     		ldr	r3, .L16+16
 206 012c 1B78     		ldrb	r3, [r3]	@ zero_extendqisi2
 207              		.loc 1 467 20 view .LVU49
 208 012e 002B     		cmp	r3, #0
 209 0130 3FF46CAF 		beq	.L2
 210              		.loc 1 467 33 is_stmt 1 discriminator 1 view .LVU50
 211              		.loc 1 467 45 is_stmt 0 discriminator 1 view .LVU51
ARM GAS  C:\Users\user\AppData\Local\Temp\ccDst2FA.s 			page 13


 212 0134 104B     		ldr	r3, .L16+8
 213 0136 C422     		movs	r2, #196
 214 0138 1A70     		strb	r2, [r3]
 215              		.loc 1 467 52 is_stmt 1 view .LVU52
 216              		.loc 1 467 65 is_stmt 0 discriminator 1 view .LVU53
 217 013a 104B     		ldr	r3, .L16+12
 218 013c 3C22     		movs	r2, #60
 219 013e 1A70     		strb	r2, [r3]
 220 0140 64E7     		b	.L2
 221              	.L7:
 468:Core/Src/freertos.c ****       case 'R': if (sys_mode) { manual_left =  60; manual_right = -60; } break;  /* žöįŪöĆž†Ą */
 222              		.loc 1 468 17 is_stmt 1 view .LVU54
 223              		.loc 1 468 21 is_stmt 0 view .LVU55
 224 0142 0F4B     		ldr	r3, .L16+16
 225 0144 1B78     		ldrb	r3, [r3]	@ zero_extendqisi2
 226              		.loc 1 468 20 view .LVU56
 227 0146 002B     		cmp	r3, #0
 228 0148 3FF460AF 		beq	.L2
 229              		.loc 1 468 33 is_stmt 1 discriminator 1 view .LVU57
 230              		.loc 1 468 45 is_stmt 0 discriminator 1 view .LVU58
 231 014c 0A4B     		ldr	r3, .L16+8
 232 014e 3C22     		movs	r2, #60
 233 0150 1A70     		strb	r2, [r3]
 234              		.loc 1 468 52 is_stmt 1 view .LVU59
 235              		.loc 1 468 65 is_stmt 0 discriminator 1 view .LVU60
 236 0152 0A4B     		ldr	r3, .L16+12
 237 0154 C422     		movs	r2, #196
 238 0156 1A70     		strb	r2, [r3]
 239 0158 58E7     		b	.L2
 240              	.L6:
 469:Core/Src/freertos.c ****       case 'S': if (sys_mode) { manual_left =   0; manual_right =   0; } break;  /* ž†ēžßÄ */
 241              		.loc 1 469 17 is_stmt 1 view .LVU61
 242              		.loc 1 469 21 is_stmt 0 view .LVU62
 243 015a 094B     		ldr	r3, .L16+16
 244 015c 1B78     		ldrb	r3, [r3]	@ zero_extendqisi2
 245              		.loc 1 469 20 view .LVU63
 246 015e 002B     		cmp	r3, #0
 247 0160 3FF454AF 		beq	.L2
 248              		.loc 1 469 33 is_stmt 1 discriminator 1 view .LVU64
 249              		.loc 1 469 45 is_stmt 0 discriminator 1 view .LVU65
 250 0164 0023     		movs	r3, #0
 251 0166 044A     		ldr	r2, .L16+8
 252 0168 1370     		strb	r3, [r2]
 253              		.loc 1 469 52 is_stmt 1 view .LVU66
 254              		.loc 1 469 65 is_stmt 0 discriminator 1 view .LVU67
 255 016a 044A     		ldr	r2, .L16+12
 256 016c 1370     		strb	r3, [r2]
 257 016e 4DE7     		b	.L2
 258              	.L17:
 259              		.align	2
 260              	.L16:
 261 0170 00000000 		.word	sys_power
 262 0174 00000000 		.word	uartQHandle
 263 0178 00000000 		.word	manual_left
 264 017c 00000000 		.word	manual_right
 265 0180 00000000 		.word	sys_mode
 266              		.cfi_endproc
ARM GAS  C:\Users\user\AppData\Local\Temp\ccDst2FA.s 			page 14


 267              	.LFE141:
 269              		.section	.text.StartDefaultTask,"ax",%progbits
 270              		.align	1
 271              		.global	StartDefaultTask
 272              		.syntax unified
 273              		.thumb
 274              		.thumb_func
 276              	StartDefaultTask:
 277              	.LVL3:
 278              	.LFB139:
 207:Core/Src/freertos.c ****   /* USER CODE BEGIN StartDefaultTask */
 279              		.loc 1 207 1 is_stmt 1 view -0
 280              		.cfi_startproc
 281              		@ args = 0, pretend = 0, frame = 24
 282              		@ frame_needed = 0, uses_anonymous_args = 0
 207:Core/Src/freertos.c ****   /* USER CODE BEGIN StartDefaultTask */
 283              		.loc 1 207 1 is_stmt 0 view .LVU69
 284 0000 30B5     		push	{r4, r5, lr}
 285              	.LCFI2:
 286              		.cfi_def_cfa_offset 12
 287              		.cfi_offset 4, -12
 288              		.cfi_offset 5, -8
 289              		.cfi_offset 14, -4
 290 0002 87B0     		sub	sp, sp, #28
 291              	.LCFI3:
 292              		.cfi_def_cfa_offset 40
 209:Core/Src/freertos.c **** 
 293              		.loc 1 209 3 is_stmt 1 view .LVU70
 230:Core/Src/freertos.c ****   uint8_t prev_auto = 0;   /* žßĀž†Ą Ž£®ŪĒĄÍįÄ žěźžú® ÍĶ¨ŽŹô? M‚ÜíA / OFF‚ÜíA žě¨žßĄžěÖ edge Í≤Äž∂ú
 294              		.loc 1 230 3 view .LVU71
 231:Core/Src/freertos.c ****   for(;;)
 295              		.loc 1 231 3 view .LVU72
 296              	.LVL4:
 231:Core/Src/freertos.c ****   for(;;)
 297              		.loc 1 231 11 is_stmt 0 view .LVU73
 298 0004 0024     		movs	r4, #0
 299 0006 23E0     		b	.L24
 300              	.LVL5:
 301              	.L20:
 244:Core/Src/freertos.c ****       {
 302              		.loc 1 244 12 is_stmt 1 view .LVU74
 244:Core/Src/freertos.c ****       {
 303              		.loc 1 244 25 is_stmt 0 view .LVU75
 304 0008 1C4B     		ldr	r3, .L28
 305 000a 1B78     		ldrb	r3, [r3]	@ zero_extendqisi2
 244:Core/Src/freertos.c ****       {
 306              		.loc 1 244 15 view .LVU76
 307 000c 012B     		cmp	r3, #1
 308 000e 04D0     		beq	.L26
 252:Core/Src/freertos.c ****         {
 309              		.loc 1 252 9 is_stmt 1 view .LVU77
 252:Core/Src/freertos.c ****         {
 310              		.loc 1 252 12 is_stmt 0 view .LVU78
 311 0010 7CB1     		cbz	r4, .L27
 312              	.LVL6:
 313              	.L23:
 257:Core/Src/freertos.c ****       }
ARM GAS  C:\Users\user\AppData\Local\Temp\ccDst2FA.s 			page 15


 314              		.loc 1 257 9 is_stmt 1 view .LVU79
 315 0012 01A8     		add	r0, sp, #4
 316 0014 FFF7FEFF 		bl	Drive_Update
 317              	.LVL7:
 318 0018 15E0     		b	.L21
 319              	.L26:
 246:Core/Src/freertos.c ****         Motor_Right(manual_right);
 320              		.loc 1 246 9 view .LVU80
 321 001a 194B     		ldr	r3, .L28+4
 322 001c 1878     		ldrb	r0, [r3]	@ zero_extendqisi2
 323 001e 40B2     		sxtb	r0, r0
 324 0020 FFF7FEFF 		bl	Motor_Left
 325              	.LVL8:
 247:Core/Src/freertos.c ****         prev_auto = 0;
 326              		.loc 1 247 9 view .LVU81
 327 0024 174B     		ldr	r3, .L28+8
 328 0026 1878     		ldrb	r0, [r3]	@ zero_extendqisi2
 329 0028 40B2     		sxtb	r0, r0
 330 002a FFF7FEFF 		bl	Motor_Right
 331              	.LVL9:
 248:Core/Src/freertos.c ****       }
 332              		.loc 1 248 9 view .LVU82
 248:Core/Src/freertos.c ****       }
 333              		.loc 1 248 19 is_stmt 0 view .LVU83
 334 002e 0024     		movs	r4, #0
 335 0030 09E0     		b	.L21
 336              	.LVL10:
 337              	.L27:
 254:Core/Src/freertos.c ****           prev_auto = 1;
 338              		.loc 1 254 11 is_stmt 1 view .LVU84
 339 0032 FFF7FEFF 		bl	Drive_Init
 340              	.LVL11:
 255:Core/Src/freertos.c ****         }
 341              		.loc 1 255 11 view .LVU85
 255:Core/Src/freertos.c ****         }
 342              		.loc 1 255 21 is_stmt 0 view .LVU86
 343 0036 0124     		movs	r4, #1
 344 0038 EBE7     		b	.L23
 345              	.LVL12:
 346              	.L19:
 262:Core/Src/freertos.c ****       Car_Stop();           /* žĄľžĄú žĻ®Ž¨Ķ ŽŹôžēą žēąž†Ą ž†ēžßÄ. refresh žÉĚŽěĶ ‚Üí žßÄžÜć žčú IW
 347              		.loc 1 262 7 is_stmt 1 view .LVU87
 262:Core/Src/freertos.c ****       Car_Stop();           /* žĄľžĄú žĻ®Ž¨Ķ ŽŹôžēą žēąž†Ą ž†ēžßÄ. refresh žÉĚŽěĶ ‚Üí žßÄžÜć žčú IW
 348              		.loc 1 262 20 is_stmt 0 view .LVU88
 349 003a 134A     		ldr	r2, .L28+12
 350 003c 1368     		ldr	r3, [r2]
 351 003e 0133     		adds	r3, r3, #1
 352 0040 1360     		str	r3, [r2]
 263:Core/Src/freertos.c ****     }
 353              		.loc 1 263 7 is_stmt 1 view .LVU89
 354 0042 FFF7FEFF 		bl	Car_Stop
 355              	.LVL13:
 356              	.L21:
 265:Core/Src/freertos.c ****   }
 357              		.loc 1 265 5 view .LVU90
 265:Core/Src/freertos.c ****   }
 358              		.loc 1 265 30 is_stmt 0 view .LVU91
ARM GAS  C:\Users\user\AppData\Local\Temp\ccDst2FA.s 			page 16


 359 0046 0020     		movs	r0, #0
 360 0048 FFF7FEFF 		bl	uxTaskGetStackHighWaterMark
 361              	.LVL14:
 265:Core/Src/freertos.c ****   }
 362              		.loc 1 265 18 discriminator 1 view .LVU92
 363 004c 0F4B     		ldr	r3, .L28+16
 364 004e 1860     		str	r0, [r3]
 232:Core/Src/freertos.c ****   {
 365              		.loc 1 232 3 is_stmt 1 view .LVU93
 366              	.LVL15:
 367              	.L24:
 232:Core/Src/freertos.c ****   {
 368              		.loc 1 232 3 view .LVU94
 234:Core/Src/freertos.c ****     {
 369              		.loc 1 234 5 view .LVU95
 234:Core/Src/freertos.c ****     {
 370              		.loc 1 234 9 is_stmt 0 view .LVU96
 371 0050 9623     		movs	r3, #150
 372 0052 0022     		movs	r2, #0
 373 0054 01A9     		add	r1, sp, #4
 374 0056 0E48     		ldr	r0, .L28+20
 375 0058 0068     		ldr	r0, [r0]
 376 005a FFF7FEFF 		bl	osMessageQueueGet
 377              	.LVL16:
 234:Core/Src/freertos.c ****     {
 378              		.loc 1 234 8 discriminator 1 view .LVU97
 379 005e 0028     		cmp	r0, #0
 380 0060 EBD1     		bne	.L19
 236:Core/Src/freertos.c **** 
 381              		.loc 1 236 7 is_stmt 1 view .LVU98
 382 0062 0C48     		ldr	r0, .L28+24
 383 0064 FFF7FEFF 		bl	HAL_IWDG_Refresh
 384              	.LVL17:
 239:Core/Src/freertos.c ****       {
 385              		.loc 1 239 7 view .LVU99
 239:Core/Src/freertos.c ****       {
 386              		.loc 1 239 21 is_stmt 0 view .LVU100
 387 0068 0B4B     		ldr	r3, .L28+28
 388 006a 1B78     		ldrb	r3, [r3]	@ zero_extendqisi2
 239:Core/Src/freertos.c ****       {
 389              		.loc 1 239 10 view .LVU101
 390 006c 03F0FF05 		and	r5, r3, #255
 391 0070 002B     		cmp	r3, #0
 392 0072 C9D1     		bne	.L20
 241:Core/Src/freertos.c ****         prev_auto = 0;
 393              		.loc 1 241 9 is_stmt 1 view .LVU102
 394 0074 FFF7FEFF 		bl	Car_Stop
 395              	.LVL18:
 242:Core/Src/freertos.c ****       }
 396              		.loc 1 242 9 view .LVU103
 242:Core/Src/freertos.c ****       }
 397              		.loc 1 242 19 is_stmt 0 view .LVU104
 398 0078 2C46     		mov	r4, r5
 399 007a E4E7     		b	.L21
 400              	.L29:
 401              		.align	2
 402              	.L28:
ARM GAS  C:\Users\user\AppData\Local\Temp\ccDst2FA.s 			page 17


 403 007c 00000000 		.word	sys_mode
 404 0080 00000000 		.word	manual_left
 405 0084 00000000 		.word	manual_right
 406 0088 00000000 		.word	dbg_q_timeout
 407 008c 00000000 		.word	dbg_hw_motor
 408 0090 00000000 		.word	driveQ
 409 0094 00000000 		.word	hiwdg
 410 0098 00000000 		.word	sys_power
 411              		.cfi_endproc
 412              	.LFE139:
 414              		.section	.text.StartTask02,"ax",%progbits
 415              		.align	1
 416              		.global	StartTask02
 417              		.syntax unified
 418              		.thumb
 419              		.thumb_func
 421              	StartTask02:
 422              	.LVL19:
 423              	.LFB140:
 279:Core/Src/freertos.c ****   /* USER CODE BEGIN StartTask02 */
 424              		.loc 1 279 1 is_stmt 1 view -0
 425              		.cfi_startproc
 426              		@ args = 0, pretend = 0, frame = 32
 427              		@ frame_needed = 0, uses_anonymous_args = 0
 279:Core/Src/freertos.c ****   /* USER CODE BEGIN StartTask02 */
 428              		.loc 1 279 1 is_stmt 0 view .LVU106
 429 0000 2DE9F041 		push	{r4, r5, r6, r7, r8, lr}
 430              	.LCFI4:
 431              		.cfi_def_cfa_offset 24
 432              		.cfi_offset 4, -24
 433              		.cfi_offset 5, -20
 434              		.cfi_offset 6, -16
 435              		.cfi_offset 7, -12
 436              		.cfi_offset 8, -8
 437              		.cfi_offset 14, -4
 438 0004 88B0     		sub	sp, sp, #32
 439              	.LCFI5:
 440              		.cfi_def_cfa_offset 56
 281:Core/Src/freertos.c **** 
 441              		.loc 1 281 3 is_stmt 1 view .LVU107
 289:Core/Src/freertos.c ****   for (int ch = 0; ch < 3; ch++)
 442              		.loc 1 289 3 view .LVU108
 290:Core/Src/freertos.c ****       for (int i = 0; i < SIDE_MED_WIN; i++) hist[ch][i] = ULTRA_MAX_CM;
 443              		.loc 1 290 3 view .LVU109
 444              	.LBB2:
 290:Core/Src/freertos.c ****       for (int i = 0; i < SIDE_MED_WIN; i++) hist[ch][i] = ULTRA_MAX_CM;
 445              		.loc 1 290 8 view .LVU110
 446              	.LVL20:
 290:Core/Src/freertos.c ****       for (int i = 0; i < SIDE_MED_WIN; i++) hist[ch][i] = ULTRA_MAX_CM;
 447              		.loc 1 290 12 is_stmt 0 view .LVU111
 448 0006 0021     		movs	r1, #0
 290:Core/Src/freertos.c ****       for (int i = 0; i < SIDE_MED_WIN; i++) hist[ch][i] = ULTRA_MAX_CM;
 449              		.loc 1 290 3 view .LVU112
 450 0008 0AE0     		b	.L31
 451              	.LVL21:
 452              	.L32:
 453              	.LBB3:
ARM GAS  C:\Users\user\AppData\Local\Temp\ccDst2FA.s 			page 18


 291:Core/Src/freertos.c ****   static uint8_t  front_miss = 0;   /* ž†ēŽ©ī žóźžĹĒ žóįžÜć ŽĮłŪöĆžč† (drive.c HOLD ŪĆźž†ē žěÖŽ†•) 
 454              		.loc 1 291 46 is_stmt 1 discriminator 3 view .LVU113
 291:Core/Src/freertos.c ****   static uint8_t  front_miss = 0;   /* ž†ēŽ©ī žóźžĹĒ žóįžÜć ŽĮłŪöĆžč† (drive.c HOLD ŪĆźž†ē žěÖŽ†•) 
 455              		.loc 1 291 58 is_stmt 0 discriminator 3 view .LVU114
 456 000a 01EB4102 		add	r2, r1, r1, lsl #1
 457 000e 1A44     		add	r2, r2, r3
 458 0010 A748     		ldr	r0, .L66
 459 0012 C824     		movs	r4, #200
 460 0014 20F81240 		strh	r4, [r0, r2, lsl #1]	@ movhi
 291:Core/Src/freertos.c ****   static uint8_t  front_miss = 0;   /* ž†ēŽ©ī žóźžĹĒ žóįžÜć ŽĮłŪöĆžč† (drive.c HOLD ŪĆźž†ē žěÖŽ†•) 
 461              		.loc 1 291 42 is_stmt 1 discriminator 3 view .LVU115
 462 0018 0133     		adds	r3, r3, #1
 463              	.LVL22:
 464              	.L33:
 291:Core/Src/freertos.c ****   static uint8_t  front_miss = 0;   /* ž†ēŽ©ī žóźžĹĒ žóįžÜć ŽĮłŪöĆžč† (drive.c HOLD ŪĆźž†ē žěÖŽ†•) 
 465              		.loc 1 291 25 discriminator 1 view .LVU116
 466 001a 022B     		cmp	r3, #2
 467 001c F5DD     		ble	.L32
 468              	.LBE3:
 290:Core/Src/freertos.c ****       for (int i = 0; i < SIDE_MED_WIN; i++) hist[ch][i] = ULTRA_MAX_CM;
 469              		.loc 1 290 30 discriminator 2 view .LVU117
 470 001e 0131     		adds	r1, r1, #1
 471              	.LVL23:
 472              	.L31:
 290:Core/Src/freertos.c ****       for (int i = 0; i < SIDE_MED_WIN; i++) hist[ch][i] = ULTRA_MAX_CM;
 473              		.loc 1 290 23 discriminator 1 view .LVU118
 474 0020 0229     		cmp	r1, #2
 475 0022 01DC     		bgt	.L59
 476              	.LBB4:
 291:Core/Src/freertos.c ****   static uint8_t  front_miss = 0;   /* ž†ēŽ©ī žóźžĹĒ žóįžÜć ŽĮłŪöĆžč† (drive.c HOLD ŪĆźž†ē žěÖŽ†•) 
 477              		.loc 1 291 16 is_stmt 0 view .LVU119
 478 0024 0023     		movs	r3, #0
 479 0026 F8E7     		b	.L33
 480              	.L59:
 481              	.LBE4:
 482              	.LBE2:
 292:Core/Src/freertos.c ****   static uint8_t  side_miss[3] = {0,0,0};  /* žł°Ž©ī ch1(L)/ch2(R) žóįžÜć Ž¨īžóźžĹĒ ‚ÄĒ ŪēúÍ≥Ą žīąÍ
 483              		.loc 1 292 3 is_stmt 1 view .LVU120
 293:Core/Src/freertos.c ****   static uint8_t  imu_live = 0;     /* IMU žÉĚž°ī Í≤ĆžĚīŪäł */
 484              		.loc 1 293 3 view .LVU121
 294:Core/Src/freertos.c ****   static uint8_t  imu_fail = 0;     /* žĚĹÍłį žóįžÜć žč§ŪĆ® žĻīžöīŪäł */
 485              		.loc 1 294 3 view .LVU122
 295:Core/Src/freertos.c ****   static uint32_t t_imu_retry = 0;  /* žā¨ŽßĚ ŪõĄ žě¨žčúŽŹĄ ŪÉÄžĚīŽ®ł */
 486              		.loc 1 295 3 view .LVU123
 296:Core/Src/freertos.c ****   static uint32_t t_calib = 0;      /* CALIB_STAT ŽĒĒŽ≤ĄÍ∑ł žĚĹÍłį žä§Ž°úŪčÄ */
 487              		.loc 1 296 3 view .LVU124
 297:Core/Src/freertos.c ****   static uint32_t t_loop = 0;       /* žā¨žĚīŪĀī ž£ľÍłį žł°ž†ē */
 488              		.loc 1 297 3 view .LVU125
 298:Core/Src/freertos.c ****   static BNO055_Euler imu;          /* žĶúÍ∑ľ žúĶŪē©Íįí (read žč§ŪĆ® žčú žßĀž†ĄÍįí žú†žßÄ) */
 489              		.loc 1 298 3 view .LVU126
 299:Core/Src/freertos.c **** 
 490              		.loc 1 299 3 view .LVU127
 301:Core/Src/freertos.c ****   uint16_t d_snap[3];
 491              		.loc 1 301 3 view .LVU128
 492              	.LVL24:
 302:Core/Src/freertos.c ****   uint8_t  v_snap[3];
 493              		.loc 1 302 3 view .LVU129
ARM GAS  C:\Users\user\AppData\Local\Temp\ccDst2FA.s 			page 19


 303:Core/Src/freertos.c **** 
 494              		.loc 1 303 3 view .LVU130
 305:Core/Src/freertos.c ****   imu_live = dbg_imu_ok;            /* Init žĄĪÍ≥ĶŪĖąžĚĄ ŽēĆŽßĆ žÉĚž°ī žčúžěĎ (žč§ŪĆ® žčú ÍĪįŽ¶¨-on
 495              		.loc 1 305 3 view .LVU131
 496 0028 FFF7FEFF 		bl	osThreadGetId
 497              	.LVL25:
 305:Core/Src/freertos.c ****   imu_live = dbg_imu_ok;            /* Init žĄĪÍ≥ĶŪĖąžĚĄ ŽēĆŽßĆ žÉĚž°ī žčúžěĎ (žč§ŪĆ® žčú ÍĪįŽ¶¨-on
 498              		.loc 1 305 3 is_stmt 0 discriminator 1 view .LVU132
 499 002c FFF7FEFF 		bl	Ultra_Init
 500              	.LVL26:
 306:Core/Src/freertos.c **** 
 501              		.loc 1 306 3 is_stmt 1 view .LVU133
 306:Core/Src/freertos.c **** 
 502              		.loc 1 306 12 is_stmt 0 view .LVU134
 503 0030 A04B     		ldr	r3, .L66+4
 504 0032 1A78     		ldrb	r2, [r3]	@ zero_extendqisi2
 505 0034 A04B     		ldr	r3, .L66+8
 506 0036 1A70     		strb	r2, [r3]
 301:Core/Src/freertos.c ****   uint16_t d_snap[3];
 507              		.loc 1 301 48 view .LVU135
 508 0038 C827     		movs	r7, #200
 301:Core/Src/freertos.c ****   uint16_t d_snap[3];
 509              		.loc 1 301 30 view .LVU136
 510 003a B846     		mov	r8, r7
 511 003c C4E0     		b	.L54
 512              	.LVL27:
 513              	.L34:
 514              	.LBB5:
 321:Core/Src/freertos.c ****       dbg_front_miss = front_miss;
 515              		.loc 1 321 12 is_stmt 1 view .LVU137
 321:Core/Src/freertos.c ****       dbg_front_miss = front_miss;
 516              		.loc 1 321 27 is_stmt 0 view .LVU138
 517 003e 9F4B     		ldr	r3, .L66+12
 518 0040 1B78     		ldrb	r3, [r3]	@ zero_extendqisi2
 321:Core/Src/freertos.c ****       dbg_front_miss = front_miss;
 519              		.loc 1 321 15 view .LVU139
 520 0042 FF2B     		cmp	r3, #255
 521 0044 00F0D780 		beq	.L35
 321:Core/Src/freertos.c ****       dbg_front_miss = front_miss;
 522              		.loc 1 321 36 is_stmt 1 discriminator 1 view .LVU140
 321:Core/Src/freertos.c ****       dbg_front_miss = front_miss;
 523              		.loc 1 321 46 is_stmt 0 discriminator 1 view .LVU141
 524 0048 0133     		adds	r3, r3, #1
 525 004a 9C4A     		ldr	r2, .L66+12
 526 004c 1370     		strb	r3, [r2]
 527 004e D2E0     		b	.L35
 528              	.LVL28:
 529              	.L38:
 530              	.LBB6:
 326:Core/Src/freertos.c ****           hist[0][0] = d_snap[0];
 531              		.loc 1 326 54 is_stmt 1 discriminator 3 view .LVU142
 326:Core/Src/freertos.c ****           hist[0][0] = d_snap[0];
 532              		.loc 1 326 77 is_stmt 0 discriminator 3 view .LVU143
 533 0050 5A1E     		subs	r2, r3, #1
 326:Core/Src/freertos.c ****           hist[0][0] = d_snap[0];
 534              		.loc 1 326 74 discriminator 3 view .LVU144
 535 0052 9749     		ldr	r1, .L66
ARM GAS  C:\Users\user\AppData\Local\Temp\ccDst2FA.s 			page 20


 536 0054 31F81200 		ldrh	r0, [r1, r2, lsl #1]
 326:Core/Src/freertos.c ****           hist[0][0] = d_snap[0];
 537              		.loc 1 326 65 discriminator 3 view .LVU145
 538 0058 21F81300 		strh	r0, [r1, r3, lsl #1]	@ movhi
 326:Core/Src/freertos.c ****           hist[0][0] = d_snap[0];
 539              		.loc 1 326 50 is_stmt 1 discriminator 3 view .LVU146
 540              	.LVL29:
 326:Core/Src/freertos.c ****           hist[0][0] = d_snap[0];
 541              		.loc 1 326 50 is_stmt 0 discriminator 3 view .LVU147
 542 005c 1346     		mov	r3, r2
 543              	.LVL30:
 544              	.L36:
 326:Core/Src/freertos.c ****           hist[0][0] = d_snap[0];
 545              		.loc 1 326 44 is_stmt 1 discriminator 1 view .LVU148
 546 005e 002B     		cmp	r3, #0
 547 0060 F6DC     		bgt	.L38
 548              	.LBE6:
 327:Core/Src/freertos.c ****       }
 549              		.loc 1 327 11 view .LVU149
 327:Core/Src/freertos.c ****       }
 550              		.loc 1 327 30 is_stmt 0 view .LVU150
 551 0062 BDF81820 		ldrh	r2, [sp, #24]
 327:Core/Src/freertos.c ****       }
 552              		.loc 1 327 22 view .LVU151
 553 0066 924B     		ldr	r3, .L66
 554              	.LVL31:
 327:Core/Src/freertos.c ****       }
 555              		.loc 1 327 22 view .LVU152
 556 0068 1A80     		strh	r2, [r3]	@ movhi
 557 006a CBE0     		b	.L37
 558              	.LVL32:
 559              	.L64:
 560              	.LBB7:
 326:Core/Src/freertos.c ****           hist[0][0] = d_snap[0];
 561              		.loc 1 326 20 view .LVU153
 562 006c 0223     		movs	r3, #2
 563 006e F6E7     		b	.L36
 564              	.LVL33:
 565              	.L65:
 326:Core/Src/freertos.c ****           hist[0][0] = d_snap[0];
 566              		.loc 1 326 20 view .LVU154
 567              	.LBE7:
 568              	.LBB8:
 333:Core/Src/freertos.c ****           early.f          = f;
 569              		.loc 1 333 11 is_stmt 1 view .LVU155
 334:Core/Src/freertos.c ****           early.l          = l;            /* žßĀž†Ą žā¨žĚīŪĀī ŪēĄŪĄįÍįí ‚ÄĒ ž†úŽŹô ŪĆźž†ēžóĒ fŽßĆ 
 570              		.loc 1 334 11 view .LVU156
 334:Core/Src/freertos.c ****           early.l          = l;            /* žßĀž†Ą žā¨žĚīŪĀī ŪēĄŪĄįÍįí ‚ÄĒ ž†úŽŹô ŪĆźž†ēžóĒ fŽßĆ 
 571              		.loc 1 334 28 is_stmt 0 view .LVU157
 572 0070 ADF80060 		strh	r6, [sp]	@ movhi
 335:Core/Src/freertos.c ****           early.r          = r;
 573              		.loc 1 335 11 is_stmt 1 view .LVU158
 335:Core/Src/freertos.c ****           early.r          = r;
 574              		.loc 1 335 28 is_stmt 0 view .LVU159
 575 0074 ADF80280 		strh	r8, [sp, #2]	@ movhi
 336:Core/Src/freertos.c ****           early.f_valid    = v_snap[0];
 576              		.loc 1 336 11 is_stmt 1 view .LVU160
ARM GAS  C:\Users\user\AppData\Local\Temp\ccDst2FA.s 			page 21


 336:Core/Src/freertos.c ****           early.f_valid    = v_snap[0];
 577              		.loc 1 336 28 is_stmt 0 view .LVU161
 578 0078 ADF80470 		strh	r7, [sp, #4]	@ movhi
 337:Core/Src/freertos.c ****           early.front_miss = front_miss;
 579              		.loc 1 337 11 is_stmt 1 view .LVU162
 337:Core/Src/freertos.c ****           early.front_miss = front_miss;
 580              		.loc 1 337 28 is_stmt 0 view .LVU163
 581 007c 8DF80640 		strb	r4, [sp, #6]
 338:Core/Src/freertos.c ****           early.heading    = imu.heading;
 582              		.loc 1 338 11 is_stmt 1 view .LVU164
 338:Core/Src/freertos.c ****           early.heading    = imu.heading;
 583              		.loc 1 338 28 is_stmt 0 view .LVU165
 584 0080 8E4B     		ldr	r3, .L66+12
 585 0082 1B78     		ldrb	r3, [r3]	@ zero_extendqisi2
 586 0084 8DF80730 		strb	r3, [sp, #7]
 339:Core/Src/freertos.c ****           early.imu_live   = imu_live;
 587              		.loc 1 339 11 is_stmt 1 view .LVU166
 339:Core/Src/freertos.c ****           early.imu_live   = imu_live;
 588              		.loc 1 339 33 is_stmt 0 view .LVU167
 589 0088 8D4B     		ldr	r3, .L66+16
 590 008a 1B68     		ldr	r3, [r3]	@ float
 339:Core/Src/freertos.c ****           early.imu_live   = imu_live;
 591              		.loc 1 339 28 view .LVU168
 592 008c 0293     		str	r3, [sp, #8]	@ float
 340:Core/Src/freertos.c ****           early.now        = HAL_GetTick();
 593              		.loc 1 340 11 is_stmt 1 view .LVU169
 340:Core/Src/freertos.c ****           early.now        = HAL_GetTick();
 594              		.loc 1 340 28 is_stmt 0 view .LVU170
 595 008e 8A4B     		ldr	r3, .L66+8
 596 0090 1B78     		ldrb	r3, [r3]	@ zero_extendqisi2
 597 0092 8DF80C30 		strb	r3, [sp, #12]
 341:Core/Src/freertos.c ****           if (osMessageQueuePut(driveQ, &early, 0U, 0U) != osOK) { dbg_q_drop++; }
 598              		.loc 1 341 11 is_stmt 1 view .LVU171
 341:Core/Src/freertos.c ****           if (osMessageQueuePut(driveQ, &early, 0U, 0U) != osOK) { dbg_q_drop++; }
 599              		.loc 1 341 30 is_stmt 0 view .LVU172
 600 0096 FFF7FEFF 		bl	HAL_GetTick
 601              	.LVL34:
 341:Core/Src/freertos.c ****           if (osMessageQueuePut(driveQ, &early, 0U, 0U) != osOK) { dbg_q_drop++; }
 602              		.loc 1 341 28 discriminator 1 view .LVU173
 603 009a 0490     		str	r0, [sp, #16]
 342:Core/Src/freertos.c ****       }
 604              		.loc 1 342 11 is_stmt 1 view .LVU174
 342:Core/Src/freertos.c ****       }
 605              		.loc 1 342 15 is_stmt 0 view .LVU175
 606 009c 0023     		movs	r3, #0
 607 009e 1A46     		mov	r2, r3
 608 00a0 6946     		mov	r1, sp
 609 00a2 8848     		ldr	r0, .L66+20
 610 00a4 0068     		ldr	r0, [r0]
 611 00a6 FFF7FEFF 		bl	osMessageQueuePut
 612              	.LVL35:
 342:Core/Src/freertos.c ****       }
 613              		.loc 1 342 14 discriminator 1 view .LVU176
 614 00aa 0028     		cmp	r0, #0
 615 00ac 00F0B580 		beq	.L39
 342:Core/Src/freertos.c ****       }
 616              		.loc 1 342 68 is_stmt 1 discriminator 1 view .LVU177
ARM GAS  C:\Users\user\AppData\Local\Temp\ccDst2FA.s 			page 22


 342:Core/Src/freertos.c ****       }
 617              		.loc 1 342 78 is_stmt 0 discriminator 1 view .LVU178
 618 00b0 854A     		ldr	r2, .L66+24
 619 00b2 1368     		ldr	r3, [r2]
 620 00b4 0133     		adds	r3, r3, #1
 621 00b6 1360     		str	r3, [r2]
 622 00b8 AFE0     		b	.L39
 623              	.LVL36:
 624              	.L61:
 342:Core/Src/freertos.c ****       }
 625              		.loc 1 342 78 discriminator 1 view .LVU179
 626              	.LBE8:
 627              	.LBB9:
 353:Core/Src/freertos.c ****               for (int i = SIDE_MED_WIN - 1; i > 0; i--) hist[ch][i] = hist[ch][i - 1];
 628              		.loc 1 353 15 is_stmt 1 view .LVU180
 353:Core/Src/freertos.c ****               for (int i = SIDE_MED_WIN - 1; i > 0; i--) hist[ch][i] = hist[ch][i - 1];
 629              		.loc 1 353 29 is_stmt 0 view .LVU181
 630 00ba 844A     		ldr	r2, .L66+28
 631 00bc 0021     		movs	r1, #0
 632 00be D154     		strb	r1, [r2, r3]
 354:Core/Src/freertos.c ****               hist[ch][0] = d_snap[ch];
 633              		.loc 1 354 15 is_stmt 1 view .LVU182
 634              	.LBB10:
 354:Core/Src/freertos.c ****               hist[ch][0] = d_snap[ch];
 635              		.loc 1 354 20 view .LVU183
 636              	.LVL37:
 354:Core/Src/freertos.c ****               hist[ch][0] = d_snap[ch];
 637              		.loc 1 354 24 is_stmt 0 view .LVU184
 638 00c0 0222     		movs	r2, #2
 354:Core/Src/freertos.c ****               hist[ch][0] = d_snap[ch];
 639              		.loc 1 354 15 view .LVU185
 640 00c2 0BE0     		b	.L43
 641              	.LVL38:
 642              	.L44:
 354:Core/Src/freertos.c ****               hist[ch][0] = d_snap[ch];
 643              		.loc 1 354 58 is_stmt 1 discriminator 3 view .LVU186
 354:Core/Src/freertos.c ****               hist[ch][0] = d_snap[ch];
 644              		.loc 1 354 83 is_stmt 0 discriminator 3 view .LVU187
 645 00c4 501E     		subs	r0, r2, #1
 354:Core/Src/freertos.c ****               hist[ch][0] = d_snap[ch];
 646              		.loc 1 354 80 discriminator 3 view .LVU188
 647 00c6 7A4F     		ldr	r7, .L66
 648 00c8 03EB4301 		add	r1, r3, r3, lsl #1
 649 00cc 01EB000C 		add	ip, r1, r0
 650 00d0 37F81CC0 		ldrh	ip, [r7, ip, lsl #1]
 354:Core/Src/freertos.c ****               hist[ch][0] = d_snap[ch];
 651              		.loc 1 354 70 discriminator 3 view .LVU189
 652 00d4 1144     		add	r1, r1, r2
 653 00d6 27F811C0 		strh	ip, [r7, r1, lsl #1]	@ movhi
 354:Core/Src/freertos.c ****               hist[ch][0] = d_snap[ch];
 654              		.loc 1 354 54 is_stmt 1 discriminator 3 view .LVU190
 655              	.LVL39:
 354:Core/Src/freertos.c ****               hist[ch][0] = d_snap[ch];
 656              		.loc 1 354 54 is_stmt 0 discriminator 3 view .LVU191
 657 00da 0246     		mov	r2, r0
 658              	.LVL40:
 659              	.L43:
ARM GAS  C:\Users\user\AppData\Local\Temp\ccDst2FA.s 			page 23


 354:Core/Src/freertos.c ****               hist[ch][0] = d_snap[ch];
 660              		.loc 1 354 48 is_stmt 1 discriminator 1 view .LVU192
 661 00dc 002A     		cmp	r2, #0
 662 00de F1DC     		bgt	.L44
 663              	.LBE10:
 355:Core/Src/freertos.c ****           }
 664              		.loc 1 355 15 view .LVU193
 355:Core/Src/freertos.c ****           }
 665              		.loc 1 355 35 is_stmt 0 view .LVU194
 666 00e0 08AA     		add	r2, sp, #32
 667              	.LVL41:
 355:Core/Src/freertos.c ****           }
 668              		.loc 1 355 35 view .LVU195
 669 00e2 02EB4302 		add	r2, r2, r3, lsl #1
 670 00e6 32F8080C 		ldrh	r0, [r2, #-8]
 355:Core/Src/freertos.c ****           }
 671              		.loc 1 355 27 view .LVU196
 672 00ea 03EB4302 		add	r2, r3, r3, lsl #1
 673 00ee 7049     		ldr	r1, .L66
 674 00f0 21F81200 		strh	r0, [r1, r2, lsl #1]	@ movhi
 675              	.LVL42:
 676              	.L45:
 349:Core/Src/freertos.c ****       {
 677              		.loc 1 349 34 is_stmt 1 discriminator 2 view .LVU197
 678 00f4 0133     		adds	r3, r3, #1
 679              	.LVL43:
 680              	.L41:
 349:Core/Src/freertos.c ****       {
 681              		.loc 1 349 27 discriminator 1 view .LVU198
 682 00f6 022B     		cmp	r3, #2
 683 00f8 1DDC     		bgt	.L60
 351:Core/Src/freertos.c ****           {
 684              		.loc 1 351 11 view .LVU199
 351:Core/Src/freertos.c ****           {
 685              		.loc 1 351 21 is_stmt 0 view .LVU200
 686 00fa 03F12002 		add	r2, r3, #32
 687 00fe 6A44     		add	r2, sp, r2
 688 0100 12F80C2C 		ldrb	r2, [r2, #-12]	@ zero_extendqisi2
 351:Core/Src/freertos.c ****           {
 689              		.loc 1 351 14 view .LVU201
 690 0104 002A     		cmp	r2, #0
 691 0106 D8D1     		bne	.L61
 357:Core/Src/freertos.c ****           {
 692              		.loc 1 357 16 is_stmt 1 view .LVU202
 357:Core/Src/freertos.c ****           {
 693              		.loc 1 357 29 is_stmt 0 view .LVU203
 694 0108 704A     		ldr	r2, .L66+28
 695 010a D25C     		ldrb	r2, [r2, r3]	@ zero_extendqisi2
 357:Core/Src/freertos.c ****           {
 696              		.loc 1 357 19 view .LVU204
 697 010c FF2A     		cmp	r2, #255
 698 010e F1D0     		beq	.L45
 361:Core/Src/freertos.c ****                   for (int i = 0; i < SIDE_MED_WIN; i++) hist[ch][i] = ULTRA_MAX_CM;
 699              		.loc 1 361 15 is_stmt 1 view .LVU205
 361:Core/Src/freertos.c ****                   for (int i = 0; i < SIDE_MED_WIN; i++) hist[ch][i] = ULTRA_MAX_CM;
 700              		.loc 1 361 19 is_stmt 0 view .LVU206
 701 0110 0132     		adds	r2, r2, #1
ARM GAS  C:\Users\user\AppData\Local\Temp\ccDst2FA.s 			page 24


 702 0112 D2B2     		uxtb	r2, r2
 361:Core/Src/freertos.c ****                   for (int i = 0; i < SIDE_MED_WIN; i++) hist[ch][i] = ULTRA_MAX_CM;
 703              		.loc 1 361 18 view .LVU207
 704 0114 6D49     		ldr	r1, .L66+28
 705 0116 CA54     		strb	r2, [r1, r3]
 706 0118 022A     		cmp	r2, #2
 707 011a EBD9     		bls	.L45
 708              	.LBB11:
 362:Core/Src/freertos.c ****           }
 709              		.loc 1 362 28 view .LVU208
 710 011c 0022     		movs	r2, #0
 711 011e 07E0     		b	.L46
 712              	.LVL44:
 713              	.L47:
 362:Core/Src/freertos.c ****           }
 714              		.loc 1 362 58 is_stmt 1 discriminator 3 view .LVU209
 362:Core/Src/freertos.c ****           }
 715              		.loc 1 362 70 is_stmt 0 discriminator 3 view .LVU210
 716 0120 03EB4301 		add	r1, r3, r3, lsl #1
 717 0124 1144     		add	r1, r1, r2
 718 0126 6248     		ldr	r0, .L66
 719 0128 C827     		movs	r7, #200
 720 012a 20F81170 		strh	r7, [r0, r1, lsl #1]	@ movhi
 362:Core/Src/freertos.c ****           }
 721              		.loc 1 362 54 is_stmt 1 discriminator 3 view .LVU211
 722 012e 0132     		adds	r2, r2, #1
 723              	.LVL45:
 724              	.L46:
 362:Core/Src/freertos.c ****           }
 725              		.loc 1 362 37 discriminator 1 view .LVU212
 726 0130 022A     		cmp	r2, #2
 727 0132 F5DD     		ble	.L47
 728 0134 DEE7     		b	.L45
 729              	.LVL46:
 730              	.L60:
 362:Core/Src/freertos.c ****           }
 731              		.loc 1 362 37 is_stmt 0 discriminator 1 view .LVU213
 732              	.LBE11:
 733              	.LBE9:
 365:Core/Src/freertos.c ****       r = median_n(hist[2], SIDE_MED_WIN);
 734              		.loc 1 365 7 is_stmt 1 view .LVU214
 365:Core/Src/freertos.c ****       r = median_n(hist[2], SIDE_MED_WIN);
 735              		.loc 1 365 11 is_stmt 0 view .LVU215
 736 0136 664F     		ldr	r7, .L66+32
 737 0138 0321     		movs	r1, #3
 738 013a 3846     		mov	r0, r7
 739 013c FFF7FEFF 		bl	median_n
 740              	.LVL47:
 365:Core/Src/freertos.c ****       r = median_n(hist[2], SIDE_MED_WIN);
 741              		.loc 1 365 11 view .LVU216
 742 0140 8046     		mov	r8, r0
 743              	.LVL48:
 366:Core/Src/freertos.c ****       dbg_front = f; dbg_left = l; dbg_right = r;
 744              		.loc 1 366 7 is_stmt 1 view .LVU217
 366:Core/Src/freertos.c ****       dbg_front = f; dbg_left = l; dbg_right = r;
 745              		.loc 1 366 11 is_stmt 0 view .LVU218
 746 0142 0321     		movs	r1, #3
ARM GAS  C:\Users\user\AppData\Local\Temp\ccDst2FA.s 			page 25


 747 0144 B81D     		adds	r0, r7, #6
 748 0146 FFF7FEFF 		bl	median_n
 749              	.LVL49:
 750 014a 0746     		mov	r7, r0
 751              	.LVL50:
 367:Core/Src/freertos.c **** 
 752              		.loc 1 367 7 is_stmt 1 view .LVU219
 367:Core/Src/freertos.c **** 
 753              		.loc 1 367 17 is_stmt 0 view .LVU220
 754 014c 614B     		ldr	r3, .L66+36
 755 014e 1E80     		strh	r6, [r3]	@ movhi
 367:Core/Src/freertos.c **** 
 756              		.loc 1 367 22 is_stmt 1 view .LVU221
 367:Core/Src/freertos.c **** 
 757              		.loc 1 367 31 is_stmt 0 view .LVU222
 758 0150 614B     		ldr	r3, .L66+40
 759 0152 A3F80080 		strh	r8, [r3]	@ movhi
 367:Core/Src/freertos.c **** 
 760              		.loc 1 367 36 is_stmt 1 view .LVU223
 367:Core/Src/freertos.c **** 
 761              		.loc 1 367 46 is_stmt 0 view .LVU224
 762 0156 614B     		ldr	r3, .L66+44
 763 0158 1880     		strh	r0, [r3]	@ movhi
 372:Core/Src/freertos.c ****       {
 764              		.loc 1 372 7 is_stmt 1 view .LVU225
 372:Core/Src/freertos.c ****       {
 765              		.loc 1 372 11 is_stmt 0 view .LVU226
 766 015a 574B     		ldr	r3, .L66+8
 767 015c 1B78     		ldrb	r3, [r3]	@ zero_extendqisi2
 372:Core/Src/freertos.c ****       {
 768              		.loc 1 372 10 view .LVU227
 769 015e 002B     		cmp	r3, #0
 770 0160 6CD1     		bne	.L62
 392:Core/Src/freertos.c ****       {
 771              		.loc 1 392 12 is_stmt 1 view .LVU228
 392:Core/Src/freertos.c ****       {
 772              		.loc 1 392 16 is_stmt 0 view .LVU229
 773 0162 544B     		ldr	r3, .L66+4
 774 0164 1B78     		ldrb	r3, [r3]	@ zero_extendqisi2
 392:Core/Src/freertos.c ****       {
 775              		.loc 1 392 15 view .LVU230
 776 0166 33B1     		cbz	r3, .L52
 392:Core/Src/freertos.c ****       {
 777              		.loc 1 392 35 discriminator 1 view .LVU231
 778 0168 5D4B     		ldr	r3, .L66+48
 779 016a 1B68     		ldr	r3, [r3]
 780 016c EB1A     		subs	r3, r5, r3
 392:Core/Src/freertos.c ****       {
 781              		.loc 1 392 27 discriminator 1 view .LVU232
 782 016e B3F5FA7F 		cmp	r3, #500
 783 0172 80F08E80 		bcs	.L63
 784              	.LVL51:
 785              	.L52:
 399:Core/Src/freertos.c **** 
 786              		.loc 1 399 7 is_stmt 1 view .LVU233
 399:Core/Src/freertos.c **** 
 787              		.loc 1 399 20 is_stmt 0 view .LVU234
ARM GAS  C:\Users\user\AppData\Local\Temp\ccDst2FA.s 			page 26


 788 0176 504B     		ldr	r3, .L66+8
 789 0178 1B78     		ldrb	r3, [r3]	@ zero_extendqisi2
 790 017a 5A4A     		ldr	r2, .L66+52
 791 017c 1370     		strb	r3, [r2]
 402:Core/Src/freertos.c ****       din.f          = f;
 792              		.loc 1 402 7 is_stmt 1 view .LVU235
 403:Core/Src/freertos.c ****       din.l          = l;
 793              		.loc 1 403 7 view .LVU236
 403:Core/Src/freertos.c ****       din.l          = l;
 794              		.loc 1 403 22 is_stmt 0 view .LVU237
 795 017e ADF80060 		strh	r6, [sp]	@ movhi
 404:Core/Src/freertos.c ****       din.r          = r;
 796              		.loc 1 404 7 is_stmt 1 view .LVU238
 404:Core/Src/freertos.c ****       din.r          = r;
 797              		.loc 1 404 22 is_stmt 0 view .LVU239
 798 0182 ADF80280 		strh	r8, [sp, #2]	@ movhi
 405:Core/Src/freertos.c ****       din.f_valid    = v_snap[0];
 799              		.loc 1 405 7 is_stmt 1 view .LVU240
 405:Core/Src/freertos.c ****       din.f_valid    = v_snap[0];
 800              		.loc 1 405 22 is_stmt 0 view .LVU241
 801 0186 ADF80470 		strh	r7, [sp, #4]	@ movhi
 406:Core/Src/freertos.c ****       din.front_miss = front_miss;
 802              		.loc 1 406 7 is_stmt 1 view .LVU242
 406:Core/Src/freertos.c ****       din.front_miss = front_miss;
 803              		.loc 1 406 22 is_stmt 0 view .LVU243
 804 018a 8DF80640 		strb	r4, [sp, #6]
 407:Core/Src/freertos.c ****       din.heading    = imu.heading;   /* imu_live=0žĚīŽ©ī drive.cÍįÄ Ž¨īžčú(ÍĪįŽ¶¨-only ÍįēŽďĪ) */
 805              		.loc 1 407 7 is_stmt 1 view .LVU244
 407:Core/Src/freertos.c ****       din.heading    = imu.heading;   /* imu_live=0žĚīŽ©ī drive.cÍįÄ Ž¨īžčú(ÍĪįŽ¶¨-only ÍįēŽďĪ) */
 806              		.loc 1 407 22 is_stmt 0 view .LVU245
 807 018e 4B4A     		ldr	r2, .L66+12
 808 0190 1278     		ldrb	r2, [r2]	@ zero_extendqisi2
 809 0192 8DF80720 		strb	r2, [sp, #7]
 408:Core/Src/freertos.c ****       din.imu_live   = imu_live;
 810              		.loc 1 408 7 is_stmt 1 view .LVU246
 408:Core/Src/freertos.c ****       din.imu_live   = imu_live;
 811              		.loc 1 408 27 is_stmt 0 view .LVU247
 812 0196 4A4A     		ldr	r2, .L66+16
 813 0198 1268     		ldr	r2, [r2]	@ float
 408:Core/Src/freertos.c ****       din.imu_live   = imu_live;
 814              		.loc 1 408 22 view .LVU248
 815 019a 0292     		str	r2, [sp, #8]	@ float
 409:Core/Src/freertos.c ****       din.now        = HAL_GetTick();
 816              		.loc 1 409 7 is_stmt 1 view .LVU249
 409:Core/Src/freertos.c ****       din.now        = HAL_GetTick();
 817              		.loc 1 409 22 is_stmt 0 view .LVU250
 818 019c 8DF80C30 		strb	r3, [sp, #12]
 410:Core/Src/freertos.c ****       if (osMessageQueuePut(driveQ, &din, 0U, 0U) != osOK) { dbg_q_drop++; }
 819              		.loc 1 410 7 is_stmt 1 view .LVU251
 410:Core/Src/freertos.c ****       if (osMessageQueuePut(driveQ, &din, 0U, 0U) != osOK) { dbg_q_drop++; }
 820              		.loc 1 410 24 is_stmt 0 view .LVU252
 821 01a0 FFF7FEFF 		bl	HAL_GetTick
 822              	.LVL52:
 410:Core/Src/freertos.c ****       if (osMessageQueuePut(driveQ, &din, 0U, 0U) != osOK) { dbg_q_drop++; }
 823              		.loc 1 410 22 discriminator 1 view .LVU253
 824 01a4 0490     		str	r0, [sp, #16]
 411:Core/Src/freertos.c **** 
ARM GAS  C:\Users\user\AppData\Local\Temp\ccDst2FA.s 			page 27


 825              		.loc 1 411 7 is_stmt 1 view .LVU254
 411:Core/Src/freertos.c **** 
 826              		.loc 1 411 11 is_stmt 0 view .LVU255
 827 01a6 0023     		movs	r3, #0
 828 01a8 1A46     		mov	r2, r3
 829 01aa 6946     		mov	r1, sp
 830 01ac 4548     		ldr	r0, .L66+20
 831 01ae 0068     		ldr	r0, [r0]
 832 01b0 FFF7FEFF 		bl	osMessageQueuePut
 833              	.LVL53:
 411:Core/Src/freertos.c **** 
 834              		.loc 1 411 10 discriminator 1 view .LVU256
 835 01b4 18B1     		cbz	r0, .L53
 411:Core/Src/freertos.c **** 
 836              		.loc 1 411 62 is_stmt 1 discriminator 1 view .LVU257
 411:Core/Src/freertos.c **** 
 837              		.loc 1 411 72 is_stmt 0 discriminator 1 view .LVU258
 838 01b6 444A     		ldr	r2, .L66+24
 839 01b8 1368     		ldr	r3, [r2]
 840 01ba 0133     		adds	r3, r3, #1
 841 01bc 1360     		str	r3, [r2]
 842              	.L53:
 413:Core/Src/freertos.c ****   }
 843              		.loc 1 413 7 is_stmt 1 view .LVU259
 413:Core/Src/freertos.c ****   }
 844              		.loc 1 413 33 is_stmt 0 view .LVU260
 845 01be 0020     		movs	r0, #0
 846 01c0 FFF7FEFF 		bl	uxTaskGetStackHighWaterMark
 847              	.LVL54:
 413:Core/Src/freertos.c ****   }
 848              		.loc 1 413 21 discriminator 1 view .LVU261
 849 01c4 484B     		ldr	r3, .L66+56
 850 01c6 1860     		str	r0, [r3]
 851              	.LBE5:
 308:Core/Src/freertos.c ****   {
 852              		.loc 1 308 3 is_stmt 1 view .LVU262
 853              	.LVL55:
 854              	.L54:
 308:Core/Src/freertos.c ****   {
 855              		.loc 1 308 3 view .LVU263
 856              	.LBB13:
 310:Core/Src/freertos.c ****       dbg_loop_ms = now - t_loop;   /* žā¨žĚīŪĀī ž£ľÍłį ŽĮłŽü¨ (ŽįėžĚĎžßÄžóį Íįźžčú: ŪÜĶžÉĀ 6~9ms) 
 857              		.loc 1 310 7 view .LVU264
 310:Core/Src/freertos.c ****       dbg_loop_ms = now - t_loop;   /* žā¨žĚīŪĀī ž£ľÍłį ŽĮłŽü¨ (ŽįėžĚĎžßÄžóį Íįźžčú: ŪÜĶžÉĀ 6~9ms) 
 858              		.loc 1 310 22 is_stmt 0 view .LVU265
 859 01c8 FFF7FEFF 		bl	HAL_GetTick
 860              	.LVL56:
 861 01cc 0546     		mov	r5, r0
 862              	.LVL57:
 311:Core/Src/freertos.c ****       t_loop = now;
 863              		.loc 1 311 7 is_stmt 1 view .LVU266
 311:Core/Src/freertos.c ****       t_loop = now;
 864              		.loc 1 311 25 is_stmt 0 view .LVU267
 865 01ce 474A     		ldr	r2, .L66+60
 866 01d0 1368     		ldr	r3, [r2]
 867 01d2 C31A     		subs	r3, r0, r3
 311:Core/Src/freertos.c ****       t_loop = now;
ARM GAS  C:\Users\user\AppData\Local\Temp\ccDst2FA.s 			page 28


 868              		.loc 1 311 19 view .LVU268
 869 01d4 4649     		ldr	r1, .L66+64
 870 01d6 0B60     		str	r3, [r1]
 312:Core/Src/freertos.c **** 
 871              		.loc 1 312 7 is_stmt 1 view .LVU269
 312:Core/Src/freertos.c **** 
 872              		.loc 1 312 14 is_stmt 0 view .LVU270
 873 01d8 1060     		str	r0, [r2]
 318:Core/Src/freertos.c **** 
 874              		.loc 1 318 7 is_stmt 1 view .LVU271
 318:Core/Src/freertos.c **** 
 875              		.loc 1 318 19 is_stmt 0 view .LVU272
 876 01da 06AA     		add	r2, sp, #24
 877 01dc 1921     		movs	r1, #25
 878 01de 0020     		movs	r0, #0
 879              	.LVL58:
 318:Core/Src/freertos.c **** 
 880              		.loc 1 318 19 view .LVU273
 881 01e0 FFF7FEFF 		bl	Ultra_Measure
 882              	.LVL59:
 883 01e4 0446     		mov	r4, r0
 318:Core/Src/freertos.c **** 
 884              		.loc 1 318 17 discriminator 1 view .LVU274
 885 01e6 8DF81400 		strb	r0, [sp, #20]
 320:Core/Src/freertos.c ****       else if (front_miss < 255) { front_miss++; }
 886              		.loc 1 320 7 is_stmt 1 view .LVU275
 320:Core/Src/freertos.c ****       else if (front_miss < 255) { front_miss++; }
 887              		.loc 1 320 10 is_stmt 0 view .LVU276
 888 01ea 0028     		cmp	r0, #0
 889 01ec 3FF427AF 		beq	.L34
 320:Core/Src/freertos.c ****       else if (front_miss < 255) { front_miss++; }
 890              		.loc 1 320 36 is_stmt 1 discriminator 1 view .LVU277
 320:Core/Src/freertos.c ****       else if (front_miss < 255) { front_miss++; }
 891              		.loc 1 320 47 is_stmt 0 discriminator 1 view .LVU278
 892 01f0 324B     		ldr	r3, .L66+12
 893 01f2 0022     		movs	r2, #0
 894 01f4 1A70     		strb	r2, [r3]
 895              	.L35:
 322:Core/Src/freertos.c **** 
 896              		.loc 1 322 7 is_stmt 1 view .LVU279
 322:Core/Src/freertos.c **** 
 897              		.loc 1 322 22 is_stmt 0 view .LVU280
 898 01f6 314B     		ldr	r3, .L66+12
 899 01f8 1A78     		ldrb	r2, [r3]	@ zero_extendqisi2
 900 01fa 3E4B     		ldr	r3, .L66+68
 901 01fc 1A70     		strb	r2, [r3]
 324:Core/Src/freertos.c ****       {
 902              		.loc 1 324 7 is_stmt 1 view .LVU281
 324:Core/Src/freertos.c ****       {
 903              		.loc 1 324 10 is_stmt 0 view .LVU282
 904 01fe 002C     		cmp	r4, #0
 905 0200 7FF434AF 		bne	.L64
 906              	.L37:
 329:Core/Src/freertos.c **** 
 907              		.loc 1 329 7 is_stmt 1 view .LVU283
 329:Core/Src/freertos.c **** 
 908              		.loc 1 329 11 is_stmt 0 view .LVU284
ARM GAS  C:\Users\user\AppData\Local\Temp\ccDst2FA.s 			page 29


 909 0204 0321     		movs	r1, #3
 910 0206 2A48     		ldr	r0, .L66
 911 0208 FFF7FEFF 		bl	min_n
 912              	.LVL60:
 913 020c 0646     		mov	r6, r0
 914              	.LVL61:
 331:Core/Src/freertos.c ****       {
 915              		.loc 1 331 7 is_stmt 1 view .LVU285
 331:Core/Src/freertos.c ****       {
 916              		.loc 1 331 11 is_stmt 0 view .LVU286
 917 020e FFF7FEFF 		bl	Drive_GetState
 918              	.LVL62:
 331:Core/Src/freertos.c ****       {
 919              		.loc 1 331 10 discriminator 1 view .LVU287
 920 0212 10B9     		cbnz	r0, .L39
 331:Core/Src/freertos.c ****       {
 921              		.loc 1 331 41 discriminator 1 view .LVU288
 922 0214 152E     		cmp	r6, #21
 923 0216 7FF62BAF 		bls	.L65
 924              	.L39:
 346:Core/Src/freertos.c ****       v_snap[2] = Ultra_Measure(2, SIDE_WAIT_MS, &d_snap[2]);    /* right (TRIG PA3, ECHO CH3) */
 925              		.loc 1 346 7 is_stmt 1 view .LVU289
 346:Core/Src/freertos.c ****       v_snap[2] = Ultra_Measure(2, SIDE_WAIT_MS, &d_snap[2]);    /* right (TRIG PA3, ECHO CH3) */
 926              		.loc 1 346 19 is_stmt 0 view .LVU290
 927 021a 0DF11A02 		add	r2, sp, #26
 928 021e 0621     		movs	r1, #6
 929 0220 0120     		movs	r0, #1
 930 0222 FFF7FEFF 		bl	Ultra_Measure
 931              	.LVL63:
 346:Core/Src/freertos.c ****       v_snap[2] = Ultra_Measure(2, SIDE_WAIT_MS, &d_snap[2]);    /* right (TRIG PA3, ECHO CH3) */
 932              		.loc 1 346 17 discriminator 1 view .LVU291
 933 0226 8DF81500 		strb	r0, [sp, #21]
 347:Core/Src/freertos.c **** 
 934              		.loc 1 347 7 is_stmt 1 view .LVU292
 347:Core/Src/freertos.c **** 
 935              		.loc 1 347 19 is_stmt 0 view .LVU293
 936 022a 07AA     		add	r2, sp, #28
 937 022c 0621     		movs	r1, #6
 938 022e 0220     		movs	r0, #2
 939 0230 FFF7FEFF 		bl	Ultra_Measure
 940              	.LVL64:
 347:Core/Src/freertos.c **** 
 941              		.loc 1 347 17 discriminator 1 view .LVU294
 942 0234 8DF81600 		strb	r0, [sp, #22]
 349:Core/Src/freertos.c ****       {
 943              		.loc 1 349 7 is_stmt 1 view .LVU295
 944              	.LBB12:
 349:Core/Src/freertos.c ****       {
 945              		.loc 1 349 12 view .LVU296
 946              	.LVL65:
 349:Core/Src/freertos.c ****       {
 947              		.loc 1 349 16 is_stmt 0 view .LVU297
 948 0238 0123     		movs	r3, #1
 349:Core/Src/freertos.c ****       {
 949              		.loc 1 349 7 view .LVU298
 950 023a 5CE7     		b	.L41
 951              	.LVL66:
ARM GAS  C:\Users\user\AppData\Local\Temp\ccDst2FA.s 			page 30


 952              	.L62:
 349:Core/Src/freertos.c ****       {
 953              		.loc 1 349 7 view .LVU299
 954              	.LBE12:
 374:Core/Src/freertos.c ****           {
 955              		.loc 1 374 11 is_stmt 1 view .LVU300
 374:Core/Src/freertos.c ****           {
 956              		.loc 1 374 15 is_stmt 0 view .LVU301
 957 023c 2048     		ldr	r0, .L66+16
 958              	.LVL67:
 374:Core/Src/freertos.c ****           {
 959              		.loc 1 374 15 view .LVU302
 960 023e FFF7FEFF 		bl	BNO055_ReadEuler
 961              	.LVL68:
 374:Core/Src/freertos.c ****           {
 962              		.loc 1 374 14 discriminator 1 view .LVU303
 963 0242 C8B1     		cbz	r0, .L50
 376:Core/Src/freertos.c ****               dbg_heading = imu.heading;
 964              		.loc 1 376 15 is_stmt 1 view .LVU304
 376:Core/Src/freertos.c ****               dbg_heading = imu.heading;
 965              		.loc 1 376 24 is_stmt 0 view .LVU305
 966 0244 2C4B     		ldr	r3, .L66+72
 967 0246 0022     		movs	r2, #0
 968 0248 1A70     		strb	r2, [r3]
 377:Core/Src/freertos.c ****               dbg_roll    = imu.roll;
 969              		.loc 1 377 15 is_stmt 1 view .LVU306
 377:Core/Src/freertos.c ****               dbg_roll    = imu.roll;
 970              		.loc 1 377 32 is_stmt 0 view .LVU307
 971 024a 1D4B     		ldr	r3, .L66+16
 972 024c 1968     		ldr	r1, [r3]	@ float
 377:Core/Src/freertos.c ****               dbg_roll    = imu.roll;
 973              		.loc 1 377 27 view .LVU308
 974 024e 2B4A     		ldr	r2, .L66+76
 975 0250 1160     		str	r1, [r2]	@ float
 378:Core/Src/freertos.c ****               dbg_pitch   = imu.pitch;
 976              		.loc 1 378 15 is_stmt 1 view .LVU309
 378:Core/Src/freertos.c ****               dbg_pitch   = imu.pitch;
 977              		.loc 1 378 32 is_stmt 0 view .LVU310
 978 0252 5968     		ldr	r1, [r3, #4]	@ float
 378:Core/Src/freertos.c ****               dbg_pitch   = imu.pitch;
 979              		.loc 1 378 27 view .LVU311
 980 0254 2A4A     		ldr	r2, .L66+80
 981 0256 1160     		str	r1, [r2]	@ float
 379:Core/Src/freertos.c ****           }
 982              		.loc 1 379 15 is_stmt 1 view .LVU312
 379:Core/Src/freertos.c ****           }
 983              		.loc 1 379 32 is_stmt 0 view .LVU313
 984 0258 9A68     		ldr	r2, [r3, #8]	@ float
 379:Core/Src/freertos.c ****           }
 985              		.loc 1 379 27 view .LVU314
 986 025a 2A4B     		ldr	r3, .L66+84
 987 025c 1A60     		str	r2, [r3]	@ float
 988              	.L51:
 386:Core/Src/freertos.c ****           {
 989              		.loc 1 386 11 is_stmt 1 view .LVU315
 386:Core/Src/freertos.c ****           {
 990              		.loc 1 386 20 is_stmt 0 view .LVU316
ARM GAS  C:\Users\user\AppData\Local\Temp\ccDst2FA.s 			page 31


 991 025e 2A4B     		ldr	r3, .L66+88
 992 0260 1B68     		ldr	r3, [r3]
 993 0262 EB1A     		subs	r3, r5, r3
 386:Core/Src/freertos.c ****           {
 994              		.loc 1 386 14 view .LVU317
 995 0264 B3F5FA7F 		cmp	r3, #500
 996 0268 85D3     		bcc	.L52
 388:Core/Src/freertos.c ****               dbg_imu_calib = BNO055_ReadCalibStatus();
 997              		.loc 1 388 15 is_stmt 1 view .LVU318
 388:Core/Src/freertos.c ****               dbg_imu_calib = BNO055_ReadCalibStatus();
 998              		.loc 1 388 23 is_stmt 0 view .LVU319
 999 026a 274B     		ldr	r3, .L66+88
 1000 026c 1D60     		str	r5, [r3]
 389:Core/Src/freertos.c ****           }
 1001              		.loc 1 389 15 is_stmt 1 view .LVU320
 389:Core/Src/freertos.c ****           }
 1002              		.loc 1 389 31 is_stmt 0 view .LVU321
 1003 026e FFF7FEFF 		bl	BNO055_ReadCalibStatus
 1004              	.LVL69:
 389:Core/Src/freertos.c ****           }
 1005              		.loc 1 389 29 discriminator 1 view .LVU322
 1006 0272 264B     		ldr	r3, .L66+92
 1007 0274 1870     		strb	r0, [r3]
 1008 0276 7EE7     		b	.L52
 1009              	.L50:
 381:Core/Src/freertos.c ****           {
 1010              		.loc 1 381 16 is_stmt 1 view .LVU323
 381:Core/Src/freertos.c ****           {
 1011              		.loc 1 381 20 is_stmt 0 view .LVU324
 1012 0278 1F4A     		ldr	r2, .L66+72
 1013 027a 1378     		ldrb	r3, [r2]	@ zero_extendqisi2
 1014 027c 0133     		adds	r3, r3, #1
 1015 027e DBB2     		uxtb	r3, r3
 381:Core/Src/freertos.c ****           {
 1016              		.loc 1 381 19 view .LVU325
 1017 0280 1370     		strb	r3, [r2]
 1018 0282 042B     		cmp	r3, #4
 1019 0284 EBD9     		bls	.L51
 383:Core/Src/freertos.c ****               t_imu_retry = now;
 1020              		.loc 1 383 15 is_stmt 1 view .LVU326
 383:Core/Src/freertos.c ****               t_imu_retry = now;
 1021              		.loc 1 383 24 is_stmt 0 view .LVU327
 1022 0286 0C4B     		ldr	r3, .L66+8
 1023 0288 0022     		movs	r2, #0
 1024 028a 1A70     		strb	r2, [r3]
 384:Core/Src/freertos.c ****           }
 1025              		.loc 1 384 15 is_stmt 1 view .LVU328
 384:Core/Src/freertos.c ****           }
 1026              		.loc 1 384 27 is_stmt 0 view .LVU329
 1027 028c 144B     		ldr	r3, .L66+48
 1028 028e 1D60     		str	r5, [r3]
 1029 0290 E5E7     		b	.L51
 1030              	.LVL70:
 1031              	.L63:
 396:Core/Src/freertos.c ****           if (BNO055_ReadEuler(&imu)) { imu_live = 1; imu_fail = 0; }
 1032              		.loc 1 396 11 is_stmt 1 view .LVU330
 396:Core/Src/freertos.c ****           if (BNO055_ReadEuler(&imu)) { imu_live = 1; imu_fail = 0; }
ARM GAS  C:\Users\user\AppData\Local\Temp\ccDst2FA.s 			page 32


 1033              		.loc 1 396 23 is_stmt 0 view .LVU331
 1034 0292 134B     		ldr	r3, .L66+48
 1035 0294 1D60     		str	r5, [r3]
 397:Core/Src/freertos.c ****       }
 1036              		.loc 1 397 11 is_stmt 1 view .LVU332
 397:Core/Src/freertos.c ****       }
 1037              		.loc 1 397 15 is_stmt 0 view .LVU333
 1038 0296 0A48     		ldr	r0, .L66+16
 1039              	.LVL71:
 397:Core/Src/freertos.c ****       }
 1040              		.loc 1 397 15 view .LVU334
 1041 0298 FFF7FEFF 		bl	BNO055_ReadEuler
 1042              	.LVL72:
 397:Core/Src/freertos.c ****       }
 1043              		.loc 1 397 14 discriminator 1 view .LVU335
 1044 029c 0028     		cmp	r0, #0
 1045 029e 3FF46AAF 		beq	.L52
 397:Core/Src/freertos.c ****       }
 1046              		.loc 1 397 41 is_stmt 1 discriminator 1 view .LVU336
 397:Core/Src/freertos.c ****       }
 1047              		.loc 1 397 50 is_stmt 0 discriminator 1 view .LVU337
 1048 02a2 054B     		ldr	r3, .L66+8
 1049 02a4 0122     		movs	r2, #1
 1050 02a6 1A70     		strb	r2, [r3]
 397:Core/Src/freertos.c ****       }
 1051              		.loc 1 397 55 is_stmt 1 view .LVU338
 397:Core/Src/freertos.c ****       }
 1052              		.loc 1 397 64 is_stmt 0 discriminator 1 view .LVU339
 1053 02a8 134B     		ldr	r3, .L66+72
 1054 02aa 0022     		movs	r2, #0
 1055 02ac 1A70     		strb	r2, [r3]
 1056 02ae 62E7     		b	.L52
 1057              	.L67:
 1058              		.align	2
 1059              	.L66:
 1060 02b0 00000000 		.word	hist.8
 1061 02b4 00000000 		.word	dbg_imu_ok
 1062 02b8 00000000 		.word	imu_live.7
 1063 02bc 00000000 		.word	front_miss.5
 1064 02c0 00000000 		.word	imu.4
 1065 02c4 00000000 		.word	driveQ
 1066 02c8 00000000 		.word	dbg_q_drop
 1067 02cc 00000000 		.word	side_miss.3
 1068 02d0 06000000 		.word	hist.8+6
 1069 02d4 00000000 		.word	dbg_front
 1070 02d8 00000000 		.word	dbg_left
 1071 02dc 00000000 		.word	dbg_right
 1072 02e0 00000000 		.word	t_imu_retry.1
 1073 02e4 00000000 		.word	dbg_imu_live
 1074 02e8 00000000 		.word	dbg_hw_sensor
 1075 02ec 00000000 		.word	t_loop.6
 1076 02f0 00000000 		.word	dbg_loop_ms
 1077 02f4 00000000 		.word	dbg_front_miss
 1078 02f8 00000000 		.word	imu_fail.2
 1079 02fc 00000000 		.word	dbg_heading
 1080 0300 00000000 		.word	dbg_roll
 1081 0304 00000000 		.word	dbg_pitch
ARM GAS  C:\Users\user\AppData\Local\Temp\ccDst2FA.s 			page 33


 1082 0308 00000000 		.word	t_calib.0
 1083 030c 00000000 		.word	dbg_imu_calib
 1084              	.LBE13:
 1085              		.cfi_endproc
 1086              	.LFE140:
 1088              		.section	.text.MX_FREERTOS_Init,"ax",%progbits
 1089              		.align	1
 1090              		.global	MX_FREERTOS_Init
 1091              		.syntax unified
 1092              		.thumb
 1093              		.thumb_func
 1095              	MX_FREERTOS_Init:
 1096              	.LFB138:
 147:Core/Src/freertos.c ****   /* USER CODE BEGIN Init */
 1097              		.loc 1 147 29 is_stmt 1 view -0
 1098              		.cfi_startproc
 1099              		@ args = 0, pretend = 0, frame = 8
 1100              		@ frame_needed = 0, uses_anonymous_args = 0
 1101 0000 10B5     		push	{r4, lr}
 1102              	.LCFI6:
 1103              		.cfi_def_cfa_offset 8
 1104              		.cfi_offset 4, -8
 1105              		.cfi_offset 14, -4
 1106 0002 82B0     		sub	sp, sp, #8
 1107              	.LCFI7:
 1108              		.cfi_def_cfa_offset 16
 166:Core/Src/freertos.c **** 
 1109              		.loc 1 166 3 view .LVU341
 166:Core/Src/freertos.c **** 
 1110              		.loc 1 166 17 is_stmt 0 view .LVU342
 1111 0004 184A     		ldr	r2, .L70
 1112 0006 0121     		movs	r1, #1
 1113 0008 1020     		movs	r0, #16
 1114 000a FFF7FEFF 		bl	osMessageQueueNew
 1115              	.LVL73:
 166:Core/Src/freertos.c **** 
 1116              		.loc 1 166 15 discriminator 1 view .LVU343
 1117 000e 174B     		ldr	r3, .L70+4
 1118 0010 1860     		str	r0, [r3]
 169:Core/Src/freertos.c ****   /* žÉĚžĄĪ žč§ŪĆ®(NULL) žčú put/getžĚī ž†ĄŽ∂Ä žóźŽü¨ ‚Üí MotorTaskÍįÄ Car_Stop + refresh žÉĚŽěĶ ‚Ü
 1119              		.loc 1 169 3 is_stmt 1 view .LVU344
 169:Core/Src/freertos.c ****   /* žÉĚžĄĪ žč§ŪĆ®(NULL) žčú put/getžĚī ž†ĄŽ∂Ä žóźŽü¨ ‚Üí MotorTaskÍįÄ Car_Stop + refresh žÉĚŽěĶ ‚Ü
 1120              		.loc 1 169 12 is_stmt 0 view .LVU345
 1121 0012 0022     		movs	r2, #0
 1122 0014 1421     		movs	r1, #20
 1123 0016 0220     		movs	r0, #2
 1124 0018 FFF7FEFF 		bl	osMessageQueueNew
 1125              	.LVL74:
 169:Core/Src/freertos.c ****   /* žÉĚžĄĪ žč§ŪĆ®(NULL) žčú put/getžĚī ž†ĄŽ∂Ä žóźŽü¨ ‚Üí MotorTaskÍįÄ Car_Stop + refresh žÉĚŽěĶ ‚Ü
 1126              		.loc 1 169 10 discriminator 1 view .LVU346
 1127 001c 144B     		ldr	r3, .L70+8
 1128 001e 1860     		str	r0, [r3]
 175:Core/Src/freertos.c ****   HAL_UART_Receive_IT(&huart1, (uint8_t *)&bt_rx_byte, 1);
 1129              		.loc 1 175 3 is_stmt 1 view .LVU347
 1130              	.LBB14:
 175:Core/Src/freertos.c ****   HAL_UART_Receive_IT(&huart1, (uint8_t *)&bt_rx_byte, 1);
 1131              		.loc 1 175 3 view .LVU348
ARM GAS  C:\Users\user\AppData\Local\Temp\ccDst2FA.s 			page 34


 1132 0020 0024     		movs	r4, #0
 1133 0022 0194     		str	r4, [sp, #4]
 175:Core/Src/freertos.c ****   HAL_UART_Receive_IT(&huart1, (uint8_t *)&bt_rx_byte, 1);
 1134              		.loc 1 175 3 view .LVU349
 1135 0024 1348     		ldr	r0, .L70+12
 1136 0026 0368     		ldr	r3, [r0]
 1137 0028 1A68     		ldr	r2, [r3]
 1138 002a 0192     		str	r2, [sp, #4]
 175:Core/Src/freertos.c ****   HAL_UART_Receive_IT(&huart1, (uint8_t *)&bt_rx_byte, 1);
 1139              		.loc 1 175 3 view .LVU350
 1140 002c 5B68     		ldr	r3, [r3, #4]
 1141 002e 0193     		str	r3, [sp, #4]
 175:Core/Src/freertos.c ****   HAL_UART_Receive_IT(&huart1, (uint8_t *)&bt_rx_byte, 1);
 1142              		.loc 1 175 3 view .LVU351
 1143 0030 019B     		ldr	r3, [sp, #4]
 1144              	.LBE14:
 175:Core/Src/freertos.c ****   HAL_UART_Receive_IT(&huart1, (uint8_t *)&bt_rx_byte, 1);
 1145              		.loc 1 175 3 view .LVU352
 176:Core/Src/freertos.c ****   /* USER CODE END RTOS_QUEUES */
 1146              		.loc 1 176 3 view .LVU353
 1147 0032 0122     		movs	r2, #1
 1148 0034 1049     		ldr	r1, .L70+16
 1149 0036 FFF7FEFF 		bl	HAL_UART_Receive_IT
 1150              	.LVL75:
 181:Core/Src/freertos.c **** 
 1151              		.loc 1 181 3 view .LVU354
 181:Core/Src/freertos.c **** 
 1152              		.loc 1 181 21 is_stmt 0 view .LVU355
 1153 003a 104A     		ldr	r2, .L70+20
 1154 003c 2146     		mov	r1, r4
 1155 003e 1048     		ldr	r0, .L70+24
 1156 0040 FFF7FEFF 		bl	osThreadNew
 1157              	.LVL76:
 181:Core/Src/freertos.c **** 
 1158              		.loc 1 181 19 discriminator 1 view .LVU356
 1159 0044 0F4B     		ldr	r3, .L70+28
 1160 0046 1860     		str	r0, [r3]
 184:Core/Src/freertos.c **** 
 1161              		.loc 1 184 3 is_stmt 1 view .LVU357
 184:Core/Src/freertos.c **** 
 1162              		.loc 1 184 22 is_stmt 0 view .LVU358
 1163 0048 0F4A     		ldr	r2, .L70+32
 1164 004a 2146     		mov	r1, r4
 1165 004c 0F48     		ldr	r0, .L70+36
 1166 004e FFF7FEFF 		bl	osThreadNew
 1167              	.LVL77:
 184:Core/Src/freertos.c **** 
 1168              		.loc 1 184 20 discriminator 1 view .LVU359
 1169 0052 0F4B     		ldr	r3, .L70+40
 1170 0054 1860     		str	r0, [r3]
 187:Core/Src/freertos.c **** 
 1171              		.loc 1 187 3 is_stmt 1 view .LVU360
 187:Core/Src/freertos.c **** 
 1172              		.loc 1 187 25 is_stmt 0 view .LVU361
 1173 0056 0F4A     		ldr	r2, .L70+44
 1174 0058 2146     		mov	r1, r4
 1175 005a 0F48     		ldr	r0, .L70+48
ARM GAS  C:\Users\user\AppData\Local\Temp\ccDst2FA.s 			page 35


 1176 005c FFF7FEFF 		bl	osThreadNew
 1177              	.LVL78:
 187:Core/Src/freertos.c **** 
 1178              		.loc 1 187 23 discriminator 1 view .LVU362
 1179 0060 0E4B     		ldr	r3, .L70+52
 1180 0062 1860     		str	r0, [r3]
 197:Core/Src/freertos.c **** 
 1181              		.loc 1 197 1 view .LVU363
 1182 0064 02B0     		add	sp, sp, #8
 1183              	.LCFI8:
 1184              		.cfi_def_cfa_offset 8
 1185              		@ sp needed
 1186 0066 10BD     		pop	{r4, pc}
 1187              	.L71:
 1188              		.align	2
 1189              	.L70:
 1190 0068 00000000 		.word	uartQ_attributes
 1191 006c 00000000 		.word	uartQHandle
 1192 0070 00000000 		.word	driveQ
 1193 0074 00000000 		.word	huart1
 1194 0078 00000000 		.word	bt_rx_byte
 1195 007c 00000000 		.word	MotorTask_attributes
 1196 0080 00000000 		.word	StartDefaultTask
 1197 0084 00000000 		.word	MotorTaskHandle
 1198 0088 00000000 		.word	SensorTask_attributes
 1199 008c 00000000 		.word	StartTask02
 1200 0090 00000000 		.word	SensorTaskHandle
 1201 0094 00000000 		.word	BluetoothTask_attributes
 1202 0098 00000000 		.word	StartTask03
 1203 009c 00000000 		.word	BluetoothTaskHandle
 1204              		.cfi_endproc
 1205              	.LFE138:
 1207              		.section	.text.HAL_GPIO_EXTI_Callback,"ax",%progbits
 1208              		.align	1
 1209              		.global	HAL_GPIO_EXTI_Callback
 1210              		.syntax unified
 1211              		.thumb
 1212              		.thumb_func
 1214              	HAL_GPIO_EXTI_Callback:
 1215              	.LVL79:
 1216              	.LFB142:
 470:Core/Src/freertos.c **** 
 471:Core/Src/freertos.c ****       default:                                   /* ŽĮłž†ēžĚė ŽįĒžĚīŪäł Ž¨īžčú */
 472:Core/Src/freertos.c ****         break;
 473:Core/Src/freertos.c ****     }
 474:Core/Src/freertos.c ****   }
 475:Core/Src/freertos.c ****   /* USER CODE END StartTask03 */
 476:Core/Src/freertos.c **** }
 477:Core/Src/freertos.c **** 
 478:Core/Src/freertos.c **** /* Private application code --------------------------------------------------*/
 479:Core/Src/freertos.c **** /* USER CODE BEGIN Application */
 480:Core/Src/freertos.c **** 
 481:Core/Src/freertos.c **** /* BNO055 INT(PA0/EXTI0) žĹúŽįĪ (ÍĶ¨ main.cžóźžĄú žĚīŽŹô).
 482:Core/Src/freertos.c ****  * ž£ľžĚė: žúĶŪē© ŽćįžĚīŪĄįžóĒ ž†Ąžö© DRDY INTÍįÄ žóÜžĚĆ ‚Üí headingžĚÄ SensorTaskžóźžĄú polling.
 483:Core/Src/freertos.c ****  *       žĚī žĹúŽįĪžĚÄ INT ŽįįžĄ† Í≤Äž¶Ě/Ž™®žÖė(any-motion ŽďĪ) ŪäłŽ¶¨ÍĪįžö© žĻīžöīŪĄį. */
 484:Core/Src/freertos.c **** void HAL_GPIO_EXTI_Callback(uint16_t GPIO_Pin)
 485:Core/Src/freertos.c **** {
ARM GAS  C:\Users\user\AppData\Local\Temp\ccDst2FA.s 			page 36


 1217              		.loc 1 485 1 is_stmt 1 view -0
 1218              		.cfi_startproc
 1219              		@ args = 0, pretend = 0, frame = 0
 1220              		@ frame_needed = 0, uses_anonymous_args = 0
 1221              		@ link register save eliminated.
 486:Core/Src/freertos.c ****     if (GPIO_Pin == IMU_INT_Pin)
 1222              		.loc 1 486 5 view .LVU365
 1223              		.loc 1 486 8 is_stmt 0 view .LVU366
 1224 0000 0128     		cmp	r0, #1
 1225 0002 00D0     		beq	.L74
 1226              	.L72:
 487:Core/Src/freertos.c ****     {
 488:Core/Src/freertos.c ****         dbg_imu_evt++;
 489:Core/Src/freertos.c ****     }
 490:Core/Src/freertos.c **** }
 1227              		.loc 1 490 1 view .LVU367
 1228 0004 7047     		bx	lr
 1229              	.L74:
 488:Core/Src/freertos.c ****     }
 1230              		.loc 1 488 9 is_stmt 1 view .LVU368
 488:Core/Src/freertos.c ****     }
 1231              		.loc 1 488 20 is_stmt 0 view .LVU369
 1232 0006 024A     		ldr	r2, .L75
 1233 0008 1368     		ldr	r3, [r2]
 1234 000a 0133     		adds	r3, r3, #1
 1235 000c 1360     		str	r3, [r2]
 1236              		.loc 1 490 1 view .LVU370
 1237 000e F9E7     		b	.L72
 1238              	.L76:
 1239              		.align	2
 1240              	.L75:
 1241 0010 00000000 		.word	dbg_imu_evt
 1242              		.cfi_endproc
 1243              	.LFE142:
 1245              		.section	.text.HAL_UART_RxCpltCallback,"ax",%progbits
 1246              		.align	1
 1247              		.global	HAL_UART_RxCpltCallback
 1248              		.syntax unified
 1249              		.thumb
 1250              		.thumb_func
 1252              	HAL_UART_RxCpltCallback:
 1253              	.LVL80:
 1254              	.LFB143:
 491:Core/Src/freertos.c **** 
 492:Core/Src/freertos.c **** /* ŽłĒŽ£®Ūą¨žä§ UART(USART1) 1ŽįĒžĚīŪäł žąėžč† žôĄŽ£Ć žĹúŽįĪ (ISR Ž¨łŽß•).
 493:Core/Src/freertos.c ****  * žąėžč† ŽįĒžĚīŪäłŽ•ľ uartQŽ°ú ŽĄėÍłįÍ≥† ž¶Čžčú Žč§žĚĆ 1ŽįĒžĚīŪäł IT žě¨Ž¨īžě• ‚Üí žóįžÜć žąėžč†.
 494:Core/Src/freertos.c ****  * osMessageQueuePut timeout 0 = ISR žēąž†Ą(xQueueSendFromISR). ŪĀź ÍįÄŽďĚ žčú ŽįĒžĚīŪäłŽäĒ
 495:Core/Src/freertos.c ****  * Ž≤ĄŽ†§ŽŹĄ žě¨Ž¨īžě•žĚÄ Ž¨īž°įÍĪī žąėŪĖČŪēī žąėžč†žĚī Ž©éžßÄ žēäÍ≤Ć Ūē® */
 496:Core/Src/freertos.c **** void HAL_UART_RxCpltCallback(UART_HandleTypeDef *huart)
 497:Core/Src/freertos.c **** {
 1255              		.loc 1 497 1 is_stmt 1 view -0
 1256              		.cfi_startproc
 1257              		@ args = 0, pretend = 0, frame = 0
 1258              		@ frame_needed = 0, uses_anonymous_args = 0
 498:Core/Src/freertos.c ****     if (huart->Instance == USART1)
 1259              		.loc 1 498 5 view .LVU372
 1260              		.loc 1 498 14 is_stmt 0 view .LVU373
ARM GAS  C:\Users\user\AppData\Local\Temp\ccDst2FA.s 			page 37


 1261 0000 0268     		ldr	r2, [r0]
 1262              		.loc 1 498 8 view .LVU374
 1263 0002 094B     		ldr	r3, .L84
 1264 0004 9A42     		cmp	r2, r3
 1265 0006 00D0     		beq	.L83
 1266 0008 7047     		bx	lr
 1267              	.L83:
 497:Core/Src/freertos.c ****     if (huart->Instance == USART1)
 1268              		.loc 1 497 1 view .LVU375
 1269 000a 10B5     		push	{r4, lr}
 1270              	.LCFI9:
 1271              		.cfi_def_cfa_offset 8
 1272              		.cfi_offset 4, -8
 1273              		.cfi_offset 14, -4
 499:Core/Src/freertos.c ****     {
 500:Core/Src/freertos.c ****         (void)osMessageQueuePut(uartQHandle, (const void *)&bt_rx_byte, 0U, 0U);
 1274              		.loc 1 500 9 is_stmt 1 view .LVU376
 1275              		.loc 1 500 15 is_stmt 0 view .LVU377
 1276 000c 074C     		ldr	r4, .L84+4
 1277 000e 0023     		movs	r3, #0
 1278 0010 1A46     		mov	r2, r3
 1279 0012 2146     		mov	r1, r4
 1280 0014 0648     		ldr	r0, .L84+8
 1281              	.LVL81:
 1282              		.loc 1 500 15 view .LVU378
 1283 0016 0068     		ldr	r0, [r0]
 1284 0018 FFF7FEFF 		bl	osMessageQueuePut
 1285              	.LVL82:
 501:Core/Src/freertos.c ****         HAL_UART_Receive_IT(&huart1, (uint8_t *)&bt_rx_byte, 1);
 1286              		.loc 1 501 9 is_stmt 1 view .LVU379
 1287 001c 0122     		movs	r2, #1
 1288 001e 2146     		mov	r1, r4
 1289 0020 0448     		ldr	r0, .L84+12
 1290 0022 FFF7FEFF 		bl	HAL_UART_Receive_IT
 1291              	.LVL83:
 502:Core/Src/freertos.c ****     }
 503:Core/Src/freertos.c **** }
 1292              		.loc 1 503 1 is_stmt 0 view .LVU380
 1293 0026 10BD     		pop	{r4, pc}
 1294              	.L85:
 1295              		.align	2
 1296              	.L84:
 1297 0028 00100140 		.word	1073811456
 1298 002c 00000000 		.word	bt_rx_byte
 1299 0030 00000000 		.word	uartQHandle
 1300 0034 00000000 		.word	huart1
 1301              		.cfi_endproc
 1302              	.LFE143:
 1304              		.section	.text.HAL_UART_ErrorCallback,"ax",%progbits
 1305              		.align	1
 1306              		.global	HAL_UART_ErrorCallback
 1307              		.syntax unified
 1308              		.thumb
 1309              		.thumb_func
 1311              	HAL_UART_ErrorCallback:
 1312              	.LVL84:
 1313              	.LFB144:
ARM GAS  C:\Users\user\AppData\Local\Temp\ccDst2FA.s 			page 38


 504:Core/Src/freertos.c **** 
 505:Core/Src/freertos.c **** /* ŽłĒŽ£®Ūą¨žä§ UART(USART1) žóźŽü¨ žĹúŽįĪ (ISR Ž¨łŽß•).
 506:Core/Src/freertos.c ****  * HALžĚÄ ORE(overrun)/FE(framing)/NE(noise) ŽįúžÉĚ žčú žąėžč†žĚĄ ž§ĎŽč®ŪēėÍ≥† state=READYŽ°ú ŽĎĒ Ž
 507:Core/Src/freertos.c ****  * žĚī žĹúŽįĪŽßĆ Ūėłž∂ú ‚Üí žó¨ÍłįžĄú žě¨Ž¨īžě•ŪēėžßÄ žēäžúľŽ©ī žąėžč†žĚī žėĀÍĶ¨ ž†ēžßÄ(Ž¶¨žÖč ž†ĄÍ
 508:Core/Src/freertos.c ****  * Ž™®ŪĄį ÍĶ¨ŽŹô ž†ĄŽ•ėŽ°ú žĚłŪēú 5V ŽłĆŽĚľžöīžēĄžõÉ/ŽĚľžĚł ŽÖłžĚīž¶ąŽ°ú ŽįĒžĚīŪäłÍįÄ ÍĻ®žßą ŽēĆÍįÄ
 509:Core/Src/freertos.c ****  * žóźŽü¨ ŪĒĆŽěėÍ∑ł ŪĀīŽ¶¨žĖī ŪõĄ 1ŽįĒžĚīŪäł ITŽ•ľ Žč§žčú Ž¨īžě•Ūēī žąėžč†žĚī žä§žä§Ž°ú Ž≥ĶÍĶ¨ŽźėÍ≤
 510:Core/Src/freertos.c ****  * (RxCpltCallbackžĚė "Ž¨īž°įÍĪī žě¨Ž¨īžě•" ŪĆ®ŪĄīÍ≥ľ žĚľÍīÄ). dbg_bt_err = SWD ÍīÄžįįžö© žĻīžöīŪĄį
 511:Core/Src/freertos.c **** void HAL_UART_ErrorCallback(UART_HandleTypeDef *huart)
 512:Core/Src/freertos.c **** {
 1314              		.loc 1 512 1 is_stmt 1 view -0
 1315              		.cfi_startproc
 1316              		@ args = 0, pretend = 0, frame = 16
 1317              		@ frame_needed = 0, uses_anonymous_args = 0
 513:Core/Src/freertos.c ****     if (huart->Instance == USART1)
 1318              		.loc 1 513 5 view .LVU382
 1319              		.loc 1 513 14 is_stmt 0 view .LVU383
 1320 0000 0268     		ldr	r2, [r0]
 1321              		.loc 1 513 8 view .LVU384
 1322 0002 164B     		ldr	r3, .L93
 1323 0004 9A42     		cmp	r2, r3
 1324 0006 00D0     		beq	.L92
 1325 0008 7047     		bx	lr
 1326              	.L92:
 512:Core/Src/freertos.c ****     if (huart->Instance == USART1)
 1327              		.loc 1 512 1 view .LVU385
 1328 000a 00B5     		push	{lr}
 1329              	.LCFI10:
 1330              		.cfi_def_cfa_offset 4
 1331              		.cfi_offset 14, -4
 1332 000c 85B0     		sub	sp, sp, #20
 1333              	.LCFI11:
 1334              		.cfi_def_cfa_offset 24
 514:Core/Src/freertos.c ****     {
 515:Core/Src/freertos.c ****         dbg_bt_err++;
 1335              		.loc 1 515 9 is_stmt 1 view .LVU386
 1336              		.loc 1 515 19 is_stmt 0 view .LVU387
 1337 000e 144A     		ldr	r2, .L93+4
 1338 0010 1368     		ldr	r3, [r2]
 1339 0012 0133     		adds	r3, r3, #1
 1340 0014 1360     		str	r3, [r2]
 516:Core/Src/freertos.c ****         __HAL_UART_CLEAR_OREFLAG(&huart1);   /* SR read + DR readŽ°ú ORE Ūēīž†ú */
 1341              		.loc 1 516 9 is_stmt 1 view .LVU388
 1342              	.LBB15:
 1343              		.loc 1 516 9 view .LVU389
 1344 0016 0022     		movs	r2, #0
 1345 0018 0092     		str	r2, [sp]
 1346              		.loc 1 516 9 view .LVU390
 1347 001a 1248     		ldr	r0, .L93+8
 1348              	.LVL85:
 1349              		.loc 1 516 9 is_stmt 0 view .LVU391
 1350 001c 0368     		ldr	r3, [r0]
 1351 001e 1968     		ldr	r1, [r3]
 1352 0020 0091     		str	r1, [sp]
 1353              		.loc 1 516 9 is_stmt 1 view .LVU392
 1354 0022 5968     		ldr	r1, [r3, #4]
 1355 0024 0091     		str	r1, [sp]
 1356              		.loc 1 516 9 view .LVU393
ARM GAS  C:\Users\user\AppData\Local\Temp\ccDst2FA.s 			page 39


 1357 0026 0099     		ldr	r1, [sp]
 1358              	.LBE15:
 1359              		.loc 1 516 9 view .LVU394
 517:Core/Src/freertos.c ****         __HAL_UART_CLEAR_NEFLAG(&huart1);
 1360              		.loc 1 517 9 view .LVU395
 1361              	.LBB16:
 1362              		.loc 1 517 9 view .LVU396
 1363 0028 0192     		str	r2, [sp, #4]
 1364              		.loc 1 517 9 view .LVU397
 1365 002a 1968     		ldr	r1, [r3]
 1366 002c 0191     		str	r1, [sp, #4]
 1367              		.loc 1 517 9 view .LVU398
 1368 002e 5968     		ldr	r1, [r3, #4]
 1369 0030 0191     		str	r1, [sp, #4]
 1370              		.loc 1 517 9 view .LVU399
 1371 0032 0199     		ldr	r1, [sp, #4]
 1372              	.LBE16:
 1373              		.loc 1 517 9 view .LVU400
 518:Core/Src/freertos.c ****         __HAL_UART_CLEAR_FEFLAG(&huart1);
 1374              		.loc 1 518 9 view .LVU401
 1375              	.LBB17:
 1376              		.loc 1 518 9 view .LVU402
 1377 0034 0292     		str	r2, [sp, #8]
 1378              		.loc 1 518 9 view .LVU403
 1379 0036 1968     		ldr	r1, [r3]
 1380 0038 0291     		str	r1, [sp, #8]
 1381              		.loc 1 518 9 view .LVU404
 1382 003a 5968     		ldr	r1, [r3, #4]
 1383 003c 0291     		str	r1, [sp, #8]
 1384              		.loc 1 518 9 view .LVU405
 1385 003e 0299     		ldr	r1, [sp, #8]
 1386              	.LBE17:
 1387              		.loc 1 518 9 view .LVU406
 519:Core/Src/freertos.c ****         __HAL_UART_CLEAR_PEFLAG(&huart1);
 1388              		.loc 1 519 9 view .LVU407
 1389              	.LBB18:
 1390              		.loc 1 519 9 view .LVU408
 1391 0040 0392     		str	r2, [sp, #12]
 1392              		.loc 1 519 9 view .LVU409
 1393 0042 1968     		ldr	r1, [r3]
 1394 0044 0391     		str	r1, [sp, #12]
 1395              		.loc 1 519 9 view .LVU410
 1396 0046 5B68     		ldr	r3, [r3, #4]
 1397 0048 0393     		str	r3, [sp, #12]
 1398              		.loc 1 519 9 view .LVU411
 1399 004a 039B     		ldr	r3, [sp, #12]
 1400              	.LBE18:
 1401              		.loc 1 519 9 view .LVU412
 520:Core/Src/freertos.c ****         huart1.ErrorCode = HAL_UART_ERROR_NONE;
 1402              		.loc 1 520 9 view .LVU413
 1403              		.loc 1 520 26 is_stmt 0 view .LVU414
 1404 004c 4264     		str	r2, [r0, #68]
 521:Core/Src/freertos.c ****         HAL_UART_Receive_IT(&huart1, (uint8_t *)&bt_rx_byte, 1);
 1405              		.loc 1 521 9 is_stmt 1 view .LVU415
 1406 004e 0122     		movs	r2, #1
 1407 0050 0549     		ldr	r1, .L93+12
 1408 0052 FFF7FEFF 		bl	HAL_UART_Receive_IT
ARM GAS  C:\Users\user\AppData\Local\Temp\ccDst2FA.s 			page 40


 1409              	.LVL86:
 522:Core/Src/freertos.c ****     }
 523:Core/Src/freertos.c **** }
 1410              		.loc 1 523 1 is_stmt 0 view .LVU416
 1411 0056 05B0     		add	sp, sp, #20
 1412              	.LCFI12:
 1413              		.cfi_def_cfa_offset 4
 1414              		@ sp needed
 1415 0058 00BD     		pop	{pc}
 1416              	.L94:
 1417 005a 00BF     		.align	2
 1418              	.L93:
 1419 005c 00100140 		.word	1073811456
 1420 0060 00000000 		.word	dbg_bt_err
 1421 0064 00000000 		.word	huart1
 1422 0068 00000000 		.word	bt_rx_byte
 1423              		.cfi_endproc
 1424              	.LFE144:
 1426              		.section	.bss.t_calib.0,"aw",%nobits
 1427              		.align	2
 1430              	t_calib.0:
 1431 0000 00000000 		.space	4
 1432              		.section	.bss.t_imu_retry.1,"aw",%nobits
 1433              		.align	2
 1436              	t_imu_retry.1:
 1437 0000 00000000 		.space	4
 1438              		.section	.bss.imu_fail.2,"aw",%nobits
 1441              	imu_fail.2:
 1442 0000 00       		.space	1
 1443              		.section	.bss.side_miss.3,"aw",%nobits
 1444              		.align	2
 1447              	side_miss.3:
 1448 0000 000000   		.space	3
 1449              		.section	.bss.imu.4,"aw",%nobits
 1450              		.align	2
 1453              	imu.4:
 1454 0000 00000000 		.space	12
 1454      00000000 
 1454      00000000 
 1455              		.section	.bss.front_miss.5,"aw",%nobits
 1458              	front_miss.5:
 1459 0000 00       		.space	1
 1460              		.section	.bss.t_loop.6,"aw",%nobits
 1461              		.align	2
 1464              	t_loop.6:
 1465 0000 00000000 		.space	4
 1466              		.section	.bss.imu_live.7,"aw",%nobits
 1469              	imu_live.7:
 1470 0000 00       		.space	1
 1471              		.section	.bss.hist.8,"aw",%nobits
 1472              		.align	2
 1475              	hist.8:
 1476 0000 00000000 		.space	18
 1476      00000000 
 1476      00000000 
 1476      00000000 
 1476      0000
ARM GAS  C:\Users\user\AppData\Local\Temp\ccDst2FA.s 			page 41


 1477              		.global	uartQ_attributes
 1478              		.section	.rodata.str1.4,"aMS",%progbits,1
 1479              		.align	2
 1480              	.LC0:
 1481 0000 75617274 		.ascii	"uartQ\000"
 1481      5100
 1482              		.section	.rodata.uartQ_attributes,"a"
 1483              		.align	2
 1486              	uartQ_attributes:
 1487 0000 00000000 		.word	.LC0
 1488 0004 00000000 		.space	20
 1488      00000000 
 1488      00000000 
 1488      00000000 
 1488      00000000 
 1489              		.global	uartQHandle
 1490              		.section	.bss.uartQHandle,"aw",%nobits
 1491              		.align	2
 1494              	uartQHandle:
 1495 0000 00000000 		.space	4
 1496              		.global	BluetoothTask_attributes
 1497              		.section	.rodata.str1.4
 1498 0006 0000     		.align	2
 1499              	.LC1:
 1500 0008 426C7565 		.ascii	"BluetoothTask\000"
 1500      746F6F74 
 1500      68546173 
 1500      6B00
 1501              		.section	.rodata.BluetoothTask_attributes,"a"
 1502              		.align	2
 1505              	BluetoothTask_attributes:
 1506 0000 08000000 		.word	.LC1
 1507 0004 00000000 		.space	16
 1507      00000000 
 1507      00000000 
 1507      00000000 
 1508 0014 00040000 		.word	1024
 1509 0018 08000000 		.word	8
 1510 001c 00000000 		.space	8
 1510      00000000 
 1511              		.global	BluetoothTaskHandle
 1512              		.section	.bss.BluetoothTaskHandle,"aw",%nobits
 1513              		.align	2
 1516              	BluetoothTaskHandle:
 1517 0000 00000000 		.space	4
 1518              		.global	SensorTask_attributes
 1519              		.section	.rodata.str1.4
 1520 0016 0000     		.align	2
 1521              	.LC2:
 1522 0018 53656E73 		.ascii	"SensorTask\000"
 1522      6F725461 
 1522      736B00
 1523              		.section	.rodata.SensorTask_attributes,"a"
 1524              		.align	2
 1527              	SensorTask_attributes:
 1528 0000 18000000 		.word	.LC2
 1529 0004 00000000 		.space	16
ARM GAS  C:\Users\user\AppData\Local\Temp\ccDst2FA.s 			page 42


 1529      00000000 
 1529      00000000 
 1529      00000000 
 1530 0014 00040000 		.word	1024
 1531 0018 08000000 		.word	8
 1532 001c 00000000 		.space	8
 1532      00000000 
 1533              		.global	SensorTaskHandle
 1534              		.section	.bss.SensorTaskHandle,"aw",%nobits
 1535              		.align	2
 1538              	SensorTaskHandle:
 1539 0000 00000000 		.space	4
 1540              		.global	MotorTask_attributes
 1541              		.section	.rodata.str1.4
 1542 0023 00       		.align	2
 1543              	.LC3:
 1544 0024 4D6F746F 		.ascii	"MotorTask\000"
 1544      72546173 
 1544      6B00
 1545              		.section	.rodata.MotorTask_attributes,"a"
 1546              		.align	2
 1549              	MotorTask_attributes:
 1550 0000 24000000 		.word	.LC3
 1551 0004 00000000 		.space	16
 1551      00000000 
 1551      00000000 
 1551      00000000 
 1552 0014 00040000 		.word	1024
 1553 0018 18000000 		.word	24
 1554 001c 00000000 		.space	8
 1554      00000000 
 1555              		.global	MotorTaskHandle
 1556              		.section	.bss.MotorTaskHandle,"aw",%nobits
 1557              		.align	2
 1560              	MotorTaskHandle:
 1561 0000 00000000 		.space	4
 1562              		.global	dbg_bt_err
 1563              		.section	.bss.dbg_bt_err,"aw",%nobits
 1564              		.align	2
 1567              	dbg_bt_err:
 1568 0000 00000000 		.space	4
 1569              		.global	bt_rx_byte
 1570              		.section	.bss.bt_rx_byte,"aw",%nobits
 1573              	bt_rx_byte:
 1574 0000 00       		.space	1
 1575              		.global	manual_right
 1576              		.section	.bss.manual_right,"aw",%nobits
 1579              	manual_right:
 1580 0000 00       		.space	1
 1581              		.global	manual_left
 1582              		.section	.bss.manual_left,"aw",%nobits
 1585              	manual_left:
 1586 0000 00       		.space	1
 1587              		.global	sys_mode
 1588              		.section	.bss.sys_mode,"aw",%nobits
 1591              	sys_mode:
 1592 0000 00       		.space	1
ARM GAS  C:\Users\user\AppData\Local\Temp\ccDst2FA.s 			page 43


 1593              		.global	sys_power
 1594              		.section	.bss.sys_power,"aw",%nobits
 1597              	sys_power:
 1598 0000 00       		.space	1
 1599              		.global	dbg_hw_motor
 1600              		.section	.bss.dbg_hw_motor,"aw",%nobits
 1601              		.align	2
 1604              	dbg_hw_motor:
 1605 0000 00000000 		.space	4
 1606              		.global	dbg_hw_sensor
 1607              		.section	.bss.dbg_hw_sensor,"aw",%nobits
 1608              		.align	2
 1611              	dbg_hw_sensor:
 1612 0000 00000000 		.space	4
 1613              		.global	dbg_q_timeout
 1614              		.section	.bss.dbg_q_timeout,"aw",%nobits
 1615              		.align	2
 1618              	dbg_q_timeout:
 1619 0000 00000000 		.space	4
 1620              		.global	dbg_q_drop
 1621              		.section	.bss.dbg_q_drop,"aw",%nobits
 1622              		.align	2
 1625              	dbg_q_drop:
 1626 0000 00000000 		.space	4
 1627              		.global	dbg_imu_evt
 1628              		.section	.bss.dbg_imu_evt,"aw",%nobits
 1629              		.align	2
 1632              	dbg_imu_evt:
 1633 0000 00000000 		.space	4
 1634              		.global	dbg_imu_calib
 1635              		.section	.bss.dbg_imu_calib,"aw",%nobits
 1638              	dbg_imu_calib:
 1639 0000 00       		.space	1
 1640              		.global	dbg_imu_live
 1641              		.section	.bss.dbg_imu_live,"aw",%nobits
 1644              	dbg_imu_live:
 1645 0000 00       		.space	1
 1646              		.global	dbg_imu_ok
 1647              		.section	.bss.dbg_imu_ok,"aw",%nobits
 1650              	dbg_imu_ok:
 1651 0000 00       		.space	1
 1652              		.global	dbg_pitch
 1653              		.section	.bss.dbg_pitch,"aw",%nobits
 1654              		.align	2
 1657              	dbg_pitch:
 1658 0000 00000000 		.space	4
 1659              		.global	dbg_roll
 1660              		.section	.bss.dbg_roll,"aw",%nobits
 1661              		.align	2
 1664              	dbg_roll:
 1665 0000 00000000 		.space	4
 1666              		.global	dbg_heading
 1667              		.section	.bss.dbg_heading,"aw",%nobits
 1668              		.align	2
 1671              	dbg_heading:
 1672 0000 00000000 		.space	4
 1673              		.global	dbg_loop_ms
ARM GAS  C:\Users\user\AppData\Local\Temp\ccDst2FA.s 			page 44


 1674              		.section	.bss.dbg_loop_ms,"aw",%nobits
 1675              		.align	2
 1678              	dbg_loop_ms:
 1679 0000 00000000 		.space	4
 1680              		.global	dbg_front_miss
 1681              		.section	.bss.dbg_front_miss,"aw",%nobits
 1684              	dbg_front_miss:
 1685 0000 00       		.space	1
 1686              		.global	dbg_right
 1687              		.section	.bss.dbg_right,"aw",%nobits
 1688              		.align	1
 1691              	dbg_right:
 1692 0000 0000     		.space	2
 1693              		.global	dbg_left
 1694              		.section	.bss.dbg_left,"aw",%nobits
 1695              		.align	1
 1698              	dbg_left:
 1699 0000 0000     		.space	2
 1700              		.global	dbg_front
 1701              		.section	.bss.dbg_front,"aw",%nobits
 1702              		.align	1
 1705              	dbg_front:
 1706 0000 0000     		.space	2
 1707              		.section	.bss.driveQ,"aw",%nobits
 1708              		.align	2
 1711              	driveQ:
 1712 0000 00000000 		.space	4
 1713              		.text
 1714              	.Letext0:
 1715              		.file 2 "C:\\ST\\STM32CubeIDE_2.1.0\\STM32CubeIDE\\plugins\\com.st.stm32cube.ide.mcu.externaltools
 1716              		.file 3 "C:\\ST\\STM32CubeIDE_2.1.0\\STM32CubeIDE\\plugins\\com.st.stm32cube.ide.mcu.externaltools
 1717              		.file 4 "Middlewares/Third_Party/FreeRTOS/Source/portable/GCC/ARM_CM4F/portmacro.h"
 1718              		.file 5 "Middlewares/Third_Party/FreeRTOS/Source/include/task.h"
 1719              		.file 6 "Drivers/CMSIS/Device/ST/STM32F4xx/Include/stm32f411xe.h"
 1720              		.file 7 "Drivers/STM32F4xx_HAL_Driver/Inc/stm32f4xx_hal_def.h"
 1721              		.file 8 "Drivers/STM32F4xx_HAL_Driver/Inc/stm32f4xx_hal_dma.h"
 1722              		.file 9 "Drivers/STM32F4xx_HAL_Driver/Inc/stm32f4xx_hal_iwdg.h"
 1723              		.file 10 "Drivers/STM32F4xx_HAL_Driver/Inc/stm32f4xx_hal_uart.h"
 1724              		.file 11 "Middlewares/Third_Party/FreeRTOS/Source/CMSIS_RTOS_V2/cmsis_os2.h"
 1725              		.file 12 "Core/Inc/drive.h"
 1726              		.file 13 "Core/Inc/bno055.h"
 1727              		.file 14 "Core/Inc/iwdg.h"
 1728              		.file 15 "Core/Inc/usart.h"
 1729              		.file 16 "Core/Inc/ultra.h"
 1730              		.file 17 "Drivers/STM32F4xx_HAL_Driver/Inc/stm32f4xx_hal.h"
 1731              		.file 18 "Core/Inc/motor.h"
ARM GAS  C:\Users\user\AppData\Local\Temp\ccDst2FA.s 			page 45


DEFINED SYMBOLS
                            *ABS*:00000000 freertos.c
C:\Users\user\AppData\Local\Temp\ccDst2FA.s:21     .text.StartTask03:00000000 $t
C:\Users\user\AppData\Local\Temp\ccDst2FA.s:27     .text.StartTask03:00000000 StartTask03
C:\Users\user\AppData\Local\Temp\ccDst2FA.s:77     .text.StartTask03:00000034 $d
C:\Users\user\AppData\Local\Temp\ccDst2FA.s:115    .text.StartTask03:000000cc $t
C:\Users\user\AppData\Local\Temp\ccDst2FA.s:261    .text.StartTask03:00000170 $d
C:\Users\user\AppData\Local\Temp\ccDst2FA.s:1597   .bss.sys_power:00000000 sys_power
C:\Users\user\AppData\Local\Temp\ccDst2FA.s:1494   .bss.uartQHandle:00000000 uartQHandle
C:\Users\user\AppData\Local\Temp\ccDst2FA.s:1585   .bss.manual_left:00000000 manual_left
C:\Users\user\AppData\Local\Temp\ccDst2FA.s:1579   .bss.manual_right:00000000 manual_right
C:\Users\user\AppData\Local\Temp\ccDst2FA.s:1591   .bss.sys_mode:00000000 sys_mode
C:\Users\user\AppData\Local\Temp\ccDst2FA.s:270    .text.StartDefaultTask:00000000 $t
C:\Users\user\AppData\Local\Temp\ccDst2FA.s:276    .text.StartDefaultTask:00000000 StartDefaultTask
C:\Users\user\AppData\Local\Temp\ccDst2FA.s:403    .text.StartDefaultTask:0000007c $d
C:\Users\user\AppData\Local\Temp\ccDst2FA.s:1618   .bss.dbg_q_timeout:00000000 dbg_q_timeout
C:\Users\user\AppData\Local\Temp\ccDst2FA.s:1604   .bss.dbg_hw_motor:00000000 dbg_hw_motor
C:\Users\user\AppData\Local\Temp\ccDst2FA.s:1711   .bss.driveQ:00000000 driveQ
C:\Users\user\AppData\Local\Temp\ccDst2FA.s:415    .text.StartTask02:00000000 $t
C:\Users\user\AppData\Local\Temp\ccDst2FA.s:421    .text.StartTask02:00000000 StartTask02
C:\Users\user\AppData\Local\Temp\ccDst2FA.s:1060   .text.StartTask02:000002b0 $d
C:\Users\user\AppData\Local\Temp\ccDst2FA.s:1475   .bss.hist.8:00000000 hist.8
C:\Users\user\AppData\Local\Temp\ccDst2FA.s:1650   .bss.dbg_imu_ok:00000000 dbg_imu_ok
C:\Users\user\AppData\Local\Temp\ccDst2FA.s:1469   .bss.imu_live.7:00000000 imu_live.7
C:\Users\user\AppData\Local\Temp\ccDst2FA.s:1458   .bss.front_miss.5:00000000 front_miss.5
C:\Users\user\AppData\Local\Temp\ccDst2FA.s:1453   .bss.imu.4:00000000 imu.4
C:\Users\user\AppData\Local\Temp\ccDst2FA.s:1625   .bss.dbg_q_drop:00000000 dbg_q_drop
C:\Users\user\AppData\Local\Temp\ccDst2FA.s:1447   .bss.side_miss.3:00000000 side_miss.3
C:\Users\user\AppData\Local\Temp\ccDst2FA.s:1705   .bss.dbg_front:00000000 dbg_front
C:\Users\user\AppData\Local\Temp\ccDst2FA.s:1698   .bss.dbg_left:00000000 dbg_left
C:\Users\user\AppData\Local\Temp\ccDst2FA.s:1691   .bss.dbg_right:00000000 dbg_right
C:\Users\user\AppData\Local\Temp\ccDst2FA.s:1436   .bss.t_imu_retry.1:00000000 t_imu_retry.1
C:\Users\user\AppData\Local\Temp\ccDst2FA.s:1644   .bss.dbg_imu_live:00000000 dbg_imu_live
C:\Users\user\AppData\Local\Temp\ccDst2FA.s:1611   .bss.dbg_hw_sensor:00000000 dbg_hw_sensor
C:\Users\user\AppData\Local\Temp\ccDst2FA.s:1464   .bss.t_loop.6:00000000 t_loop.6
C:\Users\user\AppData\Local\Temp\ccDst2FA.s:1678   .bss.dbg_loop_ms:00000000 dbg_loop_ms
C:\Users\user\AppData\Local\Temp\ccDst2FA.s:1684   .bss.dbg_front_miss:00000000 dbg_front_miss
C:\Users\user\AppData\Local\Temp\ccDst2FA.s:1441   .bss.imu_fail.2:00000000 imu_fail.2
C:\Users\user\AppData\Local\Temp\ccDst2FA.s:1671   .bss.dbg_heading:00000000 dbg_heading
C:\Users\user\AppData\Local\Temp\ccDst2FA.s:1664   .bss.dbg_roll:00000000 dbg_roll
C:\Users\user\AppData\Local\Temp\ccDst2FA.s:1657   .bss.dbg_pitch:00000000 dbg_pitch
C:\Users\user\AppData\Local\Temp\ccDst2FA.s:1430   .bss.t_calib.0:00000000 t_calib.0
C:\Users\user\AppData\Local\Temp\ccDst2FA.s:1638   .bss.dbg_imu_calib:00000000 dbg_imu_calib
C:\Users\user\AppData\Local\Temp\ccDst2FA.s:1089   .text.MX_FREERTOS_Init:00000000 $t
C:\Users\user\AppData\Local\Temp\ccDst2FA.s:1095   .text.MX_FREERTOS_Init:00000000 MX_FREERTOS_Init
C:\Users\user\AppData\Local\Temp\ccDst2FA.s:1190   .text.MX_FREERTOS_Init:00000068 $d
C:\Users\user\AppData\Local\Temp\ccDst2FA.s:1486   .rodata.uartQ_attributes:00000000 uartQ_attributes
C:\Users\user\AppData\Local\Temp\ccDst2FA.s:1573   .bss.bt_rx_byte:00000000 bt_rx_byte
C:\Users\user\AppData\Local\Temp\ccDst2FA.s:1549   .rodata.MotorTask_attributes:00000000 MotorTask_attributes
C:\Users\user\AppData\Local\Temp\ccDst2FA.s:1560   .bss.MotorTaskHandle:00000000 MotorTaskHandle
C:\Users\user\AppData\Local\Temp\ccDst2FA.s:1527   .rodata.SensorTask_attributes:00000000 SensorTask_attributes
C:\Users\user\AppData\Local\Temp\ccDst2FA.s:1538   .bss.SensorTaskHandle:00000000 SensorTaskHandle
C:\Users\user\AppData\Local\Temp\ccDst2FA.s:1505   .rodata.BluetoothTask_attributes:00000000 BluetoothTask_attributes
C:\Users\user\AppData\Local\Temp\ccDst2FA.s:1516   .bss.BluetoothTaskHandle:00000000 BluetoothTaskHandle
C:\Users\user\AppData\Local\Temp\ccDst2FA.s:1208   .text.HAL_GPIO_EXTI_Callback:00000000 $t
C:\Users\user\AppData\Local\Temp\ccDst2FA.s:1214   .text.HAL_GPIO_EXTI_Callback:00000000 HAL_GPIO_EXTI_Callback
C:\Users\user\AppData\Local\Temp\ccDst2FA.s:1241   .text.HAL_GPIO_EXTI_Callback:00000010 $d
ARM GAS  C:\Users\user\AppData\Local\Temp\ccDst2FA.s 			page 46


C:\Users\user\AppData\Local\Temp\ccDst2FA.s:1632   .bss.dbg_imu_evt:00000000 dbg_imu_evt
C:\Users\user\AppData\Local\Temp\ccDst2FA.s:1246   .text.HAL_UART_RxCpltCallback:00000000 $t
C:\Users\user\AppData\Local\Temp\ccDst2FA.s:1252   .text.HAL_UART_RxCpltCallback:00000000 HAL_UART_RxCpltCallback
C:\Users\user\AppData\Local\Temp\ccDst2FA.s:1297   .text.HAL_UART_RxCpltCallback:00000028 $d
C:\Users\user\AppData\Local\Temp\ccDst2FA.s:1305   .text.HAL_UART_ErrorCallback:00000000 $t
C:\Users\user\AppData\Local\Temp\ccDst2FA.s:1311   .text.HAL_UART_ErrorCallback:00000000 HAL_UART_ErrorCallback
C:\Users\user\AppData\Local\Temp\ccDst2FA.s:1419   .text.HAL_UART_ErrorCallback:0000005c $d
C:\Users\user\AppData\Local\Temp\ccDst2FA.s:1567   .bss.dbg_bt_err:00000000 dbg_bt_err
C:\Users\user\AppData\Local\Temp\ccDst2FA.s:1427   .bss.t_calib.0:00000000 $d
C:\Users\user\AppData\Local\Temp\ccDst2FA.s:1433   .bss.t_imu_retry.1:00000000 $d
C:\Users\user\AppData\Local\Temp\ccDst2FA.s:1442   .bss.imu_fail.2:00000000 $d
C:\Users\user\AppData\Local\Temp\ccDst2FA.s:1444   .bss.side_miss.3:00000000 $d
C:\Users\user\AppData\Local\Temp\ccDst2FA.s:1450   .bss.imu.4:00000000 $d
C:\Users\user\AppData\Local\Temp\ccDst2FA.s:1459   .bss.front_miss.5:00000000 $d
C:\Users\user\AppData\Local\Temp\ccDst2FA.s:1461   .bss.t_loop.6:00000000 $d
C:\Users\user\AppData\Local\Temp\ccDst2FA.s:1470   .bss.imu_live.7:00000000 $d
C:\Users\user\AppData\Local\Temp\ccDst2FA.s:1472   .bss.hist.8:00000000 $d
C:\Users\user\AppData\Local\Temp\ccDst2FA.s:1479   .rodata.str1.4:00000000 $d
C:\Users\user\AppData\Local\Temp\ccDst2FA.s:1483   .rodata.uartQ_attributes:00000000 $d
C:\Users\user\AppData\Local\Temp\ccDst2FA.s:1491   .bss.uartQHandle:00000000 $d
C:\Users\user\AppData\Local\Temp\ccDst2FA.s:1502   .rodata.BluetoothTask_attributes:00000000 $d
C:\Users\user\AppData\Local\Temp\ccDst2FA.s:1513   .bss.BluetoothTaskHandle:00000000 $d
C:\Users\user\AppData\Local\Temp\ccDst2FA.s:1524   .rodata.SensorTask_attributes:00000000 $d
C:\Users\user\AppData\Local\Temp\ccDst2FA.s:1535   .bss.SensorTaskHandle:00000000 $d
C:\Users\user\AppData\Local\Temp\ccDst2FA.s:1546   .rodata.MotorTask_attributes:00000000 $d
C:\Users\user\AppData\Local\Temp\ccDst2FA.s:1557   .bss.MotorTaskHandle:00000000 $d
C:\Users\user\AppData\Local\Temp\ccDst2FA.s:1564   .bss.dbg_bt_err:00000000 $d
C:\Users\user\AppData\Local\Temp\ccDst2FA.s:1574   .bss.bt_rx_byte:00000000 $d
C:\Users\user\AppData\Local\Temp\ccDst2FA.s:1580   .bss.manual_right:00000000 $d
C:\Users\user\AppData\Local\Temp\ccDst2FA.s:1586   .bss.manual_left:00000000 $d
C:\Users\user\AppData\Local\Temp\ccDst2FA.s:1592   .bss.sys_mode:00000000 $d
C:\Users\user\AppData\Local\Temp\ccDst2FA.s:1598   .bss.sys_power:00000000 $d
C:\Users\user\AppData\Local\Temp\ccDst2FA.s:1601   .bss.dbg_hw_motor:00000000 $d
C:\Users\user\AppData\Local\Temp\ccDst2FA.s:1608   .bss.dbg_hw_sensor:00000000 $d
C:\Users\user\AppData\Local\Temp\ccDst2FA.s:1615   .bss.dbg_q_timeout:00000000 $d
C:\Users\user\AppData\Local\Temp\ccDst2FA.s:1622   .bss.dbg_q_drop:00000000 $d
C:\Users\user\AppData\Local\Temp\ccDst2FA.s:1629   .bss.dbg_imu_evt:00000000 $d
C:\Users\user\AppData\Local\Temp\ccDst2FA.s:1639   .bss.dbg_imu_calib:00000000 $d
C:\Users\user\AppData\Local\Temp\ccDst2FA.s:1645   .bss.dbg_imu_live:00000000 $d
C:\Users\user\AppData\Local\Temp\ccDst2FA.s:1651   .bss.dbg_imu_ok:00000000 $d
C:\Users\user\AppData\Local\Temp\ccDst2FA.s:1654   .bss.dbg_pitch:00000000 $d
C:\Users\user\AppData\Local\Temp\ccDst2FA.s:1661   .bss.dbg_roll:00000000 $d
C:\Users\user\AppData\Local\Temp\ccDst2FA.s:1668   .bss.dbg_heading:00000000 $d
C:\Users\user\AppData\Local\Temp\ccDst2FA.s:1675   .bss.dbg_loop_ms:00000000 $d
C:\Users\user\AppData\Local\Temp\ccDst2FA.s:1685   .bss.dbg_front_miss:00000000 $d
C:\Users\user\AppData\Local\Temp\ccDst2FA.s:1688   .bss.dbg_right:00000000 $d
C:\Users\user\AppData\Local\Temp\ccDst2FA.s:1695   .bss.dbg_left:00000000 $d
C:\Users\user\AppData\Local\Temp\ccDst2FA.s:1702   .bss.dbg_front:00000000 $d
C:\Users\user\AppData\Local\Temp\ccDst2FA.s:1708   .bss.driveQ:00000000 $d
                           .group:00000000 wm4.0.3e3bd4fae48ed4285b9fe9ad79008a8e
                           .group:00000000 wm4.stddef.h.39.811583f327f35b0df7808fda70b062a0
                           .group:00000000 wm4._newlib_version.h.4.0eb654b64686e2bd29646258853f6c22
                           .group:00000000 wm4.features.h.33.d554620bb17bd3b714c3fb5c268772bc
                           .group:00000000 wm4._default_types.h.15.247e5cd201eca3442cbf5404108c4935
                           .group:00000000 wm4._intsup.h.10.48bafbb683905c4daa4565a85aeeb264
                           .group:00000000 wm4._stdint.h.10.c24fa3af3bc1706662bb5593a907e841
                           .group:00000000 wm4.stdint.h.23.d53047a68f4a85177f80b422d52785ed
ARM GAS  C:\Users\user\AppData\Local\Temp\ccDst2FA.s 			page 47


                           .group:00000000 wm4.FreeRTOSConfig.h.32.6bbd733e8d202634418384a7607bb54f
                           .group:00000000 wm4.projdefs.h.29.3472c8470d131a5f474bc7437ea94609
                           .group:00000000 wm4.portmacro.h.30.ebb5f3ce711e1dad21b3172c9bc8e19f
                           .group:00000000 wm4.portable.h.64.742f2ce568820e866a7b541b4c77966f
                           .group:00000000 wm4.mpu_wrappers.h.29.4f9aea82ee68d943d141825e5294de63
                           .group:00000000 wm4.newlib.h.7.decd5b9657e2c5df625d9eac6e10520c
                           .group:00000000 wm4.ieeefp.h.77.61a77db5804869b1dadd307a77cf78c9
                           .group:00000000 wm4.config.h.224.10ee1ad185d877c6e334e6581faab44d
                           .group:00000000 wm4._ansi.h.31.de524f58584151836e90d8620a16f8e8
                           .group:00000000 wm4.cdefs.h.49.56fd742369e655e7e8a7e365e706e208
                           .group:00000000 wm4._types.h.20.dd0d04dca3800a0d2a6129b87f3adbb2
                           .group:00000000 wm4.stddef.h.173.4903093a50a8482cb062b176ea61fac3
                           .group:00000000 wm4._types.h.127.3bdfe3ff8ea2d0985b03d9cbe93480e3
                           .group:00000000 wm4.reent.h.18.25503cdc8b7e55dd0d6ea7b3e5af7a03
                           .group:00000000 wm4.lock.h.2.1461d1fff82dffe8bfddc23307f6484f
                           .group:00000000 wm4.reent.h.78.6d702f69a6d6435d2dbe915b10150b1a
                           .group:00000000 wm4.reent.h.96.88022c5a22979c33a20a5d76964119ed
                           .group:00000000 wm4.stddef.h.173.1cea4f16a943c8e875db6791959c3141
                           .group:00000000 wm4.FreeRTOS.h.136.a17c2bf78722c1d7b86ba8d45e5b5f29
                           .group:00000000 wm4.list.h.61.5c5a38f6bc6687eed6d893e57dabd8e6
                           .group:00000000 wm4.task.h.46.9fb92b2c1a30a52e436f6063552b709b
                           .group:00000000 wm4.stm32f4xx_hal_conf.h.25.0e66e2bdd1e693edb8cfdc624d1a6bd4
                           .group:00000000 wm4.stm32f4xx.h.38.63e3ea23bd63a94457417730025259b6
                           .group:00000000 wm4.stm32f411xe.h.34.f2908321cbbda12187706c23063bbc28
                           .group:00000000 wm4.cmsis_version.h.32.0ac195c83bb4537824e6ad1c47474b79
                           .group:00000000 wm4.core_cm4.h.66.e4ff136c4a17abc46741866f64f8e729
                           .group:00000000 wm4.cmsis_gcc.h.26.498d0ad17a45fc9ef20fdc01caf02259
                           .group:00000000 wm4.core_cm4.h.174.62be9b4588d49bed18171771001331df
                           .group:00000000 wm4.mpu_armv7.h.32.83326921a797fa9d6f70449916b4b839
                           .group:00000000 wm4.stm32f411xe.h.636.37cf950cfbbaac9e193dbe2b79c3e749
                           .group:00000000 wm4.stm32f4xx.h.195.a4b8bf80f37cc96981498656ffe5f588
                           .group:00000000 wm4.stm32_hal_legacy.h.22.8b7d303dc46a0b7ac6d3edf19ce2608d
                           .group:00000000 wm4.stm32f4xx_hal_def.h.58.54e2b30db63e8e74c562662f8beb243e
                           .group:00000000 wm4.stm32f4xx_hal_rcc_ex.h.20.6bc7ed2ae7969e22afc815a811faa8ee
                           .group:00000000 wm4.stm32f4xx_hal_rcc.h.106.0887cf5d985ae88e345b0aed0ceb4729
                           .group:00000000 wm4.stm32f4xx_hal_gpio.h.21.22da6a14b6049d6ac156577be74df1d7
                           .group:00000000 wm4.stm32f4xx_hal_gpio_ex.h.21.985b1076fbcb2c3eb806d02fd771d120
                           .group:00000000 wm4.stm32f4xx_hal_gpio.h.254.d7e07832f748fe8bcb575db0b8373592
                           .group:00000000 wm4.stm32f4xx_hal_exti.h.21.2ccac119fb1c64adeb682c3dcad90241
                           .group:00000000 wm4.stm32f4xx_hal_dma.h.21.8e4b1421c914345c23be719e5e528779
                           .group:00000000 wm4.stm32f4xx_hal_dma.h.720.ac2d7eef74792e4026acc4d2923c5da4
                           .group:00000000 wm4.stm32f4xx_hal_cortex.h.20.03673e4f79386680bf73ba399c19306b
                           .group:00000000 wm4.stm32f4xx_hal_flash.h.20.2f1e0d1b7010b3a81a7980aaf712e7e5
                           .group:00000000 wm4.stm32f4xx_hal_flash_ex.h.20.2abe4a01ce8028804a922735defa62fd
                           .group:00000000 wm4.stm32f4xx_hal_flash.h.361.23bc19b9eac79b0956d913651841ede8
                           .group:00000000 wm4.stm32f4xx_hal_i2c.h.21.147e96a27b1f7b1f2f8ee22132703ee3
                           .group:00000000 wm4.stm32f4xx_hal_i2c_ex.h.21.951ef5bfa13cf131d2015c338e82e461
                           .group:00000000 wm4.stm32f4xx_hal_i2c.h.647.ade9c3447780b1cc0ece02f0ce83aedc
                           .group:00000000 wm4.stm32f4xx_hal_iwdg.h.21.6227ccfbb99238d6637d6fd22341e211
                           .group:00000000 wm4.stm32f4xx_hal_pwr.h.20.1905a0783a9c83adefd7df0c4b501e40
                           .group:00000000 wm4.stm32f4xx_hal_pwr_ex.h.20.68994c4c23e76d9aeabea12988d5ec3f
                           .group:00000000 wm4.stm32f4xx_hal_pwr.h.338.debc0a4a62ba54688e63ab53dd99c4ea
                           .group:00000000 wm4.stm32f4xx_hal_tim.h.21.c31cbc03c25f07a932427770396c59d2
                           .group:00000000 wm4.stm32f4xx_hal_tim_ex.h.21.918fa7fcd405cc3ba11632ed1d07a240
                           .group:00000000 wm4.stm32f4xx_hal_uart.h.21.ba8e24dd05c77faac3f3d48472e636ba
                           .group:00000000 wm4.stm32f4xx_hal.h.71.02372bc31d47d29d3f67fbfe1429649e
                           .group:00000000 wm4.main.h.60.43ab73d02ecae73036be54daa58e8549
ARM GAS  C:\Users\user\AppData\Local\Temp\ccDst2FA.s 			page 48


                           .group:00000000 wm4.cmsis_os.h.124.adbc2241dbc0025710aa866137b8f22e
                           .group:00000000 wm4.cmsis_os2.h.151.57db232dfe421e4f781dd02c42ee4360
                           .group:00000000 wm4.cmsis_os.h.179.c36f217fbf28f1f2e754518bfb5a2ae8
                           .group:00000000 wm4.drive.h.14.d1e7468dfbb24244f2a3e76f1086da65
                           .group:00000000 wm4.stdbool.h.29.c08aa3eec75cf5b9b5003883f43253f0

UNDEFINED SYMBOLS
osMessageQueueGet
Drive_Update
Motor_Left
Motor_Right
Drive_Init
Car_Stop
uxTaskGetStackHighWaterMark
HAL_IWDG_Refresh
hiwdg
osThreadGetId
Ultra_Init
HAL_GetTick
osMessageQueuePut
median_n
Ultra_Measure
min_n
Drive_GetState
BNO055_ReadEuler
BNO055_ReadCalibStatus
osMessageQueueNew
HAL_UART_Receive_IT
osThreadNew
huart1
