ARM GAS  C:\Users\user\AppData\Local\Temp\ccCOI405.s 			page 1


   1              		.cpu cortex-m4
   2              		.arch armv7e-m
   3              		.fpu fpv4-sp-d16
   4              		.eabi_attribute 27, 1
   5              		.eabi_attribute 28, 1
   6              		.eabi_attribute 20, 1
   7              		.eabi_attribute 21, 1
   8              		.eabi_attribute 23, 3
   9              		.eabi_attribute 24, 1
  10              		.eabi_attribute 25, 1
  11              		.eabi_attribute 26, 1
  12              		.eabi_attribute 30, 1
  13              		.eabi_attribute 34, 1
  14              		.eabi_attribute 18, 4
  15              		.file	"freertos.c"
  16              		.text
  17              	.Ltext0:
  18              		.cfi_sections	.debug_frame
  19              		.file 1 "Core/Src/freertos.c"
  20              		.section	.text.StartTask03,"ax",%progbits
  21              		.align	1
  22              		.global	StartTask03
  23              		.syntax unified
  24              		.thumb
  25              		.thumb_func
  27              	StartTask03:
  28              	.LFB141:
   1:Core/Src/freertos.c **** /* USER CODE BEGIN Header */
   2:Core/Src/freertos.c **** /**
   3:Core/Src/freertos.c ****   ******************************************************************************
   4:Core/Src/freertos.c ****   * File Name          : freertos.c
   5:Core/Src/freertos.c ****   * Description        : Code for freertos applications
   6:Core/Src/freertos.c ****   ******************************************************************************
   7:Core/Src/freertos.c ****   * @attention
   8:Core/Src/freertos.c ****   *
   9:Core/Src/freertos.c ****   * Copyright (c) 2026 STMicroelectronics.
  10:Core/Src/freertos.c ****   * All rights reserved.
  11:Core/Src/freertos.c ****   *
  12:Core/Src/freertos.c ****   * This software is licensed under terms that can be found in the LICENSE file
  13:Core/Src/freertos.c ****   * in the root directory of this software component.
  14:Core/Src/freertos.c ****   * If no LICENSE file comes with this software, it is provided AS-IS.
  15:Core/Src/freertos.c ****   *
  16:Core/Src/freertos.c ****   ******************************************************************************
  17:Core/Src/freertos.c ****   */
  18:Core/Src/freertos.c **** /* USER CODE END Header */
  19:Core/Src/freertos.c **** 
  20:Core/Src/freertos.c **** /* Includes ------------------------------------------------------------------*/
  21:Core/Src/freertos.c **** #include "FreeRTOS.h"
  22:Core/Src/freertos.c **** #include "task.h"
  23:Core/Src/freertos.c **** #include "main.h"
  24:Core/Src/freertos.c **** #include "cmsis_os.h"
  25:Core/Src/freertos.c **** 
  26:Core/Src/freertos.c **** /* Private includes ----------------------------------------------------------*/
  27:Core/Src/freertos.c **** /* USER CODE BEGIN Includes */
  28:Core/Src/freertos.c **** #include "iwdg.h"    /* hiwdg вҖ” MotorTaskк°Җ нҒҗ мҲҳмӢ  м„ұкіө мӢңм—җл§Ң refresh */
  29:Core/Src/freertos.c **** #include "motor.h"
  30:Core/Src/freertos.c **** #include "drive.h"   /* DriveInputs(нҒҗ л©”мӢңм§Җ к·ёлҢҖлЎң мӮ¬мҡ©) + нҠңлӢқ л…ёлёҢ */
ARM GAS  C:\Users\user\AppData\Local\Temp\ccCOI405.s 			page 2


  31:Core/Src/freertos.c **** #include "debug.h"   /* DebugMonitor_t dbg (SWD лҜёлҹ¬ нҶөн•©) */
  32:Core/Src/freertos.c **** #include "bno055.h"
  33:Core/Src/freertos.c **** #include "ultra.h"
  34:Core/Src/freertos.c **** #include "usart.h"   /* huart1 вҖ” лё”лЈЁнҲ¬мҠӨ 1л°”мқҙнҠё IT мҲҳмӢ  */
  35:Core/Src/freertos.c **** /* USER CODE END Includes */
  36:Core/Src/freertos.c **** 
  37:Core/Src/freertos.c **** /* Private typedef -----------------------------------------------------------*/
  38:Core/Src/freertos.c **** /* USER CODE BEGIN PTD */
  39:Core/Src/freertos.c **** 
  40:Core/Src/freertos.c **** /* USER CODE END PTD */
  41:Core/Src/freertos.c **** 
  42:Core/Src/freertos.c **** /* Private define ------------------------------------------------------------*/
  43:Core/Src/freertos.c **** /* USER CODE BEGIN PD */
  44:Core/Src/freertos.c **** 
  45:Core/Src/freertos.c **** /* MotorTask нҒҗ мҲҳмӢ  timeout [ms]: м •мғҒ мөңм•… м„јм„ң мӮ¬мқҙнҒҙ(front 25 + side 6+6 + IMU time
  46:Core/Src/freertos.c ****  * + ліөкө¬ ~1ms вүҲ 60-70ms)мқҳ м•Ҫ 2л°°. мҙҲкіј = м„јм„ң нҢҢмқҙн”„лқјмқё м№Ёл¬ө вҶ’ Car_Stop + IW
  47:Core/Src/freertos.c ****  * вҶ’ 2.048s м§ҖмҶҚ мӢң мӣҢм№ҳлҸ… лҰ¬м…Ӣ (кө¬ мҠҲнҚјлЈЁн”„мқҳ 'лЈЁн”„ л©Ҳм¶Ө=лҰ¬м…Ӣ' мқҳлҜё ліҙмЎҙ
  48:Core/Src/freertos.c **** #define DRIVE_Q_TIMEOUT_MS  150U
  49:Core/Src/freertos.c **** 
  50:Core/Src/freertos.c **** /* USER CODE END PD */
  51:Core/Src/freertos.c **** 
  52:Core/Src/freertos.c **** /* Private macro -------------------------------------------------------------*/
  53:Core/Src/freertos.c **** /* USER CODE BEGIN PM */
  54:Core/Src/freertos.c **** 
  55:Core/Src/freertos.c **** /* USER CODE END PM */
  56:Core/Src/freertos.c **** 
  57:Core/Src/freertos.c **** /* Private variables ---------------------------------------------------------*/
  58:Core/Src/freertos.c **** /* USER CODE BEGIN Variables */
  59:Core/Src/freertos.c **** 
  60:Core/Src/freertos.c **** /* SensorTask вҶ’ MotorTask лӢЁл°©н–Ҙ л©”мқјл°•мҠӨ (DriveInputs к°’ ліөмӮ¬ вҖ” кіөмң ліҖмҲҳ/л®Өн…Қм
  61:Core/Src/freertos.c ****  * depth 2: full л©”мӢңм§Җ + м„ м ңм ңлҸҷ early л©”мӢңм§Җ кіөмЎҙмҡ© */
  62:Core/Src/freertos.c **** static osMessageQueueId_t driveQ = NULL;
  63:Core/Src/freertos.c **** 
  64:Core/Src/freertos.c **** /* ---- л””лІ„к·ё лҜёлҹ¬: debug.hмқҳ DebugMonitor_t dbgлЎң нҶөн•© (м •мқҳлҠ” drive.c 1кіі). м ‘к·ј 
  65:Core/Src/freertos.c **** 
  66:Core/Src/freertos.c **** /* ---- лё”лЈЁнҲ¬мҠӨ мӣҗкІ©м ңм–ҙ мғҒнғң (BluetoothTask лӢЁмқј writer, MotorTask reader) ----
  67:Core/Src/freertos.c ****  * 1л°”мқҙнҠё/int8 мӣҗмһҗ м ‘к·ј вҶ’ л®Өн…ҚмҠӨ л¶Ҳмҡ”. volatile = нғңмҠӨнҒ¬к°„ к°ҖмӢңм„ұ(м»ҙнҢҢмқјл
  68:Core/Src/freertos.c **** volatile uint8_t sys_power = 0;     /* 0=OFF(лӘЁн„° к°•м ңм •м§Җ) 1=ON. л¶ҖнҢ… OFF(м•Ҳм „) */
  69:Core/Src/freertos.c **** volatile uint8_t sys_mode  = 0;     /* 0=мһҗмңЁмЈјн–ү(Drive_Update) 1=мҲҳлҸҷ(manual_* мқёк°Җ) */
  70:Core/Src/freertos.c **** volatile int8_t  manual_left  = 0;  /* мҲҳлҸҷ мўҢ л“ҖнӢ° [-100..100] (+м „м§„ / -нӣ„м§„) */
  71:Core/Src/freertos.c **** volatile int8_t  manual_right = 0;  /* мҲҳлҸҷ мҡ° л“ҖнӢ° */
  72:Core/Src/freertos.c **** volatile uint8_t bt_rx_byte   = 0;  /* USART1 1л°”мқҙнҠё IT мҲҳмӢ  лІ„нҚј (RxCpltCallback вҶ’ uartQ
  73:Core/Src/freertos.c **** 
  74:Core/Src/freertos.c **** /* USER CODE END Variables */
  75:Core/Src/freertos.c **** /* Definitions for MotorTask */
  76:Core/Src/freertos.c **** osThreadId_t MotorTaskHandle;
  77:Core/Src/freertos.c **** const osThreadAttr_t MotorTask_attributes = {
  78:Core/Src/freertos.c ****   .name = "MotorTask",
  79:Core/Src/freertos.c ****   .stack_size = 256 * 4,
  80:Core/Src/freertos.c ****   .priority = (osPriority_t) osPriorityNormal,
  81:Core/Src/freertos.c **** };
  82:Core/Src/freertos.c **** /* Definitions for SensorTask */
  83:Core/Src/freertos.c **** osThreadId_t SensorTaskHandle;
  84:Core/Src/freertos.c **** const osThreadAttr_t SensorTask_attributes = {
  85:Core/Src/freertos.c ****   .name = "SensorTask",
  86:Core/Src/freertos.c ****   .stack_size = 256 * 4,
  87:Core/Src/freertos.c ****   .priority = (osPriority_t) osPriorityLow,
ARM GAS  C:\Users\user\AppData\Local\Temp\ccCOI405.s 			page 3


  88:Core/Src/freertos.c **** };
  89:Core/Src/freertos.c **** /* Definitions for BluetoothTask */
  90:Core/Src/freertos.c **** osThreadId_t BluetoothTaskHandle;
  91:Core/Src/freertos.c **** const osThreadAttr_t BluetoothTask_attributes = {
  92:Core/Src/freertos.c ****   .name = "BluetoothTask",
  93:Core/Src/freertos.c ****   .stack_size = 256 * 4,
  94:Core/Src/freertos.c ****   .priority = (osPriority_t) osPriorityLow,
  95:Core/Src/freertos.c **** };
  96:Core/Src/freertos.c **** /* Definitions for uartQ */
  97:Core/Src/freertos.c **** osMessageQueueId_t uartQHandle;
  98:Core/Src/freertos.c **** const osMessageQueueAttr_t uartQ_attributes = {
  99:Core/Src/freertos.c ****   .name = "uartQ"
 100:Core/Src/freertos.c **** };
 101:Core/Src/freertos.c **** 
 102:Core/Src/freertos.c **** /* Private function prototypes -----------------------------------------------*/
 103:Core/Src/freertos.c **** /* USER CODE BEGIN FunctionPrototypes */
 104:Core/Src/freertos.c **** 
 105:Core/Src/freertos.c **** #if MOTOR_TEST
 106:Core/Src/freertos.c **** /* н…ҢмҠӨнҠё мӢңнҖҖмҠӨ м „мҡ© лҢҖкё°: IWDG timeout(2.048s)ліҙлӢӨ кёҙ л¬ҙк°ұмӢ  лҢҖкё°к°Җ нқҗлҘҙл©ҙ 
 107:Core/Src/freertos.c ****  * лҰ¬м…Ӣ вҶ’ 'м „м§„л§Ң л°ҳліө' нҸӯмЈј. 10ms лӢЁмң„(osDelay)лЎң к°ұмӢ н•ҳл©° лҢҖкё° (кө¬ test_dela
 108:Core/Src/freertos.c **** static void test_delay(uint32_t ms)
 109:Core/Src/freertos.c **** {
 110:Core/Src/freertos.c ****     for (uint32_t t = 0; t < ms; t += 10U)
 111:Core/Src/freertos.c ****     {
 112:Core/Src/freertos.c ****         HAL_IWDG_Refresh(&hiwdg);
 113:Core/Src/freertos.c ****         osDelay(10);
 114:Core/Src/freertos.c ****     }
 115:Core/Src/freertos.c **** }
 116:Core/Src/freertos.c **** #endif
 117:Core/Src/freertos.c **** 
 118:Core/Src/freertos.c **** /* USER CODE END FunctionPrototypes */
 119:Core/Src/freertos.c **** 
 120:Core/Src/freertos.c **** void StartDefaultTask(void *argument);
 121:Core/Src/freertos.c **** void StartTask02(void *argument);
 122:Core/Src/freertos.c **** void StartTask03(void *argument);
 123:Core/Src/freertos.c **** 
 124:Core/Src/freertos.c **** void MX_FREERTOS_Init(void); /* (MISRA C 2004 rule 8.1) */
 125:Core/Src/freertos.c **** 
 126:Core/Src/freertos.c **** /**
 127:Core/Src/freertos.c ****   * @brief  FreeRTOS initialization
 128:Core/Src/freertos.c ****   * @param  None
 129:Core/Src/freertos.c ****   * @retval None
 130:Core/Src/freertos.c ****   */
 131:Core/Src/freertos.c **** void MX_FREERTOS_Init(void) {
 132:Core/Src/freertos.c ****   /* USER CODE BEGIN Init */
 133:Core/Src/freertos.c **** 
 134:Core/Src/freertos.c ****   /* USER CODE END Init */
 135:Core/Src/freertos.c **** 
 136:Core/Src/freertos.c ****   /* USER CODE BEGIN RTOS_MUTEX */
 137:Core/Src/freertos.c ****   /* add mutexes, ... */
 138:Core/Src/freertos.c ****   /* USER CODE END RTOS_MUTEX */
 139:Core/Src/freertos.c **** 
 140:Core/Src/freertos.c ****   /* USER CODE BEGIN RTOS_SEMAPHORES */
 141:Core/Src/freertos.c ****   /* add semaphores, ... */
 142:Core/Src/freertos.c ****   /* USER CODE END RTOS_SEMAPHORES */
 143:Core/Src/freertos.c **** 
 144:Core/Src/freertos.c ****   /* USER CODE BEGIN RTOS_TIMERS */
ARM GAS  C:\Users\user\AppData\Local\Temp\ccCOI405.s 			page 4


 145:Core/Src/freertos.c ****   /* start timers, add new ones, ... */
 146:Core/Src/freertos.c ****   /* USER CODE END RTOS_TIMERS */
 147:Core/Src/freertos.c **** 
 148:Core/Src/freertos.c ****   /* Create the queue(s) */
 149:Core/Src/freertos.c ****   /* creation of uartQ */
 150:Core/Src/freertos.c ****   uartQHandle = osMessageQueueNew (16, sizeof(uint8_t), &uartQ_attributes);
 151:Core/Src/freertos.c **** 
 152:Core/Src/freertos.c ****   /* USER CODE BEGIN RTOS_QUEUES */
 153:Core/Src/freertos.c ****   driveQ = osMessageQueueNew(2, sizeof(DriveInputs), NULL);
 154:Core/Src/freertos.c ****   /* мғқм„ұ мӢӨнҢЁ(NULL) мӢң put/getмқҙ м „л¶Җ м—җлҹ¬ вҶ’ MotorTaskк°Җ Car_Stop + refresh мғқлһө вҶ
 155:Core/Src/freertos.c ****    * heap_4 15KBм—җ нҒҗ ~мҲҳмӢӯBлқј мӢӨнҢЁ к°ҖлҠҘм„ұ мӮ¬мӢӨмғҒ м—ҶмқҢ вҖ” лі„лҸ„ мІҳлҰ¬ л¶Ҳмҡ” */
 156:Core/Src/freertos.c **** 
 157:Core/Src/freertos.c ****   /* лё”лЈЁнҲ¬мҠӨ мҲҳмӢ  к°ңмӢң: мөңмҙҲ 1л°”мқҙнҠё IT л¬ҙмһҘ (мқҙнӣ„ RxCpltCallbackк°Җ мһҗк°Җ мһ¬л¬
 158:Core/Src/freertos.c ****    * uartQ мғқм„ұ м§Ғнӣ„лқј мҪңл°ұ put лҢҖмғҒ мЎҙмһ¬. USART1мқҖ мҠӨмјҖмӨ„лҹ¬ м „ init мҷ„лЈҢ вҶ’ м§
 159:Core/Src/freertos.c ****   __HAL_UART_CLEAR_OREFLAG(&huart1);  /* л¶ҖнҢ… лқјмқё кёҖлҰ¬м№ҳлЎң м„ -л°•нһҢ ORE м ңкұ° нӣ„ л¬ҙмһ
 160:Core/Src/freertos.c ****   HAL_UART_Receive_IT(&huart1, (uint8_t *)&bt_rx_byte, 1);
 161:Core/Src/freertos.c ****   /* USER CODE END RTOS_QUEUES */
 162:Core/Src/freertos.c **** 
 163:Core/Src/freertos.c ****   /* Create the thread(s) */
 164:Core/Src/freertos.c ****   /* creation of MotorTask */
 165:Core/Src/freertos.c ****   MotorTaskHandle = osThreadNew(StartDefaultTask, NULL, &MotorTask_attributes);
 166:Core/Src/freertos.c **** 
 167:Core/Src/freertos.c ****   /* creation of SensorTask */
 168:Core/Src/freertos.c ****   SensorTaskHandle = osThreadNew(StartTask02, NULL, &SensorTask_attributes);
 169:Core/Src/freertos.c **** 
 170:Core/Src/freertos.c ****   /* creation of BluetoothTask */
 171:Core/Src/freertos.c ****   BluetoothTaskHandle = osThreadNew(StartTask03, NULL, &BluetoothTask_attributes);
 172:Core/Src/freertos.c **** 
 173:Core/Src/freertos.c ****   /* USER CODE BEGIN RTOS_THREADS */
 174:Core/Src/freertos.c ****   /* add threads, ... */
 175:Core/Src/freertos.c ****   /* USER CODE END RTOS_THREADS */
 176:Core/Src/freertos.c **** 
 177:Core/Src/freertos.c ****   /* USER CODE BEGIN RTOS_EVENTS */
 178:Core/Src/freertos.c ****   /* add events, ... */
 179:Core/Src/freertos.c ****   /* USER CODE END RTOS_EVENTS */
 180:Core/Src/freertos.c **** 
 181:Core/Src/freertos.c **** }
 182:Core/Src/freertos.c **** 
 183:Core/Src/freertos.c **** /* USER CODE BEGIN Header_StartDefaultTask */
 184:Core/Src/freertos.c **** /**
 185:Core/Src/freertos.c ****   * @brief  Function implementing the MotorTask thread.
 186:Core/Src/freertos.c ****   * @param  argument: Not used
 187:Core/Src/freertos.c ****   * @retval None
 188:Core/Src/freertos.c ****   */
 189:Core/Src/freertos.c **** /* USER CODE END Header_StartDefaultTask */
 190:Core/Src/freertos.c **** void StartDefaultTask(void *argument)
 191:Core/Src/freertos.c **** {
 192:Core/Src/freertos.c ****   /* USER CODE BEGIN StartDefaultTask */
 193:Core/Src/freertos.c ****   (void)argument;
 194:Core/Src/freertos.c **** 
 195:Core/Src/freertos.c **** #if MOTOR_TEST
 196:Core/Src/freertos.c ****   /* л°”нҖҙ л°©н–Ҙ/мҶҚлҸ„/м ңлҸҷ лҲҲ нҷ•мқё + мҲҳм№ҳ нҠңлӢқмҡ©. м„јм„ң лЎңм§Ғ кұҙл„ҲлңҖ(SensorTaskл
 197:Core/Src/freertos.c ****    * test_delay мӮ¬мҡ© н•„мҲҳ: л¬ҙк°ұмӢ  лҢҖкё°лҠ” IWDG лҰ¬м…Ӣ вҶ’ мӢңнҖҖмҠӨ мӨ‘к°„ нҸӯмЈј */
 198:Core/Src/freertos.c ****   for(;;)
 199:Core/Src/freertos.c ****   {
 200:Core/Src/freertos.c ****     Car_Forward(DRIVE_SPEED);   test_delay(1500);   /* м–‘мӘҪ лӢӨ м „м§„н•ҳлҠ”м§Җ нҷ•мқё */
 201:Core/Src/freertos.c ****     Car_Brake();                test_delay(400);    /* лҠҘлҸҷ м ңлҸҷ: мҪ”мҠӨнҠё лҢҖл№„ м •м§Җкұ°лҰ¬
ARM GAS  C:\Users\user\AppData\Local\Temp\ccCOI405.s 			page 5


 202:Core/Src/freertos.c ****     Car_Stop();                 test_delay(800);
 203:Core/Src/freertos.c ****     Car_PivotLeft(TURN_SPEED, TURN_INNER);   test_delay(1500);   /* IN1 м „м§„ + IN3 нӣ„м§„мҶҢлҹү в
 204:Core/Src/freertos.c ****     Car_Stop();                              test_delay(800);
 205:Core/Src/freertos.c ****     Car_PivotRight(TURN_SPEED, TURN_INNER);  test_delay(1500);   /* IN4 м „м§„ + IN2 нӣ„м§„мҶҢлҹү в
 206:Core/Src/freertos.c ****     Car_Stop();                              test_delay(800);
 207:Core/Src/freertos.c ****     Car_Backward(DRIVE_SPEED);  test_delay(1500);
 208:Core/Src/freertos.c ****     Car_Stop();                 test_delay(800);
 209:Core/Src/freertos.c ****   }
 210:Core/Src/freertos.c **** #else
 211:Core/Src/freertos.c ****   /* м ңм–ҙ мҶҢл№„мһҗ = лӘЁн„° лӘ…л № мң мқј л°ңн–үмһҗ (нҸҙнҠё н•ёл“Өлҹ¬мқҳ Car_Stop м ңмҷё).
 212:Core/Src/freertos.c ****    * IWDGлҠ” 'мӢ м„ н•ң м„јм„ң лҚ°мқҙн„°к°Җ нқҗлҘј л•Ңл§Ң' refresh вҖ” SensorTask н–ү/мӮ¬л§қ, нҒҗ л
 213:Core/Src/freertos.c ****    * ліё нғңмҠӨнҒ¬ н–ү м–ҙлҠҗ мӘҪмқҙл“  2.048s лӮҙ мӣҢм№ҳлҸ… лҰ¬м…Ӣ (кө¬ мҠҲнҚјлЈЁн”„ fail-safe мқҳ
 214:Core/Src/freertos.c ****   DriveInputs din;
 215:Core/Src/freertos.c ****   uint8_t prev_auto = 0;   /* м§Ғм „ лЈЁн”„к°Җ мһҗмңЁ кө¬лҸҷ? MвҶ’A / OFFвҶ’A мһ¬м§„мһ… edge кІҖм¶ң
 216:Core/Src/freertos.c ****   for(;;)
 217:Core/Src/freertos.c ****   {
 218:Core/Src/freertos.c ****     if (osMessageQueueGet(driveQ, &din, NULL, DRIVE_Q_TIMEOUT_MS) == osOK)
 219:Core/Src/freertos.c ****     {
 220:Core/Src/freertos.c ****       HAL_IWDG_Refresh(&hiwdg);   /* м„јм„ң нҢҢмқҙн”„лқјмқё мғқмЎҙ = refresh (мЈјн–үлӘЁл“ң л¬ҙкҙҖ) 
 221:Core/Src/freertos.c **** 
 222:Core/Src/freertos.c ****       /* === лӘЁн„° м ңм–ҙк¶Ң лӢЁмқј л¶„кё° (кІҪмҹҒ мӣҗмІң м°ЁлӢЁ; л°ңн–үмһҗлҠ” ліё нғңмҠӨнҒ¬ н•ҳлӮ
 223:Core/Src/freertos.c ****       if (sys_power == 0)
 224:Core/Src/freertos.c ****       {
 225:Core/Src/freertos.c ****         Car_Stop();                    /* м „мӣҗ OFF: к°•м ң м •м§Җ (мөңмҡ°м„ ) */
 226:Core/Src/freertos.c ****         prev_auto = 0;
 227:Core/Src/freertos.c ****       }
 228:Core/Src/freertos.c ****       else if (sys_mode == 1)
 229:Core/Src/freertos.c ****       {
 230:Core/Src/freertos.c ****         Motor_Left(manual_left);       /* мҲҳлҸҷ: м•ұ л“ҖнӢ° м§Ғм ‘ мқёк°Җ (мқҢмҲҳ=нӣ„м§„) */
 231:Core/Src/freertos.c ****         Motor_Right(manual_right);
 232:Core/Src/freertos.c ****         prev_auto = 0;
 233:Core/Src/freertos.c ****       }
 234:Core/Src/freertos.c ****       else                             /* sys_power==1 && sys_mode==0 вҶ’ мһҗмңЁмЈјн–ү */
 235:Core/Src/freertos.c ****       {
 236:Core/Src/freertos.c ****         if (!prev_auto)                /* мҲҳлҸҷ/OFFм—җм„ң л§ү ліөк·Җ вҶ’ мғҒнғңлЁёмӢ  лҰ¬м…Ӣ(мҠӨн…
 237:Core/Src/freertos.c ****         {
 238:Core/Src/freertos.c ****           Drive_Init();
 239:Core/Src/freertos.c ****           prev_auto = 1;
 240:Core/Src/freertos.c ****         }
 241:Core/Src/freertos.c ****         Drive_Update(&din);            /* нҳём¶ңлӢ№ м •нҷ•нһҲ 1нҡҢ лӘЁн„° лӘ…л № (din.now кё°л°ҳ л№
 242:Core/Src/freertos.c ****       }
 243:Core/Src/freertos.c ****     }
 244:Core/Src/freertos.c ****     else
 245:Core/Src/freertos.c ****     {
 246:Core/Src/freertos.c ****       dbg.q_timeout++;
 247:Core/Src/freertos.c ****       Car_Stop();           /* м„јм„ң м№Ёл¬ө лҸҷм•Ҳ м•Ҳм „ м •м§Җ. refresh мғқлһө вҶ’ м§ҖмҶҚ мӢң IW
 248:Core/Src/freertos.c ****     }
 249:Core/Src/freertos.c ****     dbg.hw_motor = (uint32_t)uxTaskGetStackHighWaterMark(NULL);
 250:Core/Src/freertos.c ****   }
 251:Core/Src/freertos.c **** #endif
 252:Core/Src/freertos.c ****   /* USER CODE END StartDefaultTask */
 253:Core/Src/freertos.c **** }
 254:Core/Src/freertos.c **** 
 255:Core/Src/freertos.c **** /* USER CODE BEGIN Header_StartTask02 */
 256:Core/Src/freertos.c **** /**
 257:Core/Src/freertos.c **** * @brief Function implementing the SensorTask thread.
 258:Core/Src/freertos.c **** * @param argument: Not used
ARM GAS  C:\Users\user\AppData\Local\Temp\ccCOI405.s 			page 6


 259:Core/Src/freertos.c **** * @retval None
 260:Core/Src/freertos.c **** */
 261:Core/Src/freertos.c **** /* USER CODE END Header_StartTask02 */
 262:Core/Src/freertos.c **** void StartTask02(void *argument)
 263:Core/Src/freertos.c **** {
 264:Core/Src/freertos.c ****   /* USER CODE BEGIN StartTask02 */
 265:Core/Src/freertos.c ****   (void)argument;
 266:Core/Src/freertos.c **** 
 267:Core/Src/freertos.c **** #if MOTOR_TEST
 268:Core/Src/freertos.c ****   /* лӘЁн„° м җкІҖ лӘЁл“ң: мёЎм •/нҒҗ л¶Ҳмҡ” вҖ” MotorTaskк°Җ мӢңнҖҖмҠӨ м „лӢҙ, м—¬кё°лҠ” нңҙл©ҙ */
 269:Core/Src/freertos.c ****   for(;;) osDelay(1000);
 270:Core/Src/freertos.c **** #else
 271:Core/Src/freertos.c ****   /* мёЎм •/н•„н„° мғҒнғң (кө¬ main.c мҠҲнҚјлЈЁн”„м—җм„ң мқҙлҸҷ) вҖ” м ңм–ҙ мғҒнғңлЁёмӢ мқҖ drive.c
 272:Core/Src/freertos.c ****    * hist мңҲлҸ„ = SIDE_MED_WIN(drive.h): мёЎл©ҙ median мғҳн”ҢмҲҳ = 'н•ңлІҲм”© нҠҖлҠ” к°’' м ңкұ° к
 273:Core/Src/freertos.c ****   static uint16_t hist[3][SIDE_MED_WIN];
 274:Core/Src/freertos.c ****   for (int ch = 0; ch < 3; ch++)
 275:Core/Src/freertos.c ****       for (int i = 0; i < SIDE_MED_WIN; i++) hist[ch][i] = ULTRA_MAX_CM;
 276:Core/Src/freertos.c ****   static uint8_t  front_miss = 0;   /* м •л©ҙ м—җмҪ” м—°мҶҚ лҜёнҡҢмӢ  (drive.c HOLD нҢҗм • мһ…л Ҙ) 
 277:Core/Src/freertos.c ****   static uint8_t  side_miss[3] = {0,0,0};  /* мёЎл©ҙ ch1(L)/ch2(R) м—°мҶҚ л¬ҙм—җмҪ” вҖ” н•ңкі„ мҙҲк
 278:Core/Src/freertos.c ****   static uint8_t  imu_live = 0;     /* IMU мғқмЎҙ кІҢмқҙнҠё */
 279:Core/Src/freertos.c ****   static uint8_t  imu_fail = 0;     /* мқҪкё° м—°мҶҚ мӢӨнҢЁ м№ҙмҡҙнҠё */
 280:Core/Src/freertos.c ****   static uint32_t t_imu_retry = 0;  /* мӮ¬л§қ нӣ„ мһ¬мӢңлҸ„ нғҖмқҙлЁё */
 281:Core/Src/freertos.c ****   static uint32_t t_calib = 0;      /* CALIB_STAT л””лІ„к·ё мқҪкё° мҠӨлЎңнӢҖ */
 282:Core/Src/freertos.c ****   static uint32_t t_loop = 0;       /* мӮ¬мқҙнҒҙ мЈјкё° мёЎм • */
 283:Core/Src/freertos.c ****   static BNO055_Euler imu;          /* мөңк·ј мңөн•©к°’ (read мӢӨнҢЁ мӢң м§Ғм „к°’ мң м§Җ) */
 284:Core/Src/freertos.c **** 
 285:Core/Src/freertos.c ****   uint16_t f = ULTRA_MAX_CM, l = ULTRA_MAX_CM, r = ULTRA_MAX_CM;  /* н•„н„° м¶ңл Ҙ */
 286:Core/Src/freertos.c ****   uint16_t d_snap[3];
 287:Core/Src/freertos.c ****   uint8_t  v_snap[3];
 288:Core/Src/freertos.c **** 
 289:Core/Src/freertos.c ****   Ultra_Init(osThreadGetId());      /* TIM3 IC start + мёЎм • мҷ„лЈҢ flag мҲҳмӢ мһҗ л“ұлЎқ */
 290:Core/Src/freertos.c ****   imu_live = dbg.imu_ok;            /* Init м„ұкіөн–Ҳмқ„ л•Ңл§Ң мғқмЎҙ мӢңмһ‘ (мӢӨнҢЁ мӢң кұ°лҰ¬-on
 291:Core/Src/freertos.c **** 
 292:Core/Src/freertos.c ****   for(;;)
 293:Core/Src/freertos.c ****   {
 294:Core/Src/freertos.c ****       uint32_t now = HAL_GetTick();
 295:Core/Src/freertos.c ****       dbg.loop_ms = now - t_loop;   /* мӮ¬мқҙнҒҙ мЈјкё° лҜёлҹ¬ (л°ҳмқ‘м§Җм—° к°җмӢң: нҶөмғҒ 6~9ms) 
 296:Core/Src/freertos.c ****       t_loop = now;
 297:Core/Src/freertos.c **** 
 298:Core/Src/freertos.c ****       /* 1) м •л©ҙ мёЎм • вҶ’ н•„н„° вҶ’ к·јм ‘ мӢң 'early' л©”мӢңм§ҖлЎң м„ м ң л°ҳмқ‘(м „л°© м ңлҸ
 299:Core/Src/freertos.c ****        *    [req1] кҙҖмӢ¬мӮ¬ л¶„лҰ¬: м„јм„ңлҠ” м ңм–ҙкё° мғҒнғң(DS_*)лҘј лӘЁлҰ„ вҖ” f<FRONT_TURN_CM
 300:Core/Src/freertos.c ****        *    side_valid=0мңјлЎң н‘ңмӢңн•ҙ drive.cк°Җ stale l/rлЎң мҪ”л„Ҳ/мёЎл©ҙ нҢҗлӢЁмқ„ н•ҳм§Җ м•Ҡ
 301:Core/Src/freertos.c ****        *    лӘЁн„° лӘ…л № л°ңн–үмһҗлҠ” MotorTask н•ҳлӮҳлЎң мң м§Җ */
 302:Core/Src/freertos.c ****       v_snap[0] = Ultra_Measure(0, MEAS_WAIT_MS, &d_snap[0]);    /* front (TRIG PA5, ECHO CH1) */
 303:Core/Src/freertos.c **** 
 304:Core/Src/freertos.c ****       if (v_snap[0])             { front_miss = 0; }   /* м •м§Җ кІ°м •мқҖ drive.c HOLDк°Җ лӢҙлӢ№ *
 305:Core/Src/freertos.c ****       else if (front_miss < 255) { front_miss++; }
 306:Core/Src/freertos.c ****       dbg.front_miss = front_miss;
 307:Core/Src/freertos.c **** 
 308:Core/Src/freertos.c ****       if (v_snap[0])   /* мң нҡЁ мёЎм •л§Ң hist н‘ёмӢң вҶ’ л¬ҙнҡҢмӢ мқ„ 200(л©ҖлӢӨ)мңјлЎң лҚ®лҠ” fa
 309:Core/Src/freertos.c ****       {
 310:Core/Src/freertos.c ****           for (int i = SIDE_MED_WIN - 1; i > 0; i--) hist[0][i] = hist[0][i - 1];
 311:Core/Src/freertos.c ****           hist[0][0] = d_snap[0];
 312:Core/Src/freertos.c ****       }
 313:Core/Src/freertos.c ****       f = min_n(hist[0], FRONT_MIN_WIN);   /* м •л©ҙмқҖ мөңк·ј FRONT_MIN_WINк°ң min (мөңк·јм ‘, м§Җ
 314:Core/Src/freertos.c **** 
 315:Core/Src/freertos.c ****       if (f < FRONT_TURN_CM)   /* [req1] м ңм–ҙкё° мғҒнғң л¬ҙкҙҖ вҖ” м •л©ҙ к·јм ‘мқҙл©ҙ н•ӯмғҒ ear
ARM GAS  C:\Users\user\AppData\Local\Temp\ccCOI405.s 			page 7


 316:Core/Src/freertos.c ****       {
 317:Core/Src/freertos.c ****           DriveInputs early;
 318:Core/Src/freertos.c ****           early.f          = f;
 319:Core/Src/freertos.c ****           early.l          = l;            /* м§Ғм „ мӮ¬мқҙнҒҙ н•„н„°к°’ вҖ” side_valid=0мқҙлҜҖлЎң 
 320:Core/Src/freertos.c ****           early.r          = r;
 321:Core/Src/freertos.c ****           early.f_valid    = v_snap[0];
 322:Core/Src/freertos.c ****           early.side_valid = 0U;
 323:Core/Src/freertos.c ****           early.front_miss = front_miss;
 324:Core/Src/freertos.c ****           early.heading    = imu.heading;
 325:Core/Src/freertos.c ****           early.imu_live   = 0U;           /* мқҙлІҲ лЈЁн”„ IMU мғҳн”Ң м „мқҙлҜҖлЎң stale heading м
 326:Core/Src/freertos.c ****           early.now        = HAL_GetTick();
 327:Core/Src/freertos.c ****           if (osMessageQueuePut(driveQ, &early, 0U, 0U) != osOK) { dbg.q_drop++; }
 328:Core/Src/freertos.c ****       }
 329:Core/Src/freertos.c **** 
 330:Core/Src/freertos.c ****       /* 2) мёЎл©ҙ мёЎм • (мҲңм°Ё л°ңмӮ¬ вҖ” нҒ¬лЎңмҠӨнҶ нҒ¬ м ңкұ°) + н•„н„° */
 331:Core/Src/freertos.c ****       v_snap[1] = Ultra_Measure(1, SIDE_WAIT_MS, &d_snap[1]);    /* left  (TRIG PA4, ECHO CH2) */
 332:Core/Src/freertos.c ****       v_snap[2] = Ultra_Measure(2, SIDE_WAIT_MS, &d_snap[2]);    /* right (TRIG PA3, ECHO CH3) */
 333:Core/Src/freertos.c **** 
 334:Core/Src/freertos.c ****       for (int ch = 1; ch < 3; ch++)
 335:Core/Src/freertos.c ****       {
 336:Core/Src/freertos.c ****           if (v_snap[ch])
 337:Core/Src/freertos.c ****           {
 338:Core/Src/freertos.c ****               side_miss[ch] = 0;
 339:Core/Src/freertos.c ****               for (int i = SIDE_MED_WIN - 1; i > 0; i--) hist[ch][i] = hist[ch][i - 1];
 340:Core/Src/freertos.c ****               hist[ch][0] = d_snap[ch];
 341:Core/Src/freertos.c ****           }
 342:Core/Src/freertos.c ****           else if (side_miss[ch] < 255)
 343:Core/Src/freertos.c ****           {
 344:Core/Src/freertos.c ****               /* м—°мҶҚ л¬ҙм—җмҪ” SIDE_FAIL_LIMIT лҸ„лӢ¬ вҶ’ histлҘј нҠёмһ„(MAX)мңјлЎң л№„мӣҖ вҶ’ m
 345:Core/Src/freertos.c ****                  stale к·јм ‘к°’ л¬ҙн•ңмң м§Җ м°ЁлӢЁ(мҪ”л„Ҳ мҳӨмЎ°н–Ҙ/мҳӨнҡҢн”ј л°©м§Җ). м—җмҪ” ліө
 346:Core/Src/freertos.c ****               if (++side_miss[ch] >= SIDE_FAIL_LIMIT)
 347:Core/Src/freertos.c ****                   for (int i = 0; i < SIDE_MED_WIN; i++) hist[ch][i] = ULTRA_MAX_CM;
 348:Core/Src/freertos.c ****           }
 349:Core/Src/freertos.c ****       }
 350:Core/Src/freertos.c ****       l = median_n(hist[1], SIDE_MED_WIN);   /* мёЎл©ҙмқҖ median (мҠӨнҢҢмқҙнҒ¬ м ңкұ° вҖ” мңҲлҸ„=SI
 351:Core/Src/freertos.c ****       r = median_n(hist[2], SIDE_MED_WIN);
 352:Core/Src/freertos.c ****       dbg.front = f; dbg.left = l; dbg.right = r;
 353:Core/Src/freertos.c **** 
 354:Core/Src/freertos.c ****       /* 3) IMU мғҳн”Ң (мғқмЎҙ кІҢмқҙнҠё): м •мғҒ мӢң л§Ө мӮ¬мқҙнҒҙ heading к°ұмӢ . м—°мҶҚ IMU_FAIL
 355:Core/Src/freertos.c ****        *    мӮ¬л§қ м„ м–ё нӣ„ IMU_RETRY_MS мЈјкё°лЎңл§Ң мһ¬мӢңлҸ„ вҖ” мЈҪмқҖ IMUк°Җ мӮ¬мқҙнҒҙл§ҲлӢӨ
 356:Core/Src/freertos.c ****        *    нғңмӣҢ л°ҳмқ‘м§Җм—° нӮӨмҡ°лҠ” кІғ м°ЁлӢЁ. CalibStatusлҠ” л””лІ„к·ё м „мҡ©мқҙлқј CALIB_P
 357:Core/Src/freertos.c ****       uint8_t imu_ctrl_live = 0U;   /* мқҙлІҲ м ңм–ҙ н”„л Ҳмһ„м—җм„ң мғҲ headingмқ„ мқҪм—Ҳмқ„ л•Ңл§
 358:Core/Src/freertos.c ****       if (imu_live)
 359:Core/Src/freertos.c ****       {
 360:Core/Src/freertos.c ****           if (BNO055_ReadEuler(&imu))
 361:Core/Src/freertos.c ****           {
 362:Core/Src/freertos.c ****               imu_fail = 0;
 363:Core/Src/freertos.c ****               imu_ctrl_live = 1U;
 364:Core/Src/freertos.c ****               dbg.heading = imu.heading;
 365:Core/Src/freertos.c ****               dbg.roll    = imu.roll;
 366:Core/Src/freertos.c ****               dbg.pitch   = imu.pitch;
 367:Core/Src/freertos.c ****           }
 368:Core/Src/freertos.c ****           else if (++imu_fail >= IMU_FAIL_LIMIT)
 369:Core/Src/freertos.c ****           {
 370:Core/Src/freertos.c ****               imu_live = 0;
 371:Core/Src/freertos.c ****               t_imu_retry = now;
 372:Core/Src/freertos.c ****           }
ARM GAS  C:\Users\user\AppData\Local\Temp\ccCOI405.s 			page 8


 373:Core/Src/freertos.c ****           if ((now - t_calib) >= CALIB_POLL_MS)
 374:Core/Src/freertos.c ****           {
 375:Core/Src/freertos.c ****               t_calib = now;
 376:Core/Src/freertos.c ****               dbg.imu_calib = BNO055_ReadCalibStatus();
 377:Core/Src/freertos.c ****           }
 378:Core/Src/freertos.c ****       }
 379:Core/Src/freertos.c ****       else if (dbg.imu_ok && (now - t_imu_retry) >= IMU_RETRY_MS)
 380:Core/Src/freertos.c ****       {
 381:Core/Src/freertos.c ****           /* Init м„ұкіө мқҙл Ҙ мһҲмқ„ л•Ңл§Ң мһ¬мӢңлҸ„ вҖ” Init мӢӨнҢЁ мғҒнғңмқҳ garbage мқҪкё°лЎң
 382:Core/Src/freertos.c ****            * мҳӨнҢҗн•ҳлҠ” кІғ л°©м§Җ. лІ„мҠӨ wedgeлҠ” bno_rd лӮҙл¶Җ ліөкө¬(10нҡҢ мӢӨнҢЁвҶ’9нҒҙлҹӯ)м
 383:Core/Src/freertos.c ****           t_imu_retry = now;
 384:Core/Src/freertos.c ****           if (BNO055_ReadEuler(&imu))
 385:Core/Src/freertos.c ****           {
 386:Core/Src/freertos.c ****               imu_live = 1;
 387:Core/Src/freertos.c ****               imu_fail = 0;
 388:Core/Src/freertos.c ****               imu_ctrl_live = 1U;
 389:Core/Src/freertos.c ****               dbg.heading = imu.heading;
 390:Core/Src/freertos.c ****               dbg.roll    = imu.roll;
 391:Core/Src/freertos.c ****               dbg.pitch   = imu.pitch;
 392:Core/Src/freertos.c ****           }
 393:Core/Src/freertos.c ****       }
 394:Core/Src/freertos.c ****       dbg.imu_live = imu_ctrl_live;
 395:Core/Src/freertos.c **** 
 396:Core/Src/freertos.c ****       /* 4) м ңм–ҙ мһ…л Ҙ мҠӨлғ…мғ· вҶ’ нҒҗ (к°’ ліөмӮ¬ вҖ” MotorTaskк°Җ IWDG refresh + Drive_Updat
 397:Core/Src/freertos.c ****       DriveInputs din;
 398:Core/Src/freertos.c ****       din.f          = f;
 399:Core/Src/freertos.c ****       din.l          = l;
 400:Core/Src/freertos.c ****       din.r          = r;
 401:Core/Src/freertos.c ****       din.f_valid    = v_snap[0];
 402:Core/Src/freertos.c ****       din.side_valid = 1U;
 403:Core/Src/freertos.c ****       din.front_miss = front_miss;
 404:Core/Src/freertos.c ****       din.heading    = imu.heading;   /* imu_ctrl_live=0мқҙл©ҙ drive.cк°Җ л¬ҙмӢң(кұ°лҰ¬-only к°•л“ұ
 405:Core/Src/freertos.c ****       din.imu_live   = imu_ctrl_live;
 406:Core/Src/freertos.c ****       din.now        = HAL_GetTick();
 407:Core/Src/freertos.c ****       if (osMessageQueuePut(driveQ, &din, 0U, 0U) != osOK) { dbg.q_drop++; }
 408:Core/Src/freertos.c **** 
 409:Core/Src/freertos.c ****       dbg.hw_sensor = (uint32_t)uxTaskGetStackHighWaterMark(NULL);
 410:Core/Src/freertos.c ****   }
 411:Core/Src/freertos.c **** #endif
 412:Core/Src/freertos.c ****   /* USER CODE END StartTask02 */
 413:Core/Src/freertos.c **** }
 414:Core/Src/freertos.c **** 
 415:Core/Src/freertos.c **** /* USER CODE BEGIN Header_StartTask03 */
 416:Core/Src/freertos.c **** /**
 417:Core/Src/freertos.c **** * @brief Function implementing the BluetoothTask thread.
 418:Core/Src/freertos.c **** * @param argument: Not used
 419:Core/Src/freertos.c **** * @retval None
 420:Core/Src/freertos.c **** */
 421:Core/Src/freertos.c **** /* USER CODE END Header_StartTask03 */
 422:Core/Src/freertos.c **** void StartTask03(void *argument)
 423:Core/Src/freertos.c **** {
  29              		.loc 1 423 1 view -0
  30              		.cfi_startproc
  31              		@ Volatile: function does not return.
  32              		@ args = 0, pretend = 0, frame = 8
  33              		@ frame_needed = 0, uses_anonymous_args = 0
  34              	.LVL0:
ARM GAS  C:\Users\user\AppData\Local\Temp\ccCOI405.s 			page 9


  35              		.loc 1 423 1 is_stmt 0 view .LVU1
  36 0000 00B5     		push	{lr}
  37              	.LCFI0:
  38              		.cfi_def_cfa_offset 4
  39              		.cfi_offset 14, -4
  40 0002 83B0     		sub	sp, sp, #12
  41              	.LCFI1:
  42              		.cfi_def_cfa_offset 16
  43 0004 02E0     		b	.L2
  44              	.LVL1:
  45              	.L12:
 424:Core/Src/freertos.c ****   /* USER CODE BEGIN StartTask03 */
 425:Core/Src/freertos.c ****   (void)argument;
 426:Core/Src/freertos.c ****   uint8_t cmd;
 427:Core/Src/freertos.c **** 
 428:Core/Src/freertos.c ****   for(;;)
 429:Core/Src/freertos.c ****   {
 430:Core/Src/freertos.c ****     /* uartQм—җм„ң 1л°”мқҙнҠё лё”лЎңнӮ№ мҲҳмӢ  вҖ” лӘ…л № мҳ¬ л•Ңк№Ңм§Җ CPU м–‘ліҙ(busy-wait м—ҶмқҢ
 431:Core/Src/freertos.c ****     if (osMessageQueueGet(uartQHandle, &cmd, NULL, osWaitForever) != osOK)
 432:Core/Src/freertos.c ****         continue;
 433:Core/Src/freertos.c **** 
 434:Core/Src/freertos.c ****     switch (cmd)
 435:Core/Src/freertos.c ****     {
 436:Core/Src/freertos.c ****       /* ---- мӢңмҠӨн…ң м „мӣҗ ---- */
 437:Core/Src/freertos.c ****       case '1':                                  /* ON */
 438:Core/Src/freertos.c ****         sys_power = 1;
  46              		.loc 1 438 9 is_stmt 1 view .LVU2
  47              		.loc 1 438 19 is_stmt 0 view .LVU3
  48 0006 5A4B     		ldr	r3, .L16
  49 0008 0122     		movs	r2, #1
  50 000a 1A70     		strb	r2, [r3]
 439:Core/Src/freertos.c ****         break;
  51              		.loc 1 439 9 is_stmt 1 view .LVU4
  52              	.L2:
 425:Core/Src/freertos.c ****   uint8_t cmd;
  53              		.loc 1 425 3 view .LVU5
 426:Core/Src/freertos.c **** 
  54              		.loc 1 426 3 view .LVU6
 428:Core/Src/freertos.c ****   {
  55              		.loc 1 428 3 view .LVU7
 431:Core/Src/freertos.c ****         continue;
  56              		.loc 1 431 5 view .LVU8
 431:Core/Src/freertos.c ****         continue;
  57              		.loc 1 431 9 is_stmt 0 view .LVU9
  58 000c 4FF0FF33 		mov	r3, #-1
  59 0010 0022     		movs	r2, #0
  60 0012 0DF10701 		add	r1, sp, #7
  61 0016 5748     		ldr	r0, .L16+4
  62 0018 0068     		ldr	r0, [r0]
  63 001a FFF7FEFF 		bl	osMessageQueueGet
  64              	.LVL2:
 431:Core/Src/freertos.c ****         continue;
  65              		.loc 1 431 8 discriminator 1 view .LVU10
  66 001e 0028     		cmp	r0, #0
  67 0020 F4D1     		bne	.L2
 434:Core/Src/freertos.c ****     {
  68              		.loc 1 434 5 is_stmt 1 view .LVU11
ARM GAS  C:\Users\user\AppData\Local\Temp\ccCOI405.s 			page 10


  69 0022 9DF80730 		ldrb	r3, [sp, #7]	@ zero_extendqisi2
  70 0026 303B     		subs	r3, r3, #48
  71 0028 252B     		cmp	r3, #37
  72 002a EFD8     		bhi	.L2
  73 002c 01A2     		adr	r2, .L5
  74 002e 52F823F0 		ldr	pc, [r2, r3, lsl #2]
  75 0032 00BF     		.p2align 2
  76              	.L5:
  77 0034 CD000000 		.word	.L13+1
  78 0038 07000000 		.word	.L12+1
  79 003c 0D000000 		.word	.L2+1
  80 0040 0D000000 		.word	.L2+1
  81 0044 0D000000 		.word	.L2+1
  82 0048 0D000000 		.word	.L2+1
  83 004c 0D000000 		.word	.L2+1
  84 0050 0D000000 		.word	.L2+1
  85 0054 0D000000 		.word	.L2+1
  86 0058 0D000000 		.word	.L2+1
  87 005c 0D000000 		.word	.L2+1
  88 0060 0D000000 		.word	.L2+1
  89 0064 0D000000 		.word	.L2+1
  90 0068 0D000000 		.word	.L2+1
  91 006c 0D000000 		.word	.L2+1
  92 0070 0D000000 		.word	.L2+1
  93 0074 0D000000 		.word	.L2+1
  94 0078 DD000000 		.word	.L11+1
  95 007c 0D000000 		.word	.L2+1
  96 0080 0D000000 		.word	.L2+1
  97 0084 15010000 		.word	.L10+1
  98 0088 0D000000 		.word	.L2+1
  99 008c 0D000000 		.word	.L2+1
 100 0090 0D000000 		.word	.L2+1
 101 0094 0D000000 		.word	.L2+1
 102 0098 0D000000 		.word	.L2+1
 103 009c 0D000000 		.word	.L2+1
 104 00a0 0D000000 		.word	.L2+1
 105 00a4 2B010000 		.word	.L9+1
 106 00a8 EB000000 		.word	.L8+1
 107 00ac 0D000000 		.word	.L2+1
 108 00b0 0D000000 		.word	.L2+1
 109 00b4 0D000000 		.word	.L2+1
 110 00b8 0D000000 		.word	.L2+1
 111 00bc 43010000 		.word	.L7+1
 112 00c0 5B010000 		.word	.L6+1
 113 00c4 0D000000 		.word	.L2+1
 114 00c8 01010000 		.word	.L4+1
 115              		.p2align 1
 116              	.L13:
 440:Core/Src/freertos.c ****       case '0':                                  /* OFF: мҲҳлҸҷк°’ лҰ¬м…Ӣ + м •м§Җ(м–ҙлҠҗ лӘЁл“ңл“ 
 441:Core/Src/freertos.c ****         sys_power = 0;
 117              		.loc 1 441 9 view .LVU12
 118              		.loc 1 441 19 is_stmt 0 view .LVU13
 119 00cc 0023     		movs	r3, #0
 120 00ce 284A     		ldr	r2, .L16
 121 00d0 1370     		strb	r3, [r2]
 442:Core/Src/freertos.c ****         manual_left = 0;
 122              		.loc 1 442 9 is_stmt 1 view .LVU14
ARM GAS  C:\Users\user\AppData\Local\Temp\ccCOI405.s 			page 11


 123              		.loc 1 442 21 is_stmt 0 view .LVU15
 124 00d2 294A     		ldr	r2, .L16+8
 125 00d4 1370     		strb	r3, [r2]
 443:Core/Src/freertos.c ****         manual_right = 0;
 126              		.loc 1 443 9 is_stmt 1 view .LVU16
 127              		.loc 1 443 22 is_stmt 0 view .LVU17
 128 00d6 294A     		ldr	r2, .L16+12
 129 00d8 1370     		strb	r3, [r2]
 444:Core/Src/freertos.c ****         break;
 130              		.loc 1 444 9 is_stmt 1 view .LVU18
 131 00da 97E7     		b	.L2
 132              	.L11:
 445:Core/Src/freertos.c **** 
 446:Core/Src/freertos.c ****       /* ---- лӘЁн„° лӘЁл“ң (лӘЁл“ң м„ нғқ = м „мӣҗ ON м»Өн”Ңл§Ғ) ----
 447:Core/Src/freertos.c ****        * м•ұм—җ '1'(м „мӣҗ ON) лІ„нҠјмқҙ м—Ҷм–ҙ sys_powerк°Җ 0м—җ л¬¶м—¬ лӘЁн„°к°Җ к°•м ңм •м§Җн•ҳл
 448:Core/Src/freertos.c ****        * лӘЁл“ңлҘј кі лҘҙлҠ” кІғ = мЈјн–ү мқҳмӮ¬ вҶ’ sys_power=1. л¶ҖнҢ…мқҖ м—¬м „нһҲ OFF(м•Ҳм „). 
 449:Core/Src/freertos.c ****       case 'A':                                  /* мһҗмңЁмЈјн–ү */
 450:Core/Src/freertos.c ****         sys_mode = 0;
 133              		.loc 1 450 9 view .LVU19
 134              		.loc 1 450 18 is_stmt 0 view .LVU20
 135 00dc 284B     		ldr	r3, .L16+16
 136 00de 0022     		movs	r2, #0
 137 00e0 1A70     		strb	r2, [r3]
 451:Core/Src/freertos.c ****         sys_power = 1;
 138              		.loc 1 451 9 is_stmt 1 view .LVU21
 139              		.loc 1 451 19 is_stmt 0 view .LVU22
 140 00e2 234B     		ldr	r3, .L16
 141 00e4 0122     		movs	r2, #1
 142 00e6 1A70     		strb	r2, [r3]
 452:Core/Src/freertos.c ****         break;
 143              		.loc 1 452 9 is_stmt 1 view .LVU23
 144 00e8 90E7     		b	.L2
 145              	.L8:
 453:Core/Src/freertos.c ****       case 'M':                                  /* мҲҳлҸҷ: м§„мһ… мӢң м •м§Җк°’мңјлЎң мӢңмһ‘(лҸҢл°
 454:Core/Src/freertos.c ****         sys_mode = 1;
 146              		.loc 1 454 9 view .LVU24
 147              		.loc 1 454 18 is_stmt 0 view .LVU25
 148 00ea 0123     		movs	r3, #1
 149 00ec 244A     		ldr	r2, .L16+16
 150 00ee 1370     		strb	r3, [r2]
 455:Core/Src/freertos.c ****         sys_power = 1;
 151              		.loc 1 455 9 is_stmt 1 view .LVU26
 152              		.loc 1 455 19 is_stmt 0 view .LVU27
 153 00f0 1F4A     		ldr	r2, .L16
 154 00f2 1370     		strb	r3, [r2]
 456:Core/Src/freertos.c ****         manual_left = 0;
 155              		.loc 1 456 9 is_stmt 1 view .LVU28
 156              		.loc 1 456 21 is_stmt 0 view .LVU29
 157 00f4 0023     		movs	r3, #0
 158 00f6 204A     		ldr	r2, .L16+8
 159 00f8 1370     		strb	r3, [r2]
 457:Core/Src/freertos.c ****         manual_right = 0;
 160              		.loc 1 457 9 is_stmt 1 view .LVU30
 161              		.loc 1 457 22 is_stmt 0 view .LVU31
 162 00fa 204A     		ldr	r2, .L16+12
 163 00fc 1370     		strb	r3, [r2]
 458:Core/Src/freertos.c ****         break;
ARM GAS  C:\Users\user\AppData\Local\Temp\ccCOI405.s 			page 12


 164              		.loc 1 458 9 is_stmt 1 view .LVU32
 165 00fe 85E7     		b	.L2
 166              	.L4:
 459:Core/Src/freertos.c **** 
 460:Core/Src/freertos.c ****       /* ---- мҲҳлҸҷ мЎ°мһ‘ (Manual лӘЁл“ң м „мҡ©) ---- */
 461:Core/Src/freertos.c ****       case 'U': if (sys_mode) { manual_left =  80; manual_right =  80; } break;  /* м „м§„ */
 167              		.loc 1 461 17 view .LVU33
 168              		.loc 1 461 21 is_stmt 0 view .LVU34
 169 0100 1F4B     		ldr	r3, .L16+16
 170 0102 1B78     		ldrb	r3, [r3]	@ zero_extendqisi2
 171              		.loc 1 461 20 view .LVU35
 172 0104 002B     		cmp	r3, #0
 173 0106 81D0     		beq	.L2
 174              		.loc 1 461 33 is_stmt 1 discriminator 1 view .LVU36
 175              		.loc 1 461 45 is_stmt 0 discriminator 1 view .LVU37
 176 0108 5023     		movs	r3, #80
 177 010a 1B4A     		ldr	r2, .L16+8
 178 010c 1370     		strb	r3, [r2]
 179              		.loc 1 461 52 is_stmt 1 view .LVU38
 180              		.loc 1 461 65 is_stmt 0 discriminator 1 view .LVU39
 181 010e 1B4A     		ldr	r2, .L16+12
 182 0110 1370     		strb	r3, [r2]
 183 0112 7BE7     		b	.L2
 184              	.L10:
 462:Core/Src/freertos.c ****       case 'D': if (sys_mode) { manual_left = -80; manual_right = -80; } break;  /* нӣ„м§„ */
 185              		.loc 1 462 17 is_stmt 1 view .LVU40
 186              		.loc 1 462 21 is_stmt 0 view .LVU41
 187 0114 1A4B     		ldr	r3, .L16+16
 188 0116 1B78     		ldrb	r3, [r3]	@ zero_extendqisi2
 189              		.loc 1 462 20 view .LVU42
 190 0118 002B     		cmp	r3, #0
 191 011a 3FF477AF 		beq	.L2
 192              		.loc 1 462 33 is_stmt 1 discriminator 1 view .LVU43
 193              		.loc 1 462 45 is_stmt 0 discriminator 1 view .LVU44
 194 011e B023     		movs	r3, #176
 195 0120 154A     		ldr	r2, .L16+8
 196 0122 1370     		strb	r3, [r2]
 197              		.loc 1 462 52 is_stmt 1 view .LVU45
 198              		.loc 1 462 65 is_stmt 0 discriminator 1 view .LVU46
 199 0124 154A     		ldr	r2, .L16+12
 200 0126 1370     		strb	r3, [r2]
 201 0128 70E7     		b	.L2
 202              	.L9:
 463:Core/Src/freertos.c ****       case 'L': if (sys_mode) { manual_left = -60; manual_right =  60; } break;  /* мўҢнҡҢм „ */
 203              		.loc 1 463 17 is_stmt 1 view .LVU47
 204              		.loc 1 463 21 is_stmt 0 view .LVU48
 205 012a 154B     		ldr	r3, .L16+16
 206 012c 1B78     		ldrb	r3, [r3]	@ zero_extendqisi2
 207              		.loc 1 463 20 view .LVU49
 208 012e 002B     		cmp	r3, #0
 209 0130 3FF46CAF 		beq	.L2
 210              		.loc 1 463 33 is_stmt 1 discriminator 1 view .LVU50
 211              		.loc 1 463 45 is_stmt 0 discriminator 1 view .LVU51
 212 0134 104B     		ldr	r3, .L16+8
 213 0136 C422     		movs	r2, #196
 214 0138 1A70     		strb	r2, [r3]
 215              		.loc 1 463 52 is_stmt 1 view .LVU52
ARM GAS  C:\Users\user\AppData\Local\Temp\ccCOI405.s 			page 13


 216              		.loc 1 463 65 is_stmt 0 discriminator 1 view .LVU53
 217 013a 104B     		ldr	r3, .L16+12
 218 013c 3C22     		movs	r2, #60
 219 013e 1A70     		strb	r2, [r3]
 220 0140 64E7     		b	.L2
 221              	.L7:
 464:Core/Src/freertos.c ****       case 'R': if (sys_mode) { manual_left =  60; manual_right = -60; } break;  /* мҡ°нҡҢм „ */
 222              		.loc 1 464 17 is_stmt 1 view .LVU54
 223              		.loc 1 464 21 is_stmt 0 view .LVU55
 224 0142 0F4B     		ldr	r3, .L16+16
 225 0144 1B78     		ldrb	r3, [r3]	@ zero_extendqisi2
 226              		.loc 1 464 20 view .LVU56
 227 0146 002B     		cmp	r3, #0
 228 0148 3FF460AF 		beq	.L2
 229              		.loc 1 464 33 is_stmt 1 discriminator 1 view .LVU57
 230              		.loc 1 464 45 is_stmt 0 discriminator 1 view .LVU58
 231 014c 0A4B     		ldr	r3, .L16+8
 232 014e 3C22     		movs	r2, #60
 233 0150 1A70     		strb	r2, [r3]
 234              		.loc 1 464 52 is_stmt 1 view .LVU59
 235              		.loc 1 464 65 is_stmt 0 discriminator 1 view .LVU60
 236 0152 0A4B     		ldr	r3, .L16+12
 237 0154 C422     		movs	r2, #196
 238 0156 1A70     		strb	r2, [r3]
 239 0158 58E7     		b	.L2
 240              	.L6:
 465:Core/Src/freertos.c ****       case 'S': if (sys_mode) { manual_left =   0; manual_right =   0; } break;  /* м •м§Җ */
 241              		.loc 1 465 17 is_stmt 1 view .LVU61
 242              		.loc 1 465 21 is_stmt 0 view .LVU62
 243 015a 094B     		ldr	r3, .L16+16
 244 015c 1B78     		ldrb	r3, [r3]	@ zero_extendqisi2
 245              		.loc 1 465 20 view .LVU63
 246 015e 002B     		cmp	r3, #0
 247 0160 3FF454AF 		beq	.L2
 248              		.loc 1 465 33 is_stmt 1 discriminator 1 view .LVU64
 249              		.loc 1 465 45 is_stmt 0 discriminator 1 view .LVU65
 250 0164 0023     		movs	r3, #0
 251 0166 044A     		ldr	r2, .L16+8
 252 0168 1370     		strb	r3, [r2]
 253              		.loc 1 465 52 is_stmt 1 view .LVU66
 254              		.loc 1 465 65 is_stmt 0 discriminator 1 view .LVU67
 255 016a 044A     		ldr	r2, .L16+12
 256 016c 1370     		strb	r3, [r2]
 257 016e 4DE7     		b	.L2
 258              	.L17:
 259              		.align	2
 260              	.L16:
 261 0170 00000000 		.word	sys_power
 262 0174 00000000 		.word	uartQHandle
 263 0178 00000000 		.word	manual_left
 264 017c 00000000 		.word	manual_right
 265 0180 00000000 		.word	sys_mode
 266              		.cfi_endproc
 267              	.LFE141:
 269              		.section	.text.StartDefaultTask,"ax",%progbits
 270              		.align	1
 271              		.global	StartDefaultTask
ARM GAS  C:\Users\user\AppData\Local\Temp\ccCOI405.s 			page 14


 272              		.syntax unified
 273              		.thumb
 274              		.thumb_func
 276              	StartDefaultTask:
 277              	.LVL3:
 278              	.LFB139:
 191:Core/Src/freertos.c ****   /* USER CODE BEGIN StartDefaultTask */
 279              		.loc 1 191 1 is_stmt 1 view -0
 280              		.cfi_startproc
 281              		@ args = 0, pretend = 0, frame = 24
 282              		@ frame_needed = 0, uses_anonymous_args = 0
 191:Core/Src/freertos.c ****   /* USER CODE BEGIN StartDefaultTask */
 283              		.loc 1 191 1 is_stmt 0 view .LVU69
 284 0000 30B5     		push	{r4, r5, lr}
 285              	.LCFI2:
 286              		.cfi_def_cfa_offset 12
 287              		.cfi_offset 4, -12
 288              		.cfi_offset 5, -8
 289              		.cfi_offset 14, -4
 290 0002 87B0     		sub	sp, sp, #28
 291              	.LCFI3:
 292              		.cfi_def_cfa_offset 40
 193:Core/Src/freertos.c **** 
 293              		.loc 1 193 3 is_stmt 1 view .LVU70
 214:Core/Src/freertos.c ****   uint8_t prev_auto = 0;   /* м§Ғм „ лЈЁн”„к°Җ мһҗмңЁ кө¬лҸҷ? MвҶ’A / OFFвҶ’A мһ¬м§„мһ… edge кІҖм¶ң
 294              		.loc 1 214 3 view .LVU71
 215:Core/Src/freertos.c ****   for(;;)
 295              		.loc 1 215 3 view .LVU72
 296              	.LVL4:
 215:Core/Src/freertos.c ****   for(;;)
 297              		.loc 1 215 11 is_stmt 0 view .LVU73
 298 0004 0024     		movs	r4, #0
 299 0006 23E0     		b	.L24
 300              	.LVL5:
 301              	.L20:
 228:Core/Src/freertos.c ****       {
 302              		.loc 1 228 12 is_stmt 1 view .LVU74
 228:Core/Src/freertos.c ****       {
 303              		.loc 1 228 25 is_stmt 0 view .LVU75
 304 0008 1C4B     		ldr	r3, .L28
 305 000a 1B78     		ldrb	r3, [r3]	@ zero_extendqisi2
 228:Core/Src/freertos.c ****       {
 306              		.loc 1 228 15 view .LVU76
 307 000c 012B     		cmp	r3, #1
 308 000e 04D0     		beq	.L26
 236:Core/Src/freertos.c ****         {
 309              		.loc 1 236 9 is_stmt 1 view .LVU77
 236:Core/Src/freertos.c ****         {
 310              		.loc 1 236 12 is_stmt 0 view .LVU78
 311 0010 7CB1     		cbz	r4, .L27
 312              	.LVL6:
 313              	.L23:
 241:Core/Src/freertos.c ****       }
 314              		.loc 1 241 9 is_stmt 1 view .LVU79
 315 0012 6846     		mov	r0, sp
 316 0014 FFF7FEFF 		bl	Drive_Update
 317              	.LVL7:
ARM GAS  C:\Users\user\AppData\Local\Temp\ccCOI405.s 			page 15


 318 0018 15E0     		b	.L21
 319              	.L26:
 230:Core/Src/freertos.c ****         Motor_Right(manual_right);
 320              		.loc 1 230 9 view .LVU80
 321 001a 194B     		ldr	r3, .L28+4
 322 001c 1878     		ldrb	r0, [r3]	@ zero_extendqisi2
 323 001e 40B2     		sxtb	r0, r0
 324 0020 FFF7FEFF 		bl	Motor_Left
 325              	.LVL8:
 231:Core/Src/freertos.c ****         prev_auto = 0;
 326              		.loc 1 231 9 view .LVU81
 327 0024 174B     		ldr	r3, .L28+8
 328 0026 1878     		ldrb	r0, [r3]	@ zero_extendqisi2
 329 0028 40B2     		sxtb	r0, r0
 330 002a FFF7FEFF 		bl	Motor_Right
 331              	.LVL9:
 232:Core/Src/freertos.c ****       }
 332              		.loc 1 232 9 view .LVU82
 232:Core/Src/freertos.c ****       }
 333              		.loc 1 232 19 is_stmt 0 view .LVU83
 334 002e 0024     		movs	r4, #0
 335 0030 09E0     		b	.L21
 336              	.LVL10:
 337              	.L27:
 238:Core/Src/freertos.c ****           prev_auto = 1;
 338              		.loc 1 238 11 is_stmt 1 view .LVU84
 339 0032 FFF7FEFF 		bl	Drive_Init
 340              	.LVL11:
 239:Core/Src/freertos.c ****         }
 341              		.loc 1 239 11 view .LVU85
 239:Core/Src/freertos.c ****         }
 342              		.loc 1 239 21 is_stmt 0 view .LVU86
 343 0036 0124     		movs	r4, #1
 344 0038 EBE7     		b	.L23
 345              	.LVL12:
 346              	.L19:
 246:Core/Src/freertos.c ****       Car_Stop();           /* м„јм„ң м№Ёл¬ө лҸҷм•Ҳ м•Ҳм „ м •м§Җ. refresh мғқлһө вҶ’ м§ҖмҶҚ мӢң IW
 347              		.loc 1 246 7 is_stmt 1 view .LVU87
 246:Core/Src/freertos.c ****       Car_Stop();           /* м„јм„ң м№Ёл¬ө лҸҷм•Ҳ м•Ҳм „ м •м§Җ. refresh мғқлһө вҶ’ м§ҖмҶҚ мӢң IW
 348              		.loc 1 246 10 is_stmt 0 view .LVU88
 349 003a 134A     		ldr	r2, .L28+12
 350 003c 936C     		ldr	r3, [r2, #72]
 246:Core/Src/freertos.c ****       Car_Stop();           /* м„јм„ң м№Ёл¬ө лҸҷм•Ҳ м•Ҳм „ м •м§Җ. refresh мғқлһө вҶ’ м§ҖмҶҚ мӢң IW
 351              		.loc 1 246 20 view .LVU89
 352 003e 0133     		adds	r3, r3, #1
 353 0040 9364     		str	r3, [r2, #72]
 247:Core/Src/freertos.c ****     }
 354              		.loc 1 247 7 is_stmt 1 view .LVU90
 355 0042 FFF7FEFF 		bl	Car_Stop
 356              	.LVL13:
 357              	.L21:
 249:Core/Src/freertos.c ****   }
 358              		.loc 1 249 5 view .LVU91
 249:Core/Src/freertos.c ****   }
 359              		.loc 1 249 30 is_stmt 0 view .LVU92
 360 0046 0020     		movs	r0, #0
 361 0048 FFF7FEFF 		bl	uxTaskGetStackHighWaterMark
ARM GAS  C:\Users\user\AppData\Local\Temp\ccCOI405.s 			page 16


 362              	.LVL14:
 249:Core/Src/freertos.c ****   }
 363              		.loc 1 249 18 discriminator 1 view .LVU93
 364 004c 0E4B     		ldr	r3, .L28+12
 365 004e 1865     		str	r0, [r3, #80]
 216:Core/Src/freertos.c ****   {
 366              		.loc 1 216 3 is_stmt 1 view .LVU94
 367              	.LVL15:
 368              	.L24:
 216:Core/Src/freertos.c ****   {
 369              		.loc 1 216 3 view .LVU95
 218:Core/Src/freertos.c ****     {
 370              		.loc 1 218 5 view .LVU96
 218:Core/Src/freertos.c ****     {
 371              		.loc 1 218 9 is_stmt 0 view .LVU97
 372 0050 9623     		movs	r3, #150
 373 0052 0022     		movs	r2, #0
 374 0054 6946     		mov	r1, sp
 375 0056 0D48     		ldr	r0, .L28+16
 376 0058 0068     		ldr	r0, [r0]
 377 005a FFF7FEFF 		bl	osMessageQueueGet
 378              	.LVL16:
 218:Core/Src/freertos.c ****     {
 379              		.loc 1 218 8 discriminator 1 view .LVU98
 380 005e 0028     		cmp	r0, #0
 381 0060 EBD1     		bne	.L19
 220:Core/Src/freertos.c **** 
 382              		.loc 1 220 7 is_stmt 1 view .LVU99
 383 0062 0B48     		ldr	r0, .L28+20
 384 0064 FFF7FEFF 		bl	HAL_IWDG_Refresh
 385              	.LVL17:
 223:Core/Src/freertos.c ****       {
 386              		.loc 1 223 7 view .LVU100
 223:Core/Src/freertos.c ****       {
 387              		.loc 1 223 21 is_stmt 0 view .LVU101
 388 0068 0A4B     		ldr	r3, .L28+24
 389 006a 1B78     		ldrb	r3, [r3]	@ zero_extendqisi2
 223:Core/Src/freertos.c ****       {
 390              		.loc 1 223 10 view .LVU102
 391 006c 03F0FF05 		and	r5, r3, #255
 392 0070 002B     		cmp	r3, #0
 393 0072 C9D1     		bne	.L20
 225:Core/Src/freertos.c ****         prev_auto = 0;
 394              		.loc 1 225 9 is_stmt 1 view .LVU103
 395 0074 FFF7FEFF 		bl	Car_Stop
 396              	.LVL18:
 226:Core/Src/freertos.c ****       }
 397              		.loc 1 226 9 view .LVU104
 226:Core/Src/freertos.c ****       }
 398              		.loc 1 226 19 is_stmt 0 view .LVU105
 399 0078 2C46     		mov	r4, r5
 400 007a E4E7     		b	.L21
 401              	.L29:
 402              		.align	2
 403              	.L28:
 404 007c 00000000 		.word	sys_mode
 405 0080 00000000 		.word	manual_left
ARM GAS  C:\Users\user\AppData\Local\Temp\ccCOI405.s 			page 17


 406 0084 00000000 		.word	manual_right
 407 0088 00000000 		.word	dbg
 408 008c 00000000 		.word	driveQ
 409 0090 00000000 		.word	hiwdg
 410 0094 00000000 		.word	sys_power
 411              		.cfi_endproc
 412              	.LFE139:
 414              		.section	.text.StartTask02,"ax",%progbits
 415              		.align	1
 416              		.global	StartTask02
 417              		.syntax unified
 418              		.thumb
 419              		.thumb_func
 421              	StartTask02:
 422              	.LVL19:
 423              	.LFB140:
 263:Core/Src/freertos.c ****   /* USER CODE BEGIN StartTask02 */
 424              		.loc 1 263 1 is_stmt 1 view -0
 425              		.cfi_startproc
 426              		@ args = 0, pretend = 0, frame = 40
 427              		@ frame_needed = 0, uses_anonymous_args = 0
 263:Core/Src/freertos.c ****   /* USER CODE BEGIN StartTask02 */
 428              		.loc 1 263 1 is_stmt 0 view .LVU107
 429 0000 2DE9F047 		push	{r4, r5, r6, r7, r8, r9, r10, lr}
 430              	.LCFI4:
 431              		.cfi_def_cfa_offset 32
 432              		.cfi_offset 4, -32
 433              		.cfi_offset 5, -28
 434              		.cfi_offset 6, -24
 435              		.cfi_offset 7, -20
 436              		.cfi_offset 8, -16
 437              		.cfi_offset 9, -12
 438              		.cfi_offset 10, -8
 439              		.cfi_offset 14, -4
 440 0004 8AB0     		sub	sp, sp, #40
 441              	.LCFI5:
 442              		.cfi_def_cfa_offset 72
 265:Core/Src/freertos.c **** 
 443              		.loc 1 265 3 is_stmt 1 view .LVU108
 273:Core/Src/freertos.c ****   for (int ch = 0; ch < 3; ch++)
 444              		.loc 1 273 3 view .LVU109
 274:Core/Src/freertos.c ****       for (int i = 0; i < SIDE_MED_WIN; i++) hist[ch][i] = ULTRA_MAX_CM;
 445              		.loc 1 274 3 view .LVU110
 446              	.LBB2:
 274:Core/Src/freertos.c ****       for (int i = 0; i < SIDE_MED_WIN; i++) hist[ch][i] = ULTRA_MAX_CM;
 447              		.loc 1 274 8 view .LVU111
 448              	.LVL20:
 274:Core/Src/freertos.c ****       for (int i = 0; i < SIDE_MED_WIN; i++) hist[ch][i] = ULTRA_MAX_CM;
 449              		.loc 1 274 12 is_stmt 0 view .LVU112
 450 0006 0021     		movs	r1, #0
 274:Core/Src/freertos.c ****       for (int i = 0; i < SIDE_MED_WIN; i++) hist[ch][i] = ULTRA_MAX_CM;
 451              		.loc 1 274 3 view .LVU113
 452 0008 0AE0     		b	.L31
 453              	.LVL21:
 454              	.L32:
 455              	.LBB3:
 275:Core/Src/freertos.c ****   static uint8_t  front_miss = 0;   /* м •л©ҙ м—җмҪ” м—°мҶҚ лҜёнҡҢмӢ  (drive.c HOLD нҢҗм • мһ…л Ҙ) 
ARM GAS  C:\Users\user\AppData\Local\Temp\ccCOI405.s 			page 18


 456              		.loc 1 275 46 is_stmt 1 discriminator 3 view .LVU114
 275:Core/Src/freertos.c ****   static uint8_t  front_miss = 0;   /* м •л©ҙ м—җмҪ” м—°мҶҚ лҜёнҡҢмӢ  (drive.c HOLD нҢҗм • мһ…л Ҙ) 
 457              		.loc 1 275 58 is_stmt 0 discriminator 3 view .LVU115
 458 000a 01EB4102 		add	r2, r1, r1, lsl #1
 459 000e 1A44     		add	r2, r2, r3
 460 0010 A648     		ldr	r0, .L69
 461 0012 C824     		movs	r4, #200
 462 0014 20F81240 		strh	r4, [r0, r2, lsl #1]	@ movhi
 275:Core/Src/freertos.c ****   static uint8_t  front_miss = 0;   /* м •л©ҙ м—җмҪ” м—°мҶҚ лҜёнҡҢмӢ  (drive.c HOLD нҢҗм • мһ…л Ҙ) 
 463              		.loc 1 275 42 is_stmt 1 discriminator 3 view .LVU116
 464 0018 0133     		adds	r3, r3, #1
 465              	.LVL22:
 466              	.L33:
 275:Core/Src/freertos.c ****   static uint8_t  front_miss = 0;   /* м •л©ҙ м—җмҪ” м—°мҶҚ лҜёнҡҢмӢ  (drive.c HOLD нҢҗм • мһ…л Ҙ) 
 467              		.loc 1 275 25 discriminator 1 view .LVU117
 468 001a 022B     		cmp	r3, #2
 469 001c F5DD     		ble	.L32
 470              	.LBE3:
 274:Core/Src/freertos.c ****       for (int i = 0; i < SIDE_MED_WIN; i++) hist[ch][i] = ULTRA_MAX_CM;
 471              		.loc 1 274 30 discriminator 2 view .LVU118
 472 001e 0131     		adds	r1, r1, #1
 473              	.LVL23:
 474              	.L31:
 274:Core/Src/freertos.c ****       for (int i = 0; i < SIDE_MED_WIN; i++) hist[ch][i] = ULTRA_MAX_CM;
 475              		.loc 1 274 23 discriminator 1 view .LVU119
 476 0020 0229     		cmp	r1, #2
 477 0022 01DC     		bgt	.L62
 478              	.LBB4:
 275:Core/Src/freertos.c ****   static uint8_t  front_miss = 0;   /* м •л©ҙ м—җмҪ” м—°мҶҚ лҜёнҡҢмӢ  (drive.c HOLD нҢҗм • мһ…л Ҙ) 
 479              		.loc 1 275 16 is_stmt 0 view .LVU120
 480 0024 0023     		movs	r3, #0
 481 0026 F8E7     		b	.L33
 482              	.L62:
 483              	.LBE4:
 484              	.LBE2:
 276:Core/Src/freertos.c ****   static uint8_t  side_miss[3] = {0,0,0};  /* мёЎл©ҙ ch1(L)/ch2(R) м—°мҶҚ л¬ҙм—җмҪ” вҖ” н•ңкі„ мҙҲк
 485              		.loc 1 276 3 is_stmt 1 view .LVU121
 277:Core/Src/freertos.c ****   static uint8_t  imu_live = 0;     /* IMU мғқмЎҙ кІҢмқҙнҠё */
 486              		.loc 1 277 3 view .LVU122
 278:Core/Src/freertos.c ****   static uint8_t  imu_fail = 0;     /* мқҪкё° м—°мҶҚ мӢӨнҢЁ м№ҙмҡҙнҠё */
 487              		.loc 1 278 3 view .LVU123
 279:Core/Src/freertos.c ****   static uint32_t t_imu_retry = 0;  /* мӮ¬л§қ нӣ„ мһ¬мӢңлҸ„ нғҖмқҙлЁё */
 488              		.loc 1 279 3 view .LVU124
 280:Core/Src/freertos.c ****   static uint32_t t_calib = 0;      /* CALIB_STAT л””лІ„к·ё мқҪкё° мҠӨлЎңнӢҖ */
 489              		.loc 1 280 3 view .LVU125
 281:Core/Src/freertos.c ****   static uint32_t t_loop = 0;       /* мӮ¬мқҙнҒҙ мЈјкё° мёЎм • */
 490              		.loc 1 281 3 view .LVU126
 282:Core/Src/freertos.c ****   static BNO055_Euler imu;          /* мөңк·ј мңөн•©к°’ (read мӢӨнҢЁ мӢң м§Ғм „к°’ мң м§Җ) */
 491              		.loc 1 282 3 view .LVU127
 283:Core/Src/freertos.c **** 
 492              		.loc 1 283 3 view .LVU128
 285:Core/Src/freertos.c ****   uint16_t d_snap[3];
 493              		.loc 1 285 3 view .LVU129
 494              	.LVL24:
 286:Core/Src/freertos.c ****   uint8_t  v_snap[3];
 495              		.loc 1 286 3 view .LVU130
 287:Core/Src/freertos.c **** 
ARM GAS  C:\Users\user\AppData\Local\Temp\ccCOI405.s 			page 19


 496              		.loc 1 287 3 view .LVU131
 289:Core/Src/freertos.c ****   imu_live = dbg.imu_ok;            /* Init м„ұкіөн–Ҳмқ„ л•Ңл§Ң мғқмЎҙ мӢңмһ‘ (мӢӨнҢЁ мӢң кұ°лҰ¬-on
 497              		.loc 1 289 3 view .LVU132
 498 0028 FFF7FEFF 		bl	osThreadGetId
 499              	.LVL25:
 289:Core/Src/freertos.c ****   imu_live = dbg.imu_ok;            /* Init м„ұкіөн–Ҳмқ„ л•Ңл§Ң мғқмЎҙ мӢңмһ‘ (мӢӨнҢЁ мӢң кұ°лҰ¬-on
 500              		.loc 1 289 3 is_stmt 0 discriminator 1 view .LVU133
 501 002c FFF7FEFF 		bl	Ultra_Init
 502              	.LVL26:
 290:Core/Src/freertos.c **** 
 503              		.loc 1 290 3 is_stmt 1 view .LVU134
 290:Core/Src/freertos.c **** 
 504              		.loc 1 290 17 is_stmt 0 view .LVU135
 505 0030 9F4B     		ldr	r3, .L69+4
 506 0032 93F83C20 		ldrb	r2, [r3, #60]	@ zero_extendqisi2
 290:Core/Src/freertos.c **** 
 507              		.loc 1 290 12 view .LVU136
 508 0036 9F4B     		ldr	r3, .L69+8
 509 0038 1A70     		strb	r2, [r3]
 285:Core/Src/freertos.c ****   uint16_t d_snap[3];
 510              		.loc 1 285 48 view .LVU137
 511 003a C827     		movs	r7, #200
 285:Core/Src/freertos.c ****   uint16_t d_snap[3];
 512              		.loc 1 285 30 view .LVU138
 513 003c B846     		mov	r8, r7
 514 003e CBE0     		b	.L54
 515              	.LVL27:
 516              	.L34:
 517              	.LBB5:
 305:Core/Src/freertos.c ****       dbg.front_miss = front_miss;
 518              		.loc 1 305 12 is_stmt 1 view .LVU139
 305:Core/Src/freertos.c ****       dbg.front_miss = front_miss;
 519              		.loc 1 305 27 is_stmt 0 view .LVU140
 520 0040 9D4B     		ldr	r3, .L69+12
 521 0042 1B78     		ldrb	r3, [r3]	@ zero_extendqisi2
 305:Core/Src/freertos.c ****       dbg.front_miss = front_miss;
 522              		.loc 1 305 15 view .LVU141
 523 0044 FF2B     		cmp	r3, #255
 524 0046 00F0DE80 		beq	.L35
 305:Core/Src/freertos.c ****       dbg.front_miss = front_miss;
 525              		.loc 1 305 36 is_stmt 1 discriminator 1 view .LVU142
 305:Core/Src/freertos.c ****       dbg.front_miss = front_miss;
 526              		.loc 1 305 46 is_stmt 0 discriminator 1 view .LVU143
 527 004a 0133     		adds	r3, r3, #1
 528 004c 9A4A     		ldr	r2, .L69+12
 529 004e 1370     		strb	r3, [r2]
 530 0050 D9E0     		b	.L35
 531              	.LVL28:
 532              	.L38:
 533              	.LBB6:
 310:Core/Src/freertos.c ****           hist[0][0] = d_snap[0];
 534              		.loc 1 310 54 is_stmt 1 discriminator 3 view .LVU144
 310:Core/Src/freertos.c ****           hist[0][0] = d_snap[0];
 535              		.loc 1 310 77 is_stmt 0 discriminator 3 view .LVU145
 536 0052 5A1E     		subs	r2, r3, #1
 310:Core/Src/freertos.c ****           hist[0][0] = d_snap[0];
 537              		.loc 1 310 74 discriminator 3 view .LVU146
ARM GAS  C:\Users\user\AppData\Local\Temp\ccCOI405.s 			page 20


 538 0054 9549     		ldr	r1, .L69
 539 0056 31F81200 		ldrh	r0, [r1, r2, lsl #1]
 310:Core/Src/freertos.c ****           hist[0][0] = d_snap[0];
 540              		.loc 1 310 65 discriminator 3 view .LVU147
 541 005a 21F81300 		strh	r0, [r1, r3, lsl #1]	@ movhi
 310:Core/Src/freertos.c ****           hist[0][0] = d_snap[0];
 542              		.loc 1 310 50 is_stmt 1 discriminator 3 view .LVU148
 543              	.LVL29:
 310:Core/Src/freertos.c ****           hist[0][0] = d_snap[0];
 544              		.loc 1 310 50 is_stmt 0 discriminator 3 view .LVU149
 545 005e 1346     		mov	r3, r2
 546              	.LVL30:
 547              	.L36:
 310:Core/Src/freertos.c ****           hist[0][0] = d_snap[0];
 548              		.loc 1 310 44 is_stmt 1 discriminator 1 view .LVU150
 549 0060 002B     		cmp	r3, #0
 550 0062 F6DC     		bgt	.L38
 551              	.LBE6:
 311:Core/Src/freertos.c ****       }
 552              		.loc 1 311 11 view .LVU151
 311:Core/Src/freertos.c ****       }
 553              		.loc 1 311 30 is_stmt 0 view .LVU152
 554 0064 BDF82020 		ldrh	r2, [sp, #32]
 311:Core/Src/freertos.c ****       }
 555              		.loc 1 311 22 view .LVU153
 556 0068 904B     		ldr	r3, .L69
 557              	.LVL31:
 311:Core/Src/freertos.c ****       }
 558              		.loc 1 311 22 view .LVU154
 559 006a 1A80     		strh	r2, [r3]	@ movhi
 560 006c D3E0     		b	.L37
 561              	.LVL32:
 562              	.L67:
 563              	.LBB7:
 310:Core/Src/freertos.c ****           hist[0][0] = d_snap[0];
 564              		.loc 1 310 20 view .LVU155
 565 006e 0223     		movs	r3, #2
 566 0070 F6E7     		b	.L36
 567              	.LVL33:
 568              	.L68:
 310:Core/Src/freertos.c ****           hist[0][0] = d_snap[0];
 569              		.loc 1 310 20 view .LVU156
 570              	.LBE7:
 571              	.LBB8:
 317:Core/Src/freertos.c ****           early.f          = f;
 572              		.loc 1 317 11 is_stmt 1 view .LVU157
 318:Core/Src/freertos.c ****           early.l          = l;            /* м§Ғм „ мӮ¬мқҙнҒҙ н•„н„°к°’ вҖ” side_valid=0мқҙлҜҖлЎң 
 573              		.loc 1 318 11 view .LVU158
 318:Core/Src/freertos.c ****           early.l          = l;            /* м§Ғм „ мӮ¬мқҙнҒҙ н•„н„°к°’ вҖ” side_valid=0мқҙлҜҖлЎң 
 574              		.loc 1 318 28 is_stmt 0 view .LVU159
 575 0072 ADF80400 		strh	r0, [sp, #4]	@ movhi
 319:Core/Src/freertos.c ****           early.r          = r;
 576              		.loc 1 319 11 is_stmt 1 view .LVU160
 319:Core/Src/freertos.c ****           early.r          = r;
 577              		.loc 1 319 28 is_stmt 0 view .LVU161
 578 0076 ADF80680 		strh	r8, [sp, #6]	@ movhi
 320:Core/Src/freertos.c ****           early.f_valid    = v_snap[0];
ARM GAS  C:\Users\user\AppData\Local\Temp\ccCOI405.s 			page 21


 579              		.loc 1 320 11 is_stmt 1 view .LVU162
 320:Core/Src/freertos.c ****           early.f_valid    = v_snap[0];
 580              		.loc 1 320 28 is_stmt 0 view .LVU163
 581 007a ADF80870 		strh	r7, [sp, #8]	@ movhi
 321:Core/Src/freertos.c ****           early.side_valid = 0U;
 582              		.loc 1 321 11 is_stmt 1 view .LVU164
 321:Core/Src/freertos.c ****           early.side_valid = 0U;
 583              		.loc 1 321 28 is_stmt 0 view .LVU165
 584 007e 8DF80A40 		strb	r4, [sp, #10]
 322:Core/Src/freertos.c ****           early.front_miss = front_miss;
 585              		.loc 1 322 11 is_stmt 1 view .LVU166
 322:Core/Src/freertos.c ****           early.front_miss = front_miss;
 586              		.loc 1 322 28 is_stmt 0 view .LVU167
 587 0082 0027     		movs	r7, #0
 588              	.LVL34:
 322:Core/Src/freertos.c ****           early.front_miss = front_miss;
 589              		.loc 1 322 28 view .LVU168
 590 0084 8DF80B70 		strb	r7, [sp, #11]
 323:Core/Src/freertos.c ****           early.heading    = imu.heading;
 591              		.loc 1 323 11 is_stmt 1 view .LVU169
 323:Core/Src/freertos.c ****           early.heading    = imu.heading;
 592              		.loc 1 323 28 is_stmt 0 view .LVU170
 593 0088 8B4B     		ldr	r3, .L69+12
 594 008a 1B78     		ldrb	r3, [r3]	@ zero_extendqisi2
 595 008c 8DF80C30 		strb	r3, [sp, #12]
 324:Core/Src/freertos.c ****           early.imu_live   = 0U;           /* мқҙлІҲ лЈЁн”„ IMU мғҳн”Ң м „мқҙлҜҖлЎң stale heading м
 596              		.loc 1 324 11 is_stmt 1 view .LVU171
 324:Core/Src/freertos.c ****           early.imu_live   = 0U;           /* мқҙлІҲ лЈЁн”„ IMU мғҳн”Ң м „мқҙлҜҖлЎң stale heading м
 597              		.loc 1 324 33 is_stmt 0 view .LVU172
 598 0090 8A4B     		ldr	r3, .L69+16
 599 0092 1B68     		ldr	r3, [r3]	@ float
 324:Core/Src/freertos.c ****           early.imu_live   = 0U;           /* мқҙлІҲ лЈЁн”„ IMU мғҳн”Ң м „мқҙлҜҖлЎң stale heading м
 600              		.loc 1 324 28 view .LVU173
 601 0094 0493     		str	r3, [sp, #16]	@ float
 325:Core/Src/freertos.c ****           early.now        = HAL_GetTick();
 602              		.loc 1 325 11 is_stmt 1 view .LVU174
 325:Core/Src/freertos.c ****           early.now        = HAL_GetTick();
 603              		.loc 1 325 28 is_stmt 0 view .LVU175
 604 0096 8DF81470 		strb	r7, [sp, #20]
 326:Core/Src/freertos.c ****           if (osMessageQueuePut(driveQ, &early, 0U, 0U) != osOK) { dbg.q_drop++; }
 605              		.loc 1 326 11 is_stmt 1 view .LVU176
 326:Core/Src/freertos.c ****           if (osMessageQueuePut(driveQ, &early, 0U, 0U) != osOK) { dbg.q_drop++; }
 606              		.loc 1 326 30 is_stmt 0 view .LVU177
 607 009a FFF7FEFF 		bl	HAL_GetTick
 608              	.LVL35:
 326:Core/Src/freertos.c ****           if (osMessageQueuePut(driveQ, &early, 0U, 0U) != osOK) { dbg.q_drop++; }
 609              		.loc 1 326 28 discriminator 1 view .LVU178
 610 009e 0690     		str	r0, [sp, #24]
 327:Core/Src/freertos.c ****       }
 611              		.loc 1 327 11 is_stmt 1 view .LVU179
 327:Core/Src/freertos.c ****       }
 612              		.loc 1 327 15 is_stmt 0 view .LVU180
 613 00a0 3B46     		mov	r3, r7
 614 00a2 3A46     		mov	r2, r7
 615 00a4 01A9     		add	r1, sp, #4
 616 00a6 8648     		ldr	r0, .L69+20
 617 00a8 0068     		ldr	r0, [r0]
ARM GAS  C:\Users\user\AppData\Local\Temp\ccCOI405.s 			page 22


 618 00aa FFF7FEFF 		bl	osMessageQueuePut
 619              	.LVL36:
 327:Core/Src/freertos.c ****       }
 620              		.loc 1 327 14 discriminator 1 view .LVU181
 621 00ae 0028     		cmp	r0, #0
 622 00b0 00F0B980 		beq	.L39
 327:Core/Src/freertos.c ****       }
 623              		.loc 1 327 68 is_stmt 1 discriminator 1 view .LVU182
 327:Core/Src/freertos.c ****       }
 624              		.loc 1 327 71 is_stmt 0 discriminator 1 view .LVU183
 625 00b4 7E4A     		ldr	r2, .L69+4
 626 00b6 536C     		ldr	r3, [r2, #68]
 327:Core/Src/freertos.c ****       }
 627              		.loc 1 327 78 discriminator 1 view .LVU184
 628 00b8 0133     		adds	r3, r3, #1
 629 00ba 5364     		str	r3, [r2, #68]
 630 00bc B3E0     		b	.L39
 631              	.LVL37:
 632              	.L64:
 327:Core/Src/freertos.c ****       }
 633              		.loc 1 327 78 discriminator 1 view .LVU185
 634              	.LBE8:
 635              	.LBB9:
 338:Core/Src/freertos.c ****               for (int i = SIDE_MED_WIN - 1; i > 0; i--) hist[ch][i] = hist[ch][i - 1];
 636              		.loc 1 338 15 is_stmt 1 view .LVU186
 338:Core/Src/freertos.c ****               for (int i = SIDE_MED_WIN - 1; i > 0; i--) hist[ch][i] = hist[ch][i - 1];
 637              		.loc 1 338 29 is_stmt 0 view .LVU187
 638 00be 814A     		ldr	r2, .L69+24
 639 00c0 0021     		movs	r1, #0
 640 00c2 D154     		strb	r1, [r2, r3]
 339:Core/Src/freertos.c ****               hist[ch][0] = d_snap[ch];
 641              		.loc 1 339 15 is_stmt 1 view .LVU188
 642              	.LBB10:
 339:Core/Src/freertos.c ****               hist[ch][0] = d_snap[ch];
 643              		.loc 1 339 20 view .LVU189
 644              	.LVL38:
 339:Core/Src/freertos.c ****               hist[ch][0] = d_snap[ch];
 645              		.loc 1 339 24 is_stmt 0 view .LVU190
 646 00c4 0222     		movs	r2, #2
 339:Core/Src/freertos.c ****               hist[ch][0] = d_snap[ch];
 647              		.loc 1 339 15 view .LVU191
 648 00c6 0BE0     		b	.L43
 649              	.LVL39:
 650              	.L44:
 339:Core/Src/freertos.c ****               hist[ch][0] = d_snap[ch];
 651              		.loc 1 339 58 is_stmt 1 discriminator 3 view .LVU192
 339:Core/Src/freertos.c ****               hist[ch][0] = d_snap[ch];
 652              		.loc 1 339 83 is_stmt 0 discriminator 3 view .LVU193
 653 00c8 501E     		subs	r0, r2, #1
 339:Core/Src/freertos.c ****               hist[ch][0] = d_snap[ch];
 654              		.loc 1 339 80 discriminator 3 view .LVU194
 655 00ca 784F     		ldr	r7, .L69
 656 00cc 03EB4301 		add	r1, r3, r3, lsl #1
 657 00d0 01EB000C 		add	ip, r1, r0
 658 00d4 37F81CC0 		ldrh	ip, [r7, ip, lsl #1]
 339:Core/Src/freertos.c ****               hist[ch][0] = d_snap[ch];
 659              		.loc 1 339 70 discriminator 3 view .LVU195
ARM GAS  C:\Users\user\AppData\Local\Temp\ccCOI405.s 			page 23


 660 00d8 1144     		add	r1, r1, r2
 661 00da 27F811C0 		strh	ip, [r7, r1, lsl #1]	@ movhi
 339:Core/Src/freertos.c ****               hist[ch][0] = d_snap[ch];
 662              		.loc 1 339 54 is_stmt 1 discriminator 3 view .LVU196
 663              	.LVL40:
 339:Core/Src/freertos.c ****               hist[ch][0] = d_snap[ch];
 664              		.loc 1 339 54 is_stmt 0 discriminator 3 view .LVU197
 665 00de 0246     		mov	r2, r0
 666              	.LVL41:
 667              	.L43:
 339:Core/Src/freertos.c ****               hist[ch][0] = d_snap[ch];
 668              		.loc 1 339 48 is_stmt 1 discriminator 1 view .LVU198
 669 00e0 002A     		cmp	r2, #0
 670 00e2 F1DC     		bgt	.L44
 671              	.LBE10:
 340:Core/Src/freertos.c ****           }
 672              		.loc 1 340 15 view .LVU199
 340:Core/Src/freertos.c ****           }
 673              		.loc 1 340 35 is_stmt 0 view .LVU200
 674 00e4 0AAA     		add	r2, sp, #40
 675              	.LVL42:
 340:Core/Src/freertos.c ****           }
 676              		.loc 1 340 35 view .LVU201
 677 00e6 02EB4302 		add	r2, r2, r3, lsl #1
 678 00ea 32F8080C 		ldrh	r0, [r2, #-8]
 340:Core/Src/freertos.c ****           }
 679              		.loc 1 340 27 view .LVU202
 680 00ee 03EB4302 		add	r2, r3, r3, lsl #1
 681 00f2 6E49     		ldr	r1, .L69
 682 00f4 21F81200 		strh	r0, [r1, r2, lsl #1]	@ movhi
 683              	.LVL43:
 684              	.L45:
 334:Core/Src/freertos.c ****       {
 685              		.loc 1 334 34 is_stmt 1 discriminator 2 view .LVU203
 686 00f8 0133     		adds	r3, r3, #1
 687              	.LVL44:
 688              	.L41:
 334:Core/Src/freertos.c ****       {
 689              		.loc 1 334 27 discriminator 1 view .LVU204
 690 00fa 022B     		cmp	r3, #2
 691 00fc 1DDC     		bgt	.L63
 336:Core/Src/freertos.c ****           {
 692              		.loc 1 336 11 view .LVU205
 336:Core/Src/freertos.c ****           {
 693              		.loc 1 336 21 is_stmt 0 view .LVU206
 694 00fe 03F12802 		add	r2, r3, #40
 695 0102 6A44     		add	r2, sp, r2
 696 0104 12F80C2C 		ldrb	r2, [r2, #-12]	@ zero_extendqisi2
 336:Core/Src/freertos.c ****           {
 697              		.loc 1 336 14 view .LVU207
 698 0108 002A     		cmp	r2, #0
 699 010a D8D1     		bne	.L64
 342:Core/Src/freertos.c ****           {
 700              		.loc 1 342 16 is_stmt 1 view .LVU208
 342:Core/Src/freertos.c ****           {
 701              		.loc 1 342 29 is_stmt 0 view .LVU209
 702 010c 6D4A     		ldr	r2, .L69+24
ARM GAS  C:\Users\user\AppData\Local\Temp\ccCOI405.s 			page 24


 703 010e D25C     		ldrb	r2, [r2, r3]	@ zero_extendqisi2
 342:Core/Src/freertos.c ****           {
 704              		.loc 1 342 19 view .LVU210
 705 0110 FF2A     		cmp	r2, #255
 706 0112 F1D0     		beq	.L45
 346:Core/Src/freertos.c ****                   for (int i = 0; i < SIDE_MED_WIN; i++) hist[ch][i] = ULTRA_MAX_CM;
 707              		.loc 1 346 15 is_stmt 1 view .LVU211
 346:Core/Src/freertos.c ****                   for (int i = 0; i < SIDE_MED_WIN; i++) hist[ch][i] = ULTRA_MAX_CM;
 708              		.loc 1 346 19 is_stmt 0 view .LVU212
 709 0114 0132     		adds	r2, r2, #1
 710 0116 D2B2     		uxtb	r2, r2
 346:Core/Src/freertos.c ****                   for (int i = 0; i < SIDE_MED_WIN; i++) hist[ch][i] = ULTRA_MAX_CM;
 711              		.loc 1 346 18 view .LVU213
 712 0118 6A49     		ldr	r1, .L69+24
 713 011a CA54     		strb	r2, [r1, r3]
 714 011c 022A     		cmp	r2, #2
 715 011e EBD9     		bls	.L45
 716              	.LBB11:
 347:Core/Src/freertos.c ****           }
 717              		.loc 1 347 28 view .LVU214
 718 0120 0022     		movs	r2, #0
 719 0122 07E0     		b	.L46
 720              	.LVL45:
 721              	.L47:
 347:Core/Src/freertos.c ****           }
 722              		.loc 1 347 58 is_stmt 1 discriminator 3 view .LVU215
 347:Core/Src/freertos.c ****           }
 723              		.loc 1 347 70 is_stmt 0 discriminator 3 view .LVU216
 724 0124 03EB4301 		add	r1, r3, r3, lsl #1
 725 0128 1144     		add	r1, r1, r2
 726 012a 6048     		ldr	r0, .L69
 727 012c C827     		movs	r7, #200
 728 012e 20F81170 		strh	r7, [r0, r1, lsl #1]	@ movhi
 347:Core/Src/freertos.c ****           }
 729              		.loc 1 347 54 is_stmt 1 discriminator 3 view .LVU217
 730 0132 0132     		adds	r2, r2, #1
 731              	.LVL46:
 732              	.L46:
 347:Core/Src/freertos.c ****           }
 733              		.loc 1 347 37 discriminator 1 view .LVU218
 734 0134 022A     		cmp	r2, #2
 735 0136 F5DD     		ble	.L47
 736 0138 DEE7     		b	.L45
 737              	.LVL47:
 738              	.L63:
 347:Core/Src/freertos.c ****           }
 739              		.loc 1 347 37 is_stmt 0 discriminator 1 view .LVU219
 740              	.LBE11:
 741              	.LBE9:
 350:Core/Src/freertos.c ****       r = median_n(hist[2], SIDE_MED_WIN);
 742              		.loc 1 350 7 is_stmt 1 view .LVU220
 350:Core/Src/freertos.c ****       r = median_n(hist[2], SIDE_MED_WIN);
 743              		.loc 1 350 11 is_stmt 0 view .LVU221
 744 013a 634F     		ldr	r7, .L69+28
 745 013c 0321     		movs	r1, #3
 746 013e 3846     		mov	r0, r7
 747 0140 FFF7FEFF 		bl	median_n
ARM GAS  C:\Users\user\AppData\Local\Temp\ccCOI405.s 			page 25


 748              	.LVL48:
 350:Core/Src/freertos.c ****       r = median_n(hist[2], SIDE_MED_WIN);
 749              		.loc 1 350 11 view .LVU222
 750 0144 8046     		mov	r8, r0
 751              	.LVL49:
 351:Core/Src/freertos.c ****       dbg.front = f; dbg.left = l; dbg.right = r;
 752              		.loc 1 351 7 is_stmt 1 view .LVU223
 351:Core/Src/freertos.c ****       dbg.front = f; dbg.left = l; dbg.right = r;
 753              		.loc 1 351 11 is_stmt 0 view .LVU224
 754 0146 0321     		movs	r1, #3
 755 0148 B81D     		adds	r0, r7, #6
 756 014a FFF7FEFF 		bl	median_n
 757              	.LVL50:
 758 014e 0746     		mov	r7, r0
 759              	.LVL51:
 352:Core/Src/freertos.c **** 
 760              		.loc 1 352 7 is_stmt 1 view .LVU225
 352:Core/Src/freertos.c **** 
 761              		.loc 1 352 17 is_stmt 0 view .LVU226
 762 0150 574B     		ldr	r3, .L69+4
 763 0152 9D84     		strh	r5, [r3, #36]	@ movhi
 352:Core/Src/freertos.c **** 
 764              		.loc 1 352 22 is_stmt 1 view .LVU227
 352:Core/Src/freertos.c **** 
 765              		.loc 1 352 31 is_stmt 0 view .LVU228
 766 0154 A3F82680 		strh	r8, [r3, #38]	@ movhi
 352:Core/Src/freertos.c **** 
 767              		.loc 1 352 36 is_stmt 1 view .LVU229
 352:Core/Src/freertos.c **** 
 768              		.loc 1 352 46 is_stmt 0 view .LVU230
 769 0158 1885     		strh	r0, [r3, #40]	@ movhi
 357:Core/Src/freertos.c ****       if (imu_live)
 770              		.loc 1 357 7 is_stmt 1 view .LVU231
 771              	.LVL52:
 358:Core/Src/freertos.c ****       {
 772              		.loc 1 358 7 view .LVU232
 358:Core/Src/freertos.c ****       {
 773              		.loc 1 358 11 is_stmt 0 view .LVU233
 774 015a 564B     		ldr	r3, .L69+8
 775 015c 93F800A0 		ldrb	r10, [r3]	@ zero_extendqisi2
 358:Core/Src/freertos.c ****       {
 776              		.loc 1 358 10 view .LVU234
 777 0160 BAF1000F 		cmp	r10, #0
 778 0164 70D1     		bne	.L65
 379:Core/Src/freertos.c ****       {
 779              		.loc 1 379 12 is_stmt 1 view .LVU235
 379:Core/Src/freertos.c ****       {
 780              		.loc 1 379 19 is_stmt 0 view .LVU236
 781 0166 524B     		ldr	r3, .L69+4
 782 0168 93F83C30 		ldrb	r3, [r3, #60]	@ zero_extendqisi2
 379:Core/Src/freertos.c ****       {
 783              		.loc 1 379 15 view .LVU237
 784 016c 03F0FF09 		and	r9, r3, #255
 785 0170 3BB1     		cbz	r3, .L52
 379:Core/Src/freertos.c ****       {
 786              		.loc 1 379 35 discriminator 1 view .LVU238
 787 0172 564B     		ldr	r3, .L69+32
ARM GAS  C:\Users\user\AppData\Local\Temp\ccCOI405.s 			page 26


 788 0174 1B68     		ldr	r3, [r3]
 789 0176 F31A     		subs	r3, r6, r3
 379:Core/Src/freertos.c ****       {
 790              		.loc 1 379 27 discriminator 1 view .LVU239
 791 0178 B3F5FA7F 		cmp	r3, #500
 792 017c 80F0AE80 		bcs	.L66
 357:Core/Src/freertos.c ****       if (imu_live)
 793              		.loc 1 357 15 view .LVU240
 794 0180 D146     		mov	r9, r10
 795              	.LVL53:
 796              	.L52:
 394:Core/Src/freertos.c **** 
 797              		.loc 1 394 7 is_stmt 1 view .LVU241
 394:Core/Src/freertos.c **** 
 798              		.loc 1 394 20 is_stmt 0 view .LVU242
 799 0182 4B4B     		ldr	r3, .L69+4
 800 0184 83F83D90 		strb	r9, [r3, #61]
 397:Core/Src/freertos.c ****       din.f          = f;
 801              		.loc 1 397 7 is_stmt 1 view .LVU243
 398:Core/Src/freertos.c ****       din.l          = l;
 802              		.loc 1 398 7 view .LVU244
 398:Core/Src/freertos.c ****       din.l          = l;
 803              		.loc 1 398 22 is_stmt 0 view .LVU245
 804 0188 ADF80450 		strh	r5, [sp, #4]	@ movhi
 399:Core/Src/freertos.c ****       din.r          = r;
 805              		.loc 1 399 7 is_stmt 1 view .LVU246
 399:Core/Src/freertos.c ****       din.r          = r;
 806              		.loc 1 399 22 is_stmt 0 view .LVU247
 807 018c ADF80680 		strh	r8, [sp, #6]	@ movhi
 400:Core/Src/freertos.c ****       din.f_valid    = v_snap[0];
 808              		.loc 1 400 7 is_stmt 1 view .LVU248
 400:Core/Src/freertos.c ****       din.f_valid    = v_snap[0];
 809              		.loc 1 400 22 is_stmt 0 view .LVU249
 810 0190 ADF80870 		strh	r7, [sp, #8]	@ movhi
 401:Core/Src/freertos.c ****       din.side_valid = 1U;
 811              		.loc 1 401 7 is_stmt 1 view .LVU250
 401:Core/Src/freertos.c ****       din.side_valid = 1U;
 812              		.loc 1 401 22 is_stmt 0 view .LVU251
 813 0194 8DF80A40 		strb	r4, [sp, #10]
 402:Core/Src/freertos.c ****       din.front_miss = front_miss;
 814              		.loc 1 402 7 is_stmt 1 view .LVU252
 402:Core/Src/freertos.c ****       din.front_miss = front_miss;
 815              		.loc 1 402 22 is_stmt 0 view .LVU253
 816 0198 0123     		movs	r3, #1
 817 019a 8DF80B30 		strb	r3, [sp, #11]
 403:Core/Src/freertos.c ****       din.heading    = imu.heading;   /* imu_ctrl_live=0мқҙл©ҙ drive.cк°Җ л¬ҙмӢң(кұ°лҰ¬-only к°•л“ұ
 818              		.loc 1 403 7 is_stmt 1 view .LVU254
 403:Core/Src/freertos.c ****       din.heading    = imu.heading;   /* imu_ctrl_live=0мқҙл©ҙ drive.cк°Җ л¬ҙмӢң(кұ°лҰ¬-only к°•л“ұ
 819              		.loc 1 403 22 is_stmt 0 view .LVU255
 820 019e 464B     		ldr	r3, .L69+12
 821 01a0 1B78     		ldrb	r3, [r3]	@ zero_extendqisi2
 822 01a2 8DF80C30 		strb	r3, [sp, #12]
 404:Core/Src/freertos.c ****       din.imu_live   = imu_ctrl_live;
 823              		.loc 1 404 7 is_stmt 1 view .LVU256
 404:Core/Src/freertos.c ****       din.imu_live   = imu_ctrl_live;
 824              		.loc 1 404 27 is_stmt 0 view .LVU257
 825 01a6 454B     		ldr	r3, .L69+16
ARM GAS  C:\Users\user\AppData\Local\Temp\ccCOI405.s 			page 27


 826 01a8 1B68     		ldr	r3, [r3]	@ float
 404:Core/Src/freertos.c ****       din.imu_live   = imu_ctrl_live;
 827              		.loc 1 404 22 view .LVU258
 828 01aa 0493     		str	r3, [sp, #16]	@ float
 405:Core/Src/freertos.c ****       din.now        = HAL_GetTick();
 829              		.loc 1 405 7 is_stmt 1 view .LVU259
 405:Core/Src/freertos.c ****       din.now        = HAL_GetTick();
 830              		.loc 1 405 22 is_stmt 0 view .LVU260
 831 01ac 8DF81490 		strb	r9, [sp, #20]
 406:Core/Src/freertos.c ****       if (osMessageQueuePut(driveQ, &din, 0U, 0U) != osOK) { dbg.q_drop++; }
 832              		.loc 1 406 7 is_stmt 1 view .LVU261
 406:Core/Src/freertos.c ****       if (osMessageQueuePut(driveQ, &din, 0U, 0U) != osOK) { dbg.q_drop++; }
 833              		.loc 1 406 24 is_stmt 0 view .LVU262
 834 01b0 FFF7FEFF 		bl	HAL_GetTick
 835              	.LVL54:
 406:Core/Src/freertos.c ****       if (osMessageQueuePut(driveQ, &din, 0U, 0U) != osOK) { dbg.q_drop++; }
 836              		.loc 1 406 22 discriminator 1 view .LVU263
 837 01b4 0690     		str	r0, [sp, #24]
 407:Core/Src/freertos.c **** 
 838              		.loc 1 407 7 is_stmt 1 view .LVU264
 407:Core/Src/freertos.c **** 
 839              		.loc 1 407 11 is_stmt 0 view .LVU265
 840 01b6 0023     		movs	r3, #0
 841 01b8 1A46     		mov	r2, r3
 842 01ba 01A9     		add	r1, sp, #4
 843 01bc 4048     		ldr	r0, .L69+20
 844 01be 0068     		ldr	r0, [r0]
 845 01c0 FFF7FEFF 		bl	osMessageQueuePut
 846              	.LVL55:
 407:Core/Src/freertos.c **** 
 847              		.loc 1 407 10 discriminator 1 view .LVU266
 848 01c4 18B1     		cbz	r0, .L53
 407:Core/Src/freertos.c **** 
 849              		.loc 1 407 62 is_stmt 1 discriminator 1 view .LVU267
 407:Core/Src/freertos.c **** 
 850              		.loc 1 407 65 is_stmt 0 discriminator 1 view .LVU268
 851 01c6 3A4A     		ldr	r2, .L69+4
 852 01c8 536C     		ldr	r3, [r2, #68]
 407:Core/Src/freertos.c **** 
 853              		.loc 1 407 72 discriminator 1 view .LVU269
 854 01ca 0133     		adds	r3, r3, #1
 855 01cc 5364     		str	r3, [r2, #68]
 856              	.L53:
 409:Core/Src/freertos.c ****   }
 857              		.loc 1 409 7 is_stmt 1 view .LVU270
 409:Core/Src/freertos.c ****   }
 858              		.loc 1 409 33 is_stmt 0 view .LVU271
 859 01ce 0020     		movs	r0, #0
 860 01d0 FFF7FEFF 		bl	uxTaskGetStackHighWaterMark
 861              	.LVL56:
 409:Core/Src/freertos.c ****   }
 862              		.loc 1 409 21 discriminator 1 view .LVU272
 863 01d4 364B     		ldr	r3, .L69+4
 864 01d6 D864     		str	r0, [r3, #76]
 865              	.LBE5:
 292:Core/Src/freertos.c ****   {
 866              		.loc 1 292 3 is_stmt 1 view .LVU273
ARM GAS  C:\Users\user\AppData\Local\Temp\ccCOI405.s 			page 28


 867              	.LVL57:
 868              	.L54:
 292:Core/Src/freertos.c ****   {
 869              		.loc 1 292 3 view .LVU274
 870              	.LBB13:
 294:Core/Src/freertos.c ****       dbg.loop_ms = now - t_loop;   /* мӮ¬мқҙнҒҙ мЈјкё° лҜёлҹ¬ (л°ҳмқ‘м§Җм—° к°җмӢң: нҶөмғҒ 6~9ms) 
 871              		.loc 1 294 7 view .LVU275
 294:Core/Src/freertos.c ****       dbg.loop_ms = now - t_loop;   /* мӮ¬мқҙнҒҙ мЈјкё° лҜёлҹ¬ (л°ҳмқ‘м§Җм—° к°җмӢң: нҶөмғҒ 6~9ms) 
 872              		.loc 1 294 22 is_stmt 0 view .LVU276
 873 01d8 FFF7FEFF 		bl	HAL_GetTick
 874              	.LVL58:
 875 01dc 0646     		mov	r6, r0
 876              	.LVL59:
 295:Core/Src/freertos.c ****       t_loop = now;
 877              		.loc 1 295 7 is_stmt 1 view .LVU277
 295:Core/Src/freertos.c ****       t_loop = now;
 878              		.loc 1 295 25 is_stmt 0 view .LVU278
 879 01de 3C4A     		ldr	r2, .L69+36
 880 01e0 1368     		ldr	r3, [r2]
 881 01e2 C31A     		subs	r3, r0, r3
 295:Core/Src/freertos.c ****       t_loop = now;
 882              		.loc 1 295 19 view .LVU279
 883 01e4 3249     		ldr	r1, .L69+4
 884 01e6 CB62     		str	r3, [r1, #44]
 296:Core/Src/freertos.c **** 
 885              		.loc 1 296 7 is_stmt 1 view .LVU280
 296:Core/Src/freertos.c **** 
 886              		.loc 1 296 14 is_stmt 0 view .LVU281
 887 01e8 1060     		str	r0, [r2]
 302:Core/Src/freertos.c **** 
 888              		.loc 1 302 7 is_stmt 1 view .LVU282
 302:Core/Src/freertos.c **** 
 889              		.loc 1 302 19 is_stmt 0 view .LVU283
 890 01ea 08AA     		add	r2, sp, #32
 891 01ec 1921     		movs	r1, #25
 892 01ee 0020     		movs	r0, #0
 893              	.LVL60:
 302:Core/Src/freertos.c **** 
 894              		.loc 1 302 19 view .LVU284
 895 01f0 FFF7FEFF 		bl	Ultra_Measure
 896              	.LVL61:
 897 01f4 0446     		mov	r4, r0
 302:Core/Src/freertos.c **** 
 898              		.loc 1 302 17 discriminator 1 view .LVU285
 899 01f6 8DF81C00 		strb	r0, [sp, #28]
 304:Core/Src/freertos.c ****       else if (front_miss < 255) { front_miss++; }
 900              		.loc 1 304 7 is_stmt 1 view .LVU286
 304:Core/Src/freertos.c ****       else if (front_miss < 255) { front_miss++; }
 901              		.loc 1 304 10 is_stmt 0 view .LVU287
 902 01fa 0028     		cmp	r0, #0
 903 01fc 3FF420AF 		beq	.L34
 304:Core/Src/freertos.c ****       else if (front_miss < 255) { front_miss++; }
 904              		.loc 1 304 36 is_stmt 1 discriminator 1 view .LVU288
 304:Core/Src/freertos.c ****       else if (front_miss < 255) { front_miss++; }
 905              		.loc 1 304 47 is_stmt 0 discriminator 1 view .LVU289
 906 0200 2D4B     		ldr	r3, .L69+12
 907 0202 0022     		movs	r2, #0
ARM GAS  C:\Users\user\AppData\Local\Temp\ccCOI405.s 			page 29


 908 0204 1A70     		strb	r2, [r3]
 909              	.L35:
 306:Core/Src/freertos.c **** 
 910              		.loc 1 306 7 is_stmt 1 view .LVU290
 306:Core/Src/freertos.c **** 
 911              		.loc 1 306 22 is_stmt 0 view .LVU291
 912 0206 2C4B     		ldr	r3, .L69+12
 913 0208 1A78     		ldrb	r2, [r3]	@ zero_extendqisi2
 914 020a 294B     		ldr	r3, .L69+4
 915 020c 83F82A20 		strb	r2, [r3, #42]
 308:Core/Src/freertos.c ****       {
 916              		.loc 1 308 7 is_stmt 1 view .LVU292
 308:Core/Src/freertos.c ****       {
 917              		.loc 1 308 10 is_stmt 0 view .LVU293
 918 0210 002C     		cmp	r4, #0
 919 0212 7FF42CAF 		bne	.L67
 920              	.L37:
 313:Core/Src/freertos.c **** 
 921              		.loc 1 313 7 is_stmt 1 view .LVU294
 313:Core/Src/freertos.c **** 
 922              		.loc 1 313 11 is_stmt 0 view .LVU295
 923 0216 0321     		movs	r1, #3
 924 0218 2448     		ldr	r0, .L69
 925 021a FFF7FEFF 		bl	min_n
 926              	.LVL62:
 927 021e 0546     		mov	r5, r0
 928              	.LVL63:
 315:Core/Src/freertos.c ****       {
 929              		.loc 1 315 7 is_stmt 1 view .LVU296
 315:Core/Src/freertos.c ****       {
 930              		.loc 1 315 10 is_stmt 0 view .LVU297
 931 0220 1D28     		cmp	r0, #29
 932 0222 7FF626AF 		bls	.L68
 933              	.LVL64:
 934              	.L39:
 331:Core/Src/freertos.c ****       v_snap[2] = Ultra_Measure(2, SIDE_WAIT_MS, &d_snap[2]);    /* right (TRIG PA3, ECHO CH3) */
 935              		.loc 1 331 7 is_stmt 1 view .LVU298
 331:Core/Src/freertos.c ****       v_snap[2] = Ultra_Measure(2, SIDE_WAIT_MS, &d_snap[2]);    /* right (TRIG PA3, ECHO CH3) */
 936              		.loc 1 331 19 is_stmt 0 view .LVU299
 937 0226 0DF12202 		add	r2, sp, #34
 938 022a 0621     		movs	r1, #6
 939 022c 0120     		movs	r0, #1
 940 022e FFF7FEFF 		bl	Ultra_Measure
 941              	.LVL65:
 331:Core/Src/freertos.c ****       v_snap[2] = Ultra_Measure(2, SIDE_WAIT_MS, &d_snap[2]);    /* right (TRIG PA3, ECHO CH3) */
 942              		.loc 1 331 17 discriminator 1 view .LVU300
 943 0232 8DF81D00 		strb	r0, [sp, #29]
 332:Core/Src/freertos.c **** 
 944              		.loc 1 332 7 is_stmt 1 view .LVU301
 332:Core/Src/freertos.c **** 
 945              		.loc 1 332 19 is_stmt 0 view .LVU302
 946 0236 09AA     		add	r2, sp, #36
 947 0238 0621     		movs	r1, #6
 948 023a 0220     		movs	r0, #2
 949 023c FFF7FEFF 		bl	Ultra_Measure
 950              	.LVL66:
 332:Core/Src/freertos.c **** 
ARM GAS  C:\Users\user\AppData\Local\Temp\ccCOI405.s 			page 30


 951              		.loc 1 332 17 discriminator 1 view .LVU303
 952 0240 8DF81E00 		strb	r0, [sp, #30]
 334:Core/Src/freertos.c ****       {
 953              		.loc 1 334 7 is_stmt 1 view .LVU304
 954              	.LBB12:
 334:Core/Src/freertos.c ****       {
 955              		.loc 1 334 12 view .LVU305
 956              	.LVL67:
 334:Core/Src/freertos.c ****       {
 957              		.loc 1 334 16 is_stmt 0 view .LVU306
 958 0244 0123     		movs	r3, #1
 334:Core/Src/freertos.c ****       {
 959              		.loc 1 334 7 view .LVU307
 960 0246 58E7     		b	.L41
 961              	.LVL68:
 962              	.L65:
 334:Core/Src/freertos.c ****       {
 963              		.loc 1 334 7 view .LVU308
 964              	.LBE12:
 360:Core/Src/freertos.c ****           {
 965              		.loc 1 360 11 is_stmt 1 view .LVU309
 360:Core/Src/freertos.c ****           {
 966              		.loc 1 360 15 is_stmt 0 view .LVU310
 967 0248 1C48     		ldr	r0, .L69+16
 968              	.LVL69:
 360:Core/Src/freertos.c ****           {
 969              		.loc 1 360 15 view .LVU311
 970 024a FFF7FEFF 		bl	BNO055_ReadEuler
 971              	.LVL70:
 360:Core/Src/freertos.c ****           {
 972              		.loc 1 360 14 discriminator 1 view .LVU312
 973 024e D0B1     		cbz	r0, .L50
 362:Core/Src/freertos.c ****               imu_ctrl_live = 1U;
 974              		.loc 1 362 15 is_stmt 1 view .LVU313
 362:Core/Src/freertos.c ****               imu_ctrl_live = 1U;
 975              		.loc 1 362 24 is_stmt 0 view .LVU314
 976 0250 204B     		ldr	r3, .L69+40
 977 0252 0022     		movs	r2, #0
 978 0254 1A70     		strb	r2, [r3]
 363:Core/Src/freertos.c ****               dbg.heading = imu.heading;
 979              		.loc 1 363 15 is_stmt 1 view .LVU315
 980              	.LVL71:
 364:Core/Src/freertos.c ****               dbg.roll    = imu.roll;
 981              		.loc 1 364 15 view .LVU316
 364:Core/Src/freertos.c ****               dbg.roll    = imu.roll;
 982              		.loc 1 364 32 is_stmt 0 view .LVU317
 983 0256 194A     		ldr	r2, .L69+16
 984 0258 1168     		ldr	r1, [r2]	@ float
 364:Core/Src/freertos.c ****               dbg.roll    = imu.roll;
 985              		.loc 1 364 27 view .LVU318
 986 025a 154B     		ldr	r3, .L69+4
 987 025c 1963     		str	r1, [r3, #48]	@ float
 365:Core/Src/freertos.c ****               dbg.pitch   = imu.pitch;
 988              		.loc 1 365 15 is_stmt 1 view .LVU319
 365:Core/Src/freertos.c ****               dbg.pitch   = imu.pitch;
 989              		.loc 1 365 32 is_stmt 0 view .LVU320
 990 025e 5168     		ldr	r1, [r2, #4]	@ float
ARM GAS  C:\Users\user\AppData\Local\Temp\ccCOI405.s 			page 31


 365:Core/Src/freertos.c ****               dbg.pitch   = imu.pitch;
 991              		.loc 1 365 27 view .LVU321
 992 0260 5963     		str	r1, [r3, #52]	@ float
 366:Core/Src/freertos.c ****           }
 993              		.loc 1 366 15 is_stmt 1 view .LVU322
 366:Core/Src/freertos.c ****           }
 994              		.loc 1 366 32 is_stmt 0 view .LVU323
 995 0262 9268     		ldr	r2, [r2, #8]	@ float
 366:Core/Src/freertos.c ****           }
 996              		.loc 1 366 27 view .LVU324
 997 0264 9A63     		str	r2, [r3, #56]	@ float
 363:Core/Src/freertos.c ****               dbg.heading = imu.heading;
 998              		.loc 1 363 29 view .LVU325
 999 0266 4FF00109 		mov	r9, #1
 1000              	.LVL72:
 1001              	.L51:
 373:Core/Src/freertos.c ****           {
 1002              		.loc 1 373 11 is_stmt 1 view .LVU326
 373:Core/Src/freertos.c ****           {
 1003              		.loc 1 373 20 is_stmt 0 view .LVU327
 1004 026a 1B4B     		ldr	r3, .L69+44
 1005 026c 1B68     		ldr	r3, [r3]
 1006 026e F31A     		subs	r3, r6, r3
 373:Core/Src/freertos.c ****           {
 1007              		.loc 1 373 14 view .LVU328
 1008 0270 B3F5FA7F 		cmp	r3, #500
 1009 0274 85D3     		bcc	.L52
 375:Core/Src/freertos.c ****               dbg.imu_calib = BNO055_ReadCalibStatus();
 1010              		.loc 1 375 15 is_stmt 1 view .LVU329
 375:Core/Src/freertos.c ****               dbg.imu_calib = BNO055_ReadCalibStatus();
 1011              		.loc 1 375 23 is_stmt 0 view .LVU330
 1012 0276 184B     		ldr	r3, .L69+44
 1013 0278 1E60     		str	r6, [r3]
 376:Core/Src/freertos.c ****           }
 1014              		.loc 1 376 15 is_stmt 1 view .LVU331
 376:Core/Src/freertos.c ****           }
 1015              		.loc 1 376 31 is_stmt 0 view .LVU332
 1016 027a FFF7FEFF 		bl	BNO055_ReadCalibStatus
 1017              	.LVL73:
 376:Core/Src/freertos.c ****           }
 1018              		.loc 1 376 29 discriminator 1 view .LVU333
 1019 027e 0C4B     		ldr	r3, .L69+4
 1020 0280 83F83E00 		strb	r0, [r3, #62]
 1021 0284 7DE7     		b	.L52
 1022              	.LVL74:
 1023              	.L50:
 368:Core/Src/freertos.c ****           {
 1024              		.loc 1 368 16 is_stmt 1 view .LVU334
 368:Core/Src/freertos.c ****           {
 1025              		.loc 1 368 20 is_stmt 0 view .LVU335
 1026 0286 134A     		ldr	r2, .L69+40
 1027 0288 1378     		ldrb	r3, [r2]	@ zero_extendqisi2
 1028 028a 0133     		adds	r3, r3, #1
 1029 028c DBB2     		uxtb	r3, r3
 368:Core/Src/freertos.c ****           {
 1030              		.loc 1 368 19 view .LVU336
 1031 028e 1370     		strb	r3, [r2]
ARM GAS  C:\Users\user\AppData\Local\Temp\ccCOI405.s 			page 32


 1032 0290 042B     		cmp	r3, #4
 1033 0292 07D9     		bls	.L58
 370:Core/Src/freertos.c ****               t_imu_retry = now;
 1034              		.loc 1 370 15 is_stmt 1 view .LVU337
 370:Core/Src/freertos.c ****               t_imu_retry = now;
 1035              		.loc 1 370 24 is_stmt 0 view .LVU338
 1036 0294 4FF00009 		mov	r9, #0
 1037 0298 064B     		ldr	r3, .L69+8
 1038 029a 83F80090 		strb	r9, [r3]
 371:Core/Src/freertos.c ****           }
 1039              		.loc 1 371 15 is_stmt 1 view .LVU339
 371:Core/Src/freertos.c ****           }
 1040              		.loc 1 371 27 is_stmt 0 view .LVU340
 1041 029e 0B4B     		ldr	r3, .L69+32
 1042 02a0 1E60     		str	r6, [r3]
 1043 02a2 E2E7     		b	.L51
 1044              	.L58:
 357:Core/Src/freertos.c ****       if (imu_live)
 1045              		.loc 1 357 15 view .LVU341
 1046 02a4 4FF00009 		mov	r9, #0
 1047 02a8 DFE7     		b	.L51
 1048              	.L70:
 1049 02aa 00BF     		.align	2
 1050              	.L69:
 1051 02ac 00000000 		.word	hist.8
 1052 02b0 00000000 		.word	dbg
 1053 02b4 00000000 		.word	imu_live.7
 1054 02b8 00000000 		.word	front_miss.5
 1055 02bc 00000000 		.word	imu.4
 1056 02c0 00000000 		.word	driveQ
 1057 02c4 00000000 		.word	side_miss.3
 1058 02c8 06000000 		.word	hist.8+6
 1059 02cc 00000000 		.word	t_imu_retry.1
 1060 02d0 00000000 		.word	t_loop.6
 1061 02d4 00000000 		.word	imu_fail.2
 1062 02d8 00000000 		.word	t_calib.0
 1063              	.LVL75:
 1064              	.L66:
 383:Core/Src/freertos.c ****           if (BNO055_ReadEuler(&imu))
 1065              		.loc 1 383 11 is_stmt 1 view .LVU342
 383:Core/Src/freertos.c ****           if (BNO055_ReadEuler(&imu))
 1066              		.loc 1 383 23 is_stmt 0 view .LVU343
 1067 02dc 0C4B     		ldr	r3, .L71
 1068 02de 1E60     		str	r6, [r3]
 384:Core/Src/freertos.c ****           {
 1069              		.loc 1 384 11 is_stmt 1 view .LVU344
 384:Core/Src/freertos.c ****           {
 1070              		.loc 1 384 15 is_stmt 0 view .LVU345
 1071 02e0 0C48     		ldr	r0, .L71+4
 1072              	.LVL76:
 384:Core/Src/freertos.c ****           {
 1073              		.loc 1 384 15 view .LVU346
 1074 02e2 FFF7FEFF 		bl	BNO055_ReadEuler
 1075              	.LVL77:
 384:Core/Src/freertos.c ****           {
 1076              		.loc 1 384 14 discriminator 1 view .LVU347
 1077 02e6 80B1     		cbz	r0, .L60
ARM GAS  C:\Users\user\AppData\Local\Temp\ccCOI405.s 			page 33


 386:Core/Src/freertos.c ****               imu_fail = 0;
 1078              		.loc 1 386 15 is_stmt 1 view .LVU348
 386:Core/Src/freertos.c ****               imu_fail = 0;
 1079              		.loc 1 386 24 is_stmt 0 view .LVU349
 1080 02e8 4FF00109 		mov	r9, #1
 1081 02ec 0A4B     		ldr	r3, .L71+8
 1082 02ee 83F80090 		strb	r9, [r3]
 387:Core/Src/freertos.c ****               imu_ctrl_live = 1U;
 1083              		.loc 1 387 15 is_stmt 1 view .LVU350
 387:Core/Src/freertos.c ****               imu_ctrl_live = 1U;
 1084              		.loc 1 387 24 is_stmt 0 view .LVU351
 1085 02f2 0A4B     		ldr	r3, .L71+12
 1086 02f4 0022     		movs	r2, #0
 1087 02f6 1A70     		strb	r2, [r3]
 388:Core/Src/freertos.c ****               dbg.heading = imu.heading;
 1088              		.loc 1 388 15 is_stmt 1 view .LVU352
 1089              	.LVL78:
 389:Core/Src/freertos.c ****               dbg.roll    = imu.roll;
 1090              		.loc 1 389 15 view .LVU353
 389:Core/Src/freertos.c ****               dbg.roll    = imu.roll;
 1091              		.loc 1 389 32 is_stmt 0 view .LVU354
 1092 02f8 064A     		ldr	r2, .L71+4
 1093 02fa 1168     		ldr	r1, [r2]	@ float
 389:Core/Src/freertos.c ****               dbg.roll    = imu.roll;
 1094              		.loc 1 389 27 view .LVU355
 1095 02fc 084B     		ldr	r3, .L71+16
 1096 02fe 1963     		str	r1, [r3, #48]	@ float
 390:Core/Src/freertos.c ****               dbg.pitch   = imu.pitch;
 1097              		.loc 1 390 15 is_stmt 1 view .LVU356
 390:Core/Src/freertos.c ****               dbg.pitch   = imu.pitch;
 1098              		.loc 1 390 32 is_stmt 0 view .LVU357
 1099 0300 5168     		ldr	r1, [r2, #4]	@ float
 390:Core/Src/freertos.c ****               dbg.pitch   = imu.pitch;
 1100              		.loc 1 390 27 view .LVU358
 1101 0302 5963     		str	r1, [r3, #52]	@ float
 391:Core/Src/freertos.c ****           }
 1102              		.loc 1 391 15 is_stmt 1 view .LVU359
 391:Core/Src/freertos.c ****           }
 1103              		.loc 1 391 32 is_stmt 0 view .LVU360
 1104 0304 9268     		ldr	r2, [r2, #8]	@ float
 391:Core/Src/freertos.c ****           }
 1105              		.loc 1 391 27 view .LVU361
 1106 0306 9A63     		str	r2, [r3, #56]	@ float
 1107 0308 3BE7     		b	.L52
 1108              	.LVL79:
 1109              	.L60:
 357:Core/Src/freertos.c ****       if (imu_live)
 1110              		.loc 1 357 15 view .LVU362
 1111 030a D146     		mov	r9, r10
 1112 030c 39E7     		b	.L52
 1113              	.L72:
 1114 030e 00BF     		.align	2
 1115              	.L71:
 1116 0310 00000000 		.word	t_imu_retry.1
 1117 0314 00000000 		.word	imu.4
 1118 0318 00000000 		.word	imu_live.7
 1119 031c 00000000 		.word	imu_fail.2
ARM GAS  C:\Users\user\AppData\Local\Temp\ccCOI405.s 			page 34


 1120 0320 00000000 		.word	dbg
 1121              	.LBE13:
 1122              		.cfi_endproc
 1123              	.LFE140:
 1125              		.section	.text.MX_FREERTOS_Init,"ax",%progbits
 1126              		.align	1
 1127              		.global	MX_FREERTOS_Init
 1128              		.syntax unified
 1129              		.thumb
 1130              		.thumb_func
 1132              	MX_FREERTOS_Init:
 1133              	.LFB138:
 131:Core/Src/freertos.c ****   /* USER CODE BEGIN Init */
 1134              		.loc 1 131 29 is_stmt 1 view -0
 1135              		.cfi_startproc
 1136              		@ args = 0, pretend = 0, frame = 8
 1137              		@ frame_needed = 0, uses_anonymous_args = 0
 1138 0000 10B5     		push	{r4, lr}
 1139              	.LCFI6:
 1140              		.cfi_def_cfa_offset 8
 1141              		.cfi_offset 4, -8
 1142              		.cfi_offset 14, -4
 1143 0002 82B0     		sub	sp, sp, #8
 1144              	.LCFI7:
 1145              		.cfi_def_cfa_offset 16
 150:Core/Src/freertos.c **** 
 1146              		.loc 1 150 3 view .LVU364
 150:Core/Src/freertos.c **** 
 1147              		.loc 1 150 17 is_stmt 0 view .LVU365
 1148 0004 184A     		ldr	r2, .L75
 1149 0006 0121     		movs	r1, #1
 1150 0008 1020     		movs	r0, #16
 1151 000a FFF7FEFF 		bl	osMessageQueueNew
 1152              	.LVL80:
 150:Core/Src/freertos.c **** 
 1153              		.loc 1 150 15 discriminator 1 view .LVU366
 1154 000e 174B     		ldr	r3, .L75+4
 1155 0010 1860     		str	r0, [r3]
 153:Core/Src/freertos.c ****   /* мғқм„ұ мӢӨнҢЁ(NULL) мӢң put/getмқҙ м „л¶Җ м—җлҹ¬ вҶ’ MotorTaskк°Җ Car_Stop + refresh мғқлһө вҶ
 1156              		.loc 1 153 3 is_stmt 1 view .LVU367
 153:Core/Src/freertos.c ****   /* мғқм„ұ мӢӨнҢЁ(NULL) мӢң put/getмқҙ м „л¶Җ м—җлҹ¬ вҶ’ MotorTaskк°Җ Car_Stop + refresh мғқлһө вҶ
 1157              		.loc 1 153 12 is_stmt 0 view .LVU368
 1158 0012 0022     		movs	r2, #0
 1159 0014 1821     		movs	r1, #24
 1160 0016 0220     		movs	r0, #2
 1161 0018 FFF7FEFF 		bl	osMessageQueueNew
 1162              	.LVL81:
 153:Core/Src/freertos.c ****   /* мғқм„ұ мӢӨнҢЁ(NULL) мӢң put/getмқҙ м „л¶Җ м—җлҹ¬ вҶ’ MotorTaskк°Җ Car_Stop + refresh мғқлһө вҶ
 1163              		.loc 1 153 10 discriminator 1 view .LVU369
 1164 001c 144B     		ldr	r3, .L75+8
 1165 001e 1860     		str	r0, [r3]
 159:Core/Src/freertos.c ****   HAL_UART_Receive_IT(&huart1, (uint8_t *)&bt_rx_byte, 1);
 1166              		.loc 1 159 3 is_stmt 1 view .LVU370
 1167              	.LBB14:
 159:Core/Src/freertos.c ****   HAL_UART_Receive_IT(&huart1, (uint8_t *)&bt_rx_byte, 1);
 1168              		.loc 1 159 3 view .LVU371
 1169 0020 0024     		movs	r4, #0
ARM GAS  C:\Users\user\AppData\Local\Temp\ccCOI405.s 			page 35


 1170 0022 0194     		str	r4, [sp, #4]
 159:Core/Src/freertos.c ****   HAL_UART_Receive_IT(&huart1, (uint8_t *)&bt_rx_byte, 1);
 1171              		.loc 1 159 3 view .LVU372
 1172 0024 1348     		ldr	r0, .L75+12
 1173 0026 0368     		ldr	r3, [r0]
 1174 0028 1A68     		ldr	r2, [r3]
 1175 002a 0192     		str	r2, [sp, #4]
 159:Core/Src/freertos.c ****   HAL_UART_Receive_IT(&huart1, (uint8_t *)&bt_rx_byte, 1);
 1176              		.loc 1 159 3 view .LVU373
 1177 002c 5B68     		ldr	r3, [r3, #4]
 1178 002e 0193     		str	r3, [sp, #4]
 159:Core/Src/freertos.c ****   HAL_UART_Receive_IT(&huart1, (uint8_t *)&bt_rx_byte, 1);
 1179              		.loc 1 159 3 view .LVU374
 1180 0030 019B     		ldr	r3, [sp, #4]
 1181              	.LBE14:
 159:Core/Src/freertos.c ****   HAL_UART_Receive_IT(&huart1, (uint8_t *)&bt_rx_byte, 1);
 1182              		.loc 1 159 3 view .LVU375
 160:Core/Src/freertos.c ****   /* USER CODE END RTOS_QUEUES */
 1183              		.loc 1 160 3 view .LVU376
 1184 0032 0122     		movs	r2, #1
 1185 0034 1049     		ldr	r1, .L75+16
 1186 0036 FFF7FEFF 		bl	HAL_UART_Receive_IT
 1187              	.LVL82:
 165:Core/Src/freertos.c **** 
 1188              		.loc 1 165 3 view .LVU377
 165:Core/Src/freertos.c **** 
 1189              		.loc 1 165 21 is_stmt 0 view .LVU378
 1190 003a 104A     		ldr	r2, .L75+20
 1191 003c 2146     		mov	r1, r4
 1192 003e 1048     		ldr	r0, .L75+24
 1193 0040 FFF7FEFF 		bl	osThreadNew
 1194              	.LVL83:
 165:Core/Src/freertos.c **** 
 1195              		.loc 1 165 19 discriminator 1 view .LVU379
 1196 0044 0F4B     		ldr	r3, .L75+28
 1197 0046 1860     		str	r0, [r3]
 168:Core/Src/freertos.c **** 
 1198              		.loc 1 168 3 is_stmt 1 view .LVU380
 168:Core/Src/freertos.c **** 
 1199              		.loc 1 168 22 is_stmt 0 view .LVU381
 1200 0048 0F4A     		ldr	r2, .L75+32
 1201 004a 2146     		mov	r1, r4
 1202 004c 0F48     		ldr	r0, .L75+36
 1203 004e FFF7FEFF 		bl	osThreadNew
 1204              	.LVL84:
 168:Core/Src/freertos.c **** 
 1205              		.loc 1 168 20 discriminator 1 view .LVU382
 1206 0052 0F4B     		ldr	r3, .L75+40
 1207 0054 1860     		str	r0, [r3]
 171:Core/Src/freertos.c **** 
 1208              		.loc 1 171 3 is_stmt 1 view .LVU383
 171:Core/Src/freertos.c **** 
 1209              		.loc 1 171 25 is_stmt 0 view .LVU384
 1210 0056 0F4A     		ldr	r2, .L75+44
 1211 0058 2146     		mov	r1, r4
 1212 005a 0F48     		ldr	r0, .L75+48
 1213 005c FFF7FEFF 		bl	osThreadNew
ARM GAS  C:\Users\user\AppData\Local\Temp\ccCOI405.s 			page 36


 1214              	.LVL85:
 171:Core/Src/freertos.c **** 
 1215              		.loc 1 171 23 discriminator 1 view .LVU385
 1216 0060 0E4B     		ldr	r3, .L75+52
 1217 0062 1860     		str	r0, [r3]
 181:Core/Src/freertos.c **** 
 1218              		.loc 1 181 1 view .LVU386
 1219 0064 02B0     		add	sp, sp, #8
 1220              	.LCFI8:
 1221              		.cfi_def_cfa_offset 8
 1222              		@ sp needed
 1223 0066 10BD     		pop	{r4, pc}
 1224              	.L76:
 1225              		.align	2
 1226              	.L75:
 1227 0068 00000000 		.word	uartQ_attributes
 1228 006c 00000000 		.word	uartQHandle
 1229 0070 00000000 		.word	driveQ
 1230 0074 00000000 		.word	huart1
 1231 0078 00000000 		.word	bt_rx_byte
 1232 007c 00000000 		.word	MotorTask_attributes
 1233 0080 00000000 		.word	StartDefaultTask
 1234 0084 00000000 		.word	MotorTaskHandle
 1235 0088 00000000 		.word	SensorTask_attributes
 1236 008c 00000000 		.word	StartTask02
 1237 0090 00000000 		.word	SensorTaskHandle
 1238 0094 00000000 		.word	BluetoothTask_attributes
 1239 0098 00000000 		.word	StartTask03
 1240 009c 00000000 		.word	BluetoothTaskHandle
 1241              		.cfi_endproc
 1242              	.LFE138:
 1244              		.section	.text.HAL_GPIO_EXTI_Callback,"ax",%progbits
 1245              		.align	1
 1246              		.global	HAL_GPIO_EXTI_Callback
 1247              		.syntax unified
 1248              		.thumb
 1249              		.thumb_func
 1251              	HAL_GPIO_EXTI_Callback:
 1252              	.LVL86:
 1253              	.LFB142:
 466:Core/Src/freertos.c **** 
 467:Core/Src/freertos.c ****       default:                                   /* лҜём •мқҳ л°”мқҙнҠё л¬ҙмӢң */
 468:Core/Src/freertos.c ****         break;
 469:Core/Src/freertos.c ****     }
 470:Core/Src/freertos.c ****   }
 471:Core/Src/freertos.c ****   /* USER CODE END StartTask03 */
 472:Core/Src/freertos.c **** }
 473:Core/Src/freertos.c **** 
 474:Core/Src/freertos.c **** /* Private application code --------------------------------------------------*/
 475:Core/Src/freertos.c **** /* USER CODE BEGIN Application */
 476:Core/Src/freertos.c **** 
 477:Core/Src/freertos.c **** /* BNO055 INT(PA0/EXTI0) мҪңл°ұ (кө¬ main.cм—җм„ң мқҙлҸҷ).
 478:Core/Src/freertos.c ****  * мЈјмқҳ: мңөн•© лҚ°мқҙн„°м—” м „мҡ© DRDY INTк°Җ м—ҶмқҢ вҶ’ headingмқҖ SensorTaskм—җм„ң polling.
 479:Core/Src/freertos.c ****  *       мқҙ мҪңл°ұмқҖ INT л°°м„  кІҖмҰқ/лӘЁм…ҳ(any-motion л“ұ) нҠёлҰ¬кұ°мҡ© м№ҙмҡҙн„°. */
 480:Core/Src/freertos.c **** void HAL_GPIO_EXTI_Callback(uint16_t GPIO_Pin)
 481:Core/Src/freertos.c **** {
 1254              		.loc 1 481 1 is_stmt 1 view -0
ARM GAS  C:\Users\user\AppData\Local\Temp\ccCOI405.s 			page 37


 1255              		.cfi_startproc
 1256              		@ args = 0, pretend = 0, frame = 0
 1257              		@ frame_needed = 0, uses_anonymous_args = 0
 1258              		@ link register save eliminated.
 482:Core/Src/freertos.c ****     if (GPIO_Pin == IMU_INT_Pin)
 1259              		.loc 1 482 5 view .LVU388
 1260              		.loc 1 482 8 is_stmt 0 view .LVU389
 1261 0000 0128     		cmp	r0, #1
 1262 0002 00D0     		beq	.L79
 1263              	.L77:
 483:Core/Src/freertos.c ****     {
 484:Core/Src/freertos.c ****         dbg.imu_evt++;
 485:Core/Src/freertos.c ****     }
 486:Core/Src/freertos.c **** }
 1264              		.loc 1 486 1 view .LVU390
 1265 0004 7047     		bx	lr
 1266              	.L79:
 484:Core/Src/freertos.c ****     }
 1267              		.loc 1 484 9 is_stmt 1 view .LVU391
 484:Core/Src/freertos.c ****     }
 1268              		.loc 1 484 12 is_stmt 0 view .LVU392
 1269 0006 024A     		ldr	r2, .L80
 1270 0008 136C     		ldr	r3, [r2, #64]
 484:Core/Src/freertos.c ****     }
 1271              		.loc 1 484 20 view .LVU393
 1272 000a 0133     		adds	r3, r3, #1
 1273 000c 1364     		str	r3, [r2, #64]
 1274              		.loc 1 486 1 view .LVU394
 1275 000e F9E7     		b	.L77
 1276              	.L81:
 1277              		.align	2
 1278              	.L80:
 1279 0010 00000000 		.word	dbg
 1280              		.cfi_endproc
 1281              	.LFE142:
 1283              		.section	.text.HAL_UART_RxCpltCallback,"ax",%progbits
 1284              		.align	1
 1285              		.global	HAL_UART_RxCpltCallback
 1286              		.syntax unified
 1287              		.thumb
 1288              		.thumb_func
 1290              	HAL_UART_RxCpltCallback:
 1291              	.LVL87:
 1292              	.LFB143:
 487:Core/Src/freertos.c **** 
 488:Core/Src/freertos.c **** /* лё”лЈЁнҲ¬мҠӨ UART(USART1) 1л°”мқҙнҠё мҲҳмӢ  мҷ„лЈҢ мҪңл°ұ (ISR л¬ёл§Ҙ).
 489:Core/Src/freertos.c ****  * мҲҳмӢ  л°”мқҙнҠёлҘј uartQлЎң л„ҳкё°кі  мҰүмӢң лӢӨмқҢ 1л°”мқҙнҠё IT мһ¬л¬ҙмһҘ вҶ’ м—°мҶҚ мҲҳмӢ .
 490:Core/Src/freertos.c ****  * osMessageQueuePut timeout 0 = ISR м•Ҳм „(xQueueSendFromISR). нҒҗ к°Җл“қ мӢң л°”мқҙнҠёлҠ”
 491:Core/Src/freertos.c ****  * лІ„л ӨлҸ„ мһ¬л¬ҙмһҘмқҖ л¬ҙмЎ°кұҙ мҲҳн–үн•ҙ мҲҳмӢ мқҙ л©Һм§Җ м•ҠкІҢ н•Ё */
 492:Core/Src/freertos.c **** void HAL_UART_RxCpltCallback(UART_HandleTypeDef *huart)
 493:Core/Src/freertos.c **** {
 1293              		.loc 1 493 1 is_stmt 1 view -0
 1294              		.cfi_startproc
 1295              		@ args = 0, pretend = 0, frame = 0
 1296              		@ frame_needed = 0, uses_anonymous_args = 0
 494:Core/Src/freertos.c ****     if (huart->Instance == USART1)
 1297              		.loc 1 494 5 view .LVU396
ARM GAS  C:\Users\user\AppData\Local\Temp\ccCOI405.s 			page 38


 1298              		.loc 1 494 14 is_stmt 0 view .LVU397
 1299 0000 0268     		ldr	r2, [r0]
 1300              		.loc 1 494 8 view .LVU398
 1301 0002 094B     		ldr	r3, .L89
 1302 0004 9A42     		cmp	r2, r3
 1303 0006 00D0     		beq	.L88
 1304 0008 7047     		bx	lr
 1305              	.L88:
 493:Core/Src/freertos.c ****     if (huart->Instance == USART1)
 1306              		.loc 1 493 1 view .LVU399
 1307 000a 10B5     		push	{r4, lr}
 1308              	.LCFI9:
 1309              		.cfi_def_cfa_offset 8
 1310              		.cfi_offset 4, -8
 1311              		.cfi_offset 14, -4
 495:Core/Src/freertos.c ****     {
 496:Core/Src/freertos.c ****         (void)osMessageQueuePut(uartQHandle, (const void *)&bt_rx_byte, 0U, 0U);
 1312              		.loc 1 496 9 is_stmt 1 view .LVU400
 1313              		.loc 1 496 15 is_stmt 0 view .LVU401
 1314 000c 074C     		ldr	r4, .L89+4
 1315 000e 0023     		movs	r3, #0
 1316 0010 1A46     		mov	r2, r3
 1317 0012 2146     		mov	r1, r4
 1318 0014 0648     		ldr	r0, .L89+8
 1319              	.LVL88:
 1320              		.loc 1 496 15 view .LVU402
 1321 0016 0068     		ldr	r0, [r0]
 1322 0018 FFF7FEFF 		bl	osMessageQueuePut
 1323              	.LVL89:
 497:Core/Src/freertos.c ****         HAL_UART_Receive_IT(&huart1, (uint8_t *)&bt_rx_byte, 1);
 1324              		.loc 1 497 9 is_stmt 1 view .LVU403
 1325 001c 0122     		movs	r2, #1
 1326 001e 2146     		mov	r1, r4
 1327 0020 0448     		ldr	r0, .L89+12
 1328 0022 FFF7FEFF 		bl	HAL_UART_Receive_IT
 1329              	.LVL90:
 498:Core/Src/freertos.c ****     }
 499:Core/Src/freertos.c **** }
 1330              		.loc 1 499 1 is_stmt 0 view .LVU404
 1331 0026 10BD     		pop	{r4, pc}
 1332              	.L90:
 1333              		.align	2
 1334              	.L89:
 1335 0028 00100140 		.word	1073811456
 1336 002c 00000000 		.word	bt_rx_byte
 1337 0030 00000000 		.word	uartQHandle
 1338 0034 00000000 		.word	huart1
 1339              		.cfi_endproc
 1340              	.LFE143:
 1342              		.section	.text.HAL_UART_ErrorCallback,"ax",%progbits
 1343              		.align	1
 1344              		.global	HAL_UART_ErrorCallback
 1345              		.syntax unified
 1346              		.thumb
 1347              		.thumb_func
 1349              	HAL_UART_ErrorCallback:
 1350              	.LVL91:
ARM GAS  C:\Users\user\AppData\Local\Temp\ccCOI405.s 			page 39


 1351              	.LFB144:
 500:Core/Src/freertos.c **** 
 501:Core/Src/freertos.c **** /* лё”лЈЁнҲ¬мҠӨ UART(USART1) м—җлҹ¬ мҪңл°ұ (ISR л¬ёл§Ҙ).
 502:Core/Src/freertos.c ****  * HALмқҖ ORE(overrun)/FE(framing)/NE(noise) л°ңмғқ мӢң мҲҳмӢ мқ„ мӨ‘лӢЁн•ҳкі  state=READYлЎң л‘” л
 503:Core/Src/freertos.c ****  * мқҙ мҪңл°ұл§Ң нҳём¶ң вҶ’ м—¬кё°м„ң мһ¬л¬ҙмһҘн•ҳм§Җ м•Ҡмңјл©ҙ мҲҳмӢ мқҙ мҳҒкө¬ м •м§Җ(лҰ¬м…Ӣ м „к
 504:Core/Src/freertos.c ****  * лӘЁн„° кө¬лҸҷ м „лҘҳлЎң мқён•ң 5V лёҢлқјмҡҙм•„мӣғ/лқјмқё л…ёмқҙмҰҲлЎң л°”мқҙнҠёк°Җ к№Ём§Ҳ л•Ңк°Җ
 505:Core/Src/freertos.c ****  * м—җлҹ¬ н”Ңлһҳк·ё нҒҙлҰ¬м–ҙ нӣ„ 1л°”мқҙнҠё ITлҘј лӢӨмӢң л¬ҙмһҘн•ҙ мҲҳмӢ мқҙ мҠӨмҠӨлЎң ліөкө¬лҗҳкІ
 506:Core/Src/freertos.c ****  * (RxCpltCallbackмқҳ "л¬ҙмЎ°кұҙ мһ¬л¬ҙмһҘ" нҢЁн„ҙкіј мқјкҙҖ). dbg.bt_err = SWD кҙҖм°°мҡ© м№ҙмҡҙн„°
 507:Core/Src/freertos.c **** void HAL_UART_ErrorCallback(UART_HandleTypeDef *huart)
 508:Core/Src/freertos.c **** {
 1352              		.loc 1 508 1 is_stmt 1 view -0
 1353              		.cfi_startproc
 1354              		@ args = 0, pretend = 0, frame = 16
 1355              		@ frame_needed = 0, uses_anonymous_args = 0
 509:Core/Src/freertos.c ****     if (huart->Instance == USART1)
 1356              		.loc 1 509 5 view .LVU406
 1357              		.loc 1 509 14 is_stmt 0 view .LVU407
 1358 0000 0268     		ldr	r2, [r0]
 1359              		.loc 1 509 8 view .LVU408
 1360 0002 164B     		ldr	r3, .L98
 1361 0004 9A42     		cmp	r2, r3
 1362 0006 00D0     		beq	.L97
 1363 0008 7047     		bx	lr
 1364              	.L97:
 508:Core/Src/freertos.c ****     if (huart->Instance == USART1)
 1365              		.loc 1 508 1 view .LVU409
 1366 000a 00B5     		push	{lr}
 1367              	.LCFI10:
 1368              		.cfi_def_cfa_offset 4
 1369              		.cfi_offset 14, -4
 1370 000c 85B0     		sub	sp, sp, #20
 1371              	.LCFI11:
 1372              		.cfi_def_cfa_offset 24
 510:Core/Src/freertos.c ****     {
 511:Core/Src/freertos.c ****         dbg.bt_err++;
 1373              		.loc 1 511 9 is_stmt 1 view .LVU410
 1374              		.loc 1 511 12 is_stmt 0 view .LVU411
 1375 000e 144A     		ldr	r2, .L98+4
 1376 0010 536D     		ldr	r3, [r2, #84]
 1377              		.loc 1 511 19 view .LVU412
 1378 0012 0133     		adds	r3, r3, #1
 1379 0014 5365     		str	r3, [r2, #84]
 512:Core/Src/freertos.c ****         __HAL_UART_CLEAR_OREFLAG(&huart1);   /* SR read + DR readлЎң ORE н•ҙм ң */
 1380              		.loc 1 512 9 is_stmt 1 view .LVU413
 1381              	.LBB15:
 1382              		.loc 1 512 9 view .LVU414
 1383 0016 0022     		movs	r2, #0
 1384 0018 0092     		str	r2, [sp]
 1385              		.loc 1 512 9 view .LVU415
 1386 001a 1248     		ldr	r0, .L98+8
 1387              	.LVL92:
 1388              		.loc 1 512 9 is_stmt 0 view .LVU416
 1389 001c 0368     		ldr	r3, [r0]
 1390 001e 1968     		ldr	r1, [r3]
 1391 0020 0091     		str	r1, [sp]
 1392              		.loc 1 512 9 is_stmt 1 view .LVU417
 1393 0022 5968     		ldr	r1, [r3, #4]
ARM GAS  C:\Users\user\AppData\Local\Temp\ccCOI405.s 			page 40


 1394 0024 0091     		str	r1, [sp]
 1395              		.loc 1 512 9 view .LVU418
 1396 0026 0099     		ldr	r1, [sp]
 1397              	.LBE15:
 1398              		.loc 1 512 9 view .LVU419
 513:Core/Src/freertos.c ****         __HAL_UART_CLEAR_NEFLAG(&huart1);
 1399              		.loc 1 513 9 view .LVU420
 1400              	.LBB16:
 1401              		.loc 1 513 9 view .LVU421
 1402 0028 0192     		str	r2, [sp, #4]
 1403              		.loc 1 513 9 view .LVU422
 1404 002a 1968     		ldr	r1, [r3]
 1405 002c 0191     		str	r1, [sp, #4]
 1406              		.loc 1 513 9 view .LVU423
 1407 002e 5968     		ldr	r1, [r3, #4]
 1408 0030 0191     		str	r1, [sp, #4]
 1409              		.loc 1 513 9 view .LVU424
 1410 0032 0199     		ldr	r1, [sp, #4]
 1411              	.LBE16:
 1412              		.loc 1 513 9 view .LVU425
 514:Core/Src/freertos.c ****         __HAL_UART_CLEAR_FEFLAG(&huart1);
 1413              		.loc 1 514 9 view .LVU426
 1414              	.LBB17:
 1415              		.loc 1 514 9 view .LVU427
 1416 0034 0292     		str	r2, [sp, #8]
 1417              		.loc 1 514 9 view .LVU428
 1418 0036 1968     		ldr	r1, [r3]
 1419 0038 0291     		str	r1, [sp, #8]
 1420              		.loc 1 514 9 view .LVU429
 1421 003a 5968     		ldr	r1, [r3, #4]
 1422 003c 0291     		str	r1, [sp, #8]
 1423              		.loc 1 514 9 view .LVU430
 1424 003e 0299     		ldr	r1, [sp, #8]
 1425              	.LBE17:
 1426              		.loc 1 514 9 view .LVU431
 515:Core/Src/freertos.c ****         __HAL_UART_CLEAR_PEFLAG(&huart1);
 1427              		.loc 1 515 9 view .LVU432
 1428              	.LBB18:
 1429              		.loc 1 515 9 view .LVU433
 1430 0040 0392     		str	r2, [sp, #12]
 1431              		.loc 1 515 9 view .LVU434
 1432 0042 1968     		ldr	r1, [r3]
 1433 0044 0391     		str	r1, [sp, #12]
 1434              		.loc 1 515 9 view .LVU435
 1435 0046 5B68     		ldr	r3, [r3, #4]
 1436 0048 0393     		str	r3, [sp, #12]
 1437              		.loc 1 515 9 view .LVU436
 1438 004a 039B     		ldr	r3, [sp, #12]
 1439              	.LBE18:
 1440              		.loc 1 515 9 view .LVU437
 516:Core/Src/freertos.c ****         huart1.ErrorCode = HAL_UART_ERROR_NONE;
 1441              		.loc 1 516 9 view .LVU438
 1442              		.loc 1 516 26 is_stmt 0 view .LVU439
 1443 004c 4264     		str	r2, [r0, #68]
 517:Core/Src/freertos.c ****         HAL_UART_Receive_IT(&huart1, (uint8_t *)&bt_rx_byte, 1);
 1444              		.loc 1 517 9 is_stmt 1 view .LVU440
 1445 004e 0122     		movs	r2, #1
ARM GAS  C:\Users\user\AppData\Local\Temp\ccCOI405.s 			page 41


 1446 0050 0549     		ldr	r1, .L98+12
 1447 0052 FFF7FEFF 		bl	HAL_UART_Receive_IT
 1448              	.LVL93:
 518:Core/Src/freertos.c ****     }
 519:Core/Src/freertos.c **** }
 1449              		.loc 1 519 1 is_stmt 0 view .LVU441
 1450 0056 05B0     		add	sp, sp, #20
 1451              	.LCFI12:
 1452              		.cfi_def_cfa_offset 4
 1453              		@ sp needed
 1454 0058 00BD     		pop	{pc}
 1455              	.L99:
 1456 005a 00BF     		.align	2
 1457              	.L98:
 1458 005c 00100140 		.word	1073811456
 1459 0060 00000000 		.word	dbg
 1460 0064 00000000 		.word	huart1
 1461 0068 00000000 		.word	bt_rx_byte
 1462              		.cfi_endproc
 1463              	.LFE144:
 1465              		.section	.bss.t_calib.0,"aw",%nobits
 1466              		.align	2
 1469              	t_calib.0:
 1470 0000 00000000 		.space	4
 1471              		.section	.bss.t_imu_retry.1,"aw",%nobits
 1472              		.align	2
 1475              	t_imu_retry.1:
 1476 0000 00000000 		.space	4
 1477              		.section	.bss.imu_fail.2,"aw",%nobits
 1480              	imu_fail.2:
 1481 0000 00       		.space	1
 1482              		.section	.bss.side_miss.3,"aw",%nobits
 1483              		.align	2
 1486              	side_miss.3:
 1487 0000 000000   		.space	3
 1488              		.section	.bss.imu.4,"aw",%nobits
 1489              		.align	2
 1492              	imu.4:
 1493 0000 00000000 		.space	12
 1493      00000000 
 1493      00000000 
 1494              		.section	.bss.front_miss.5,"aw",%nobits
 1497              	front_miss.5:
 1498 0000 00       		.space	1
 1499              		.section	.bss.t_loop.6,"aw",%nobits
 1500              		.align	2
 1503              	t_loop.6:
 1504 0000 00000000 		.space	4
 1505              		.section	.bss.imu_live.7,"aw",%nobits
 1508              	imu_live.7:
 1509 0000 00       		.space	1
 1510              		.section	.bss.hist.8,"aw",%nobits
 1511              		.align	2
 1514              	hist.8:
 1515 0000 00000000 		.space	18
 1515      00000000 
 1515      00000000 
ARM GAS  C:\Users\user\AppData\Local\Temp\ccCOI405.s 			page 42


 1515      00000000 
 1515      0000
 1516              		.global	uartQ_attributes
 1517              		.section	.rodata.str1.4,"aMS",%progbits,1
 1518              		.align	2
 1519              	.LC0:
 1520 0000 75617274 		.ascii	"uartQ\000"
 1520      5100
 1521              		.section	.rodata.uartQ_attributes,"a"
 1522              		.align	2
 1525              	uartQ_attributes:
 1526 0000 00000000 		.word	.LC0
 1527 0004 00000000 		.space	20
 1527      00000000 
 1527      00000000 
 1527      00000000 
 1527      00000000 
 1528              		.global	uartQHandle
 1529              		.section	.bss.uartQHandle,"aw",%nobits
 1530              		.align	2
 1533              	uartQHandle:
 1534 0000 00000000 		.space	4
 1535              		.global	BluetoothTask_attributes
 1536              		.section	.rodata.str1.4
 1537 0006 0000     		.align	2
 1538              	.LC1:
 1539 0008 426C7565 		.ascii	"BluetoothTask\000"
 1539      746F6F74 
 1539      68546173 
 1539      6B00
 1540              		.section	.rodata.BluetoothTask_attributes,"a"
 1541              		.align	2
 1544              	BluetoothTask_attributes:
 1545 0000 08000000 		.word	.LC1
 1546 0004 00000000 		.space	16
 1546      00000000 
 1546      00000000 
 1546      00000000 
 1547 0014 00040000 		.word	1024
 1548 0018 08000000 		.word	8
 1549 001c 00000000 		.space	8
 1549      00000000 
 1550              		.global	BluetoothTaskHandle
 1551              		.section	.bss.BluetoothTaskHandle,"aw",%nobits
 1552              		.align	2
 1555              	BluetoothTaskHandle:
 1556 0000 00000000 		.space	4
 1557              		.global	SensorTask_attributes
 1558              		.section	.rodata.str1.4
 1559 0016 0000     		.align	2
 1560              	.LC2:
 1561 0018 53656E73 		.ascii	"SensorTask\000"
 1561      6F725461 
 1561      736B00
 1562              		.section	.rodata.SensorTask_attributes,"a"
 1563              		.align	2
 1566              	SensorTask_attributes:
ARM GAS  C:\Users\user\AppData\Local\Temp\ccCOI405.s 			page 43


 1567 0000 18000000 		.word	.LC2
 1568 0004 00000000 		.space	16
 1568      00000000 
 1568      00000000 
 1568      00000000 
 1569 0014 00040000 		.word	1024
 1570 0018 08000000 		.word	8
 1571 001c 00000000 		.space	8
 1571      00000000 
 1572              		.global	SensorTaskHandle
 1573              		.section	.bss.SensorTaskHandle,"aw",%nobits
 1574              		.align	2
 1577              	SensorTaskHandle:
 1578 0000 00000000 		.space	4
 1579              		.global	MotorTask_attributes
 1580              		.section	.rodata.str1.4
 1581 0023 00       		.align	2
 1582              	.LC3:
 1583 0024 4D6F746F 		.ascii	"MotorTask\000"
 1583      72546173 
 1583      6B00
 1584              		.section	.rodata.MotorTask_attributes,"a"
 1585              		.align	2
 1588              	MotorTask_attributes:
 1589 0000 24000000 		.word	.LC3
 1590 0004 00000000 		.space	16
 1590      00000000 
 1590      00000000 
 1590      00000000 
 1591 0014 00040000 		.word	1024
 1592 0018 18000000 		.word	24
 1593 001c 00000000 		.space	8
 1593      00000000 
 1594              		.global	MotorTaskHandle
 1595              		.section	.bss.MotorTaskHandle,"aw",%nobits
 1596              		.align	2
 1599              	MotorTaskHandle:
 1600 0000 00000000 		.space	4
 1601              		.global	bt_rx_byte
 1602              		.section	.bss.bt_rx_byte,"aw",%nobits
 1605              	bt_rx_byte:
 1606 0000 00       		.space	1
 1607              		.global	manual_right
 1608              		.section	.bss.manual_right,"aw",%nobits
 1611              	manual_right:
 1612 0000 00       		.space	1
 1613              		.global	manual_left
 1614              		.section	.bss.manual_left,"aw",%nobits
 1617              	manual_left:
 1618 0000 00       		.space	1
 1619              		.global	sys_mode
 1620              		.section	.bss.sys_mode,"aw",%nobits
 1623              	sys_mode:
 1624 0000 00       		.space	1
 1625              		.global	sys_power
 1626              		.section	.bss.sys_power,"aw",%nobits
 1629              	sys_power:
ARM GAS  C:\Users\user\AppData\Local\Temp\ccCOI405.s 			page 44


 1630 0000 00       		.space	1
 1631              		.section	.bss.driveQ,"aw",%nobits
 1632              		.align	2
 1635              	driveQ:
 1636 0000 00000000 		.space	4
 1637              		.text
 1638              	.Letext0:
 1639              		.file 2 "C:\\ST\\STM32CubeIDE_2.1.0\\STM32CubeIDE\\plugins\\com.st.stm32cube.ide.mcu.externaltools
 1640              		.file 3 "C:\\ST\\STM32CubeIDE_2.1.0\\STM32CubeIDE\\plugins\\com.st.stm32cube.ide.mcu.externaltools
 1641              		.file 4 "Middlewares/Third_Party/FreeRTOS/Source/portable/GCC/ARM_CM4F/portmacro.h"
 1642              		.file 5 "Middlewares/Third_Party/FreeRTOS/Source/include/task.h"
 1643              		.file 6 "Drivers/CMSIS/Device/ST/STM32F4xx/Include/stm32f411xe.h"
 1644              		.file 7 "Drivers/STM32F4xx_HAL_Driver/Inc/stm32f4xx_hal_def.h"
 1645              		.file 8 "Drivers/STM32F4xx_HAL_Driver/Inc/stm32f4xx_hal_dma.h"
 1646              		.file 9 "Drivers/STM32F4xx_HAL_Driver/Inc/stm32f4xx_hal_iwdg.h"
 1647              		.file 10 "Drivers/STM32F4xx_HAL_Driver/Inc/stm32f4xx_hal_uart.h"
 1648              		.file 11 "Middlewares/Third_Party/FreeRTOS/Source/CMSIS_RTOS_V2/cmsis_os2.h"
 1649              		.file 12 "Core/Inc/drive.h"
 1650              		.file 13 "Core/Inc/debug.h"
 1651              		.file 14 "Core/Inc/bno055.h"
 1652              		.file 15 "Core/Inc/iwdg.h"
 1653              		.file 16 "Core/Inc/usart.h"
 1654              		.file 17 "Core/Inc/ultra.h"
 1655              		.file 18 "Drivers/STM32F4xx_HAL_Driver/Inc/stm32f4xx_hal.h"
 1656              		.file 19 "Core/Inc/motor.h"
ARM GAS  C:\Users\user\AppData\Local\Temp\ccCOI405.s 			page 45


DEFINED SYMBOLS
                            *ABS*:00000000 freertos.c
C:\Users\user\AppData\Local\Temp\ccCOI405.s:21     .text.StartTask03:00000000 $t
C:\Users\user\AppData\Local\Temp\ccCOI405.s:27     .text.StartTask03:00000000 StartTask03
C:\Users\user\AppData\Local\Temp\ccCOI405.s:77     .text.StartTask03:00000034 $d
C:\Users\user\AppData\Local\Temp\ccCOI405.s:115    .text.StartTask03:000000cc $t
C:\Users\user\AppData\Local\Temp\ccCOI405.s:261    .text.StartTask03:00000170 $d
C:\Users\user\AppData\Local\Temp\ccCOI405.s:1629   .bss.sys_power:00000000 sys_power
C:\Users\user\AppData\Local\Temp\ccCOI405.s:1533   .bss.uartQHandle:00000000 uartQHandle
C:\Users\user\AppData\Local\Temp\ccCOI405.s:1617   .bss.manual_left:00000000 manual_left
C:\Users\user\AppData\Local\Temp\ccCOI405.s:1611   .bss.manual_right:00000000 manual_right
C:\Users\user\AppData\Local\Temp\ccCOI405.s:1623   .bss.sys_mode:00000000 sys_mode
C:\Users\user\AppData\Local\Temp\ccCOI405.s:270    .text.StartDefaultTask:00000000 $t
C:\Users\user\AppData\Local\Temp\ccCOI405.s:276    .text.StartDefaultTask:00000000 StartDefaultTask
C:\Users\user\AppData\Local\Temp\ccCOI405.s:404    .text.StartDefaultTask:0000007c $d
C:\Users\user\AppData\Local\Temp\ccCOI405.s:1635   .bss.driveQ:00000000 driveQ
C:\Users\user\AppData\Local\Temp\ccCOI405.s:415    .text.StartTask02:00000000 $t
C:\Users\user\AppData\Local\Temp\ccCOI405.s:421    .text.StartTask02:00000000 StartTask02
C:\Users\user\AppData\Local\Temp\ccCOI405.s:1051   .text.StartTask02:000002ac $d
C:\Users\user\AppData\Local\Temp\ccCOI405.s:1514   .bss.hist.8:00000000 hist.8
C:\Users\user\AppData\Local\Temp\ccCOI405.s:1508   .bss.imu_live.7:00000000 imu_live.7
C:\Users\user\AppData\Local\Temp\ccCOI405.s:1497   .bss.front_miss.5:00000000 front_miss.5
C:\Users\user\AppData\Local\Temp\ccCOI405.s:1492   .bss.imu.4:00000000 imu.4
C:\Users\user\AppData\Local\Temp\ccCOI405.s:1486   .bss.side_miss.3:00000000 side_miss.3
C:\Users\user\AppData\Local\Temp\ccCOI405.s:1475   .bss.t_imu_retry.1:00000000 t_imu_retry.1
C:\Users\user\AppData\Local\Temp\ccCOI405.s:1503   .bss.t_loop.6:00000000 t_loop.6
C:\Users\user\AppData\Local\Temp\ccCOI405.s:1480   .bss.imu_fail.2:00000000 imu_fail.2
C:\Users\user\AppData\Local\Temp\ccCOI405.s:1469   .bss.t_calib.0:00000000 t_calib.0
C:\Users\user\AppData\Local\Temp\ccCOI405.s:1067   .text.StartTask02:000002dc $t
C:\Users\user\AppData\Local\Temp\ccCOI405.s:1116   .text.StartTask02:00000310 $d
C:\Users\user\AppData\Local\Temp\ccCOI405.s:1126   .text.MX_FREERTOS_Init:00000000 $t
C:\Users\user\AppData\Local\Temp\ccCOI405.s:1132   .text.MX_FREERTOS_Init:00000000 MX_FREERTOS_Init
C:\Users\user\AppData\Local\Temp\ccCOI405.s:1227   .text.MX_FREERTOS_Init:00000068 $d
C:\Users\user\AppData\Local\Temp\ccCOI405.s:1525   .rodata.uartQ_attributes:00000000 uartQ_attributes
C:\Users\user\AppData\Local\Temp\ccCOI405.s:1605   .bss.bt_rx_byte:00000000 bt_rx_byte
C:\Users\user\AppData\Local\Temp\ccCOI405.s:1588   .rodata.MotorTask_attributes:00000000 MotorTask_attributes
C:\Users\user\AppData\Local\Temp\ccCOI405.s:1599   .bss.MotorTaskHandle:00000000 MotorTaskHandle
C:\Users\user\AppData\Local\Temp\ccCOI405.s:1566   .rodata.SensorTask_attributes:00000000 SensorTask_attributes
C:\Users\user\AppData\Local\Temp\ccCOI405.s:1577   .bss.SensorTaskHandle:00000000 SensorTaskHandle
C:\Users\user\AppData\Local\Temp\ccCOI405.s:1544   .rodata.BluetoothTask_attributes:00000000 BluetoothTask_attributes
C:\Users\user\AppData\Local\Temp\ccCOI405.s:1555   .bss.BluetoothTaskHandle:00000000 BluetoothTaskHandle
C:\Users\user\AppData\Local\Temp\ccCOI405.s:1245   .text.HAL_GPIO_EXTI_Callback:00000000 $t
C:\Users\user\AppData\Local\Temp\ccCOI405.s:1251   .text.HAL_GPIO_EXTI_Callback:00000000 HAL_GPIO_EXTI_Callback
C:\Users\user\AppData\Local\Temp\ccCOI405.s:1279   .text.HAL_GPIO_EXTI_Callback:00000010 $d
C:\Users\user\AppData\Local\Temp\ccCOI405.s:1284   .text.HAL_UART_RxCpltCallback:00000000 $t
C:\Users\user\AppData\Local\Temp\ccCOI405.s:1290   .text.HAL_UART_RxCpltCallback:00000000 HAL_UART_RxCpltCallback
C:\Users\user\AppData\Local\Temp\ccCOI405.s:1335   .text.HAL_UART_RxCpltCallback:00000028 $d
C:\Users\user\AppData\Local\Temp\ccCOI405.s:1343   .text.HAL_UART_ErrorCallback:00000000 $t
C:\Users\user\AppData\Local\Temp\ccCOI405.s:1349   .text.HAL_UART_ErrorCallback:00000000 HAL_UART_ErrorCallback
C:\Users\user\AppData\Local\Temp\ccCOI405.s:1458   .text.HAL_UART_ErrorCallback:0000005c $d
C:\Users\user\AppData\Local\Temp\ccCOI405.s:1466   .bss.t_calib.0:00000000 $d
C:\Users\user\AppData\Local\Temp\ccCOI405.s:1472   .bss.t_imu_retry.1:00000000 $d
C:\Users\user\AppData\Local\Temp\ccCOI405.s:1481   .bss.imu_fail.2:00000000 $d
C:\Users\user\AppData\Local\Temp\ccCOI405.s:1483   .bss.side_miss.3:00000000 $d
C:\Users\user\AppData\Local\Temp\ccCOI405.s:1489   .bss.imu.4:00000000 $d
C:\Users\user\AppData\Local\Temp\ccCOI405.s:1498   .bss.front_miss.5:00000000 $d
C:\Users\user\AppData\Local\Temp\ccCOI405.s:1500   .bss.t_loop.6:00000000 $d
ARM GAS  C:\Users\user\AppData\Local\Temp\ccCOI405.s 			page 46


C:\Users\user\AppData\Local\Temp\ccCOI405.s:1509   .bss.imu_live.7:00000000 $d
C:\Users\user\AppData\Local\Temp\ccCOI405.s:1511   .bss.hist.8:00000000 $d
C:\Users\user\AppData\Local\Temp\ccCOI405.s:1518   .rodata.str1.4:00000000 $d
C:\Users\user\AppData\Local\Temp\ccCOI405.s:1522   .rodata.uartQ_attributes:00000000 $d
C:\Users\user\AppData\Local\Temp\ccCOI405.s:1530   .bss.uartQHandle:00000000 $d
C:\Users\user\AppData\Local\Temp\ccCOI405.s:1541   .rodata.BluetoothTask_attributes:00000000 $d
C:\Users\user\AppData\Local\Temp\ccCOI405.s:1552   .bss.BluetoothTaskHandle:00000000 $d
C:\Users\user\AppData\Local\Temp\ccCOI405.s:1563   .rodata.SensorTask_attributes:00000000 $d
C:\Users\user\AppData\Local\Temp\ccCOI405.s:1574   .bss.SensorTaskHandle:00000000 $d
C:\Users\user\AppData\Local\Temp\ccCOI405.s:1585   .rodata.MotorTask_attributes:00000000 $d
C:\Users\user\AppData\Local\Temp\ccCOI405.s:1596   .bss.MotorTaskHandle:00000000 $d
C:\Users\user\AppData\Local\Temp\ccCOI405.s:1606   .bss.bt_rx_byte:00000000 $d
C:\Users\user\AppData\Local\Temp\ccCOI405.s:1612   .bss.manual_right:00000000 $d
C:\Users\user\AppData\Local\Temp\ccCOI405.s:1618   .bss.manual_left:00000000 $d
C:\Users\user\AppData\Local\Temp\ccCOI405.s:1624   .bss.sys_mode:00000000 $d
C:\Users\user\AppData\Local\Temp\ccCOI405.s:1630   .bss.sys_power:00000000 $d
C:\Users\user\AppData\Local\Temp\ccCOI405.s:1632   .bss.driveQ:00000000 $d
                           .group:00000000 wm4.0.3e3bd4fae48ed4285b9fe9ad79008a8e
                           .group:00000000 wm4.stddef.h.39.811583f327f35b0df7808fda70b062a0
                           .group:00000000 wm4._newlib_version.h.4.0eb654b64686e2bd29646258853f6c22
                           .group:00000000 wm4.features.h.33.d554620bb17bd3b714c3fb5c268772bc
                           .group:00000000 wm4._default_types.h.15.247e5cd201eca3442cbf5404108c4935
                           .group:00000000 wm4._intsup.h.10.48bafbb683905c4daa4565a85aeeb264
                           .group:00000000 wm4._stdint.h.10.c24fa3af3bc1706662bb5593a907e841
                           .group:00000000 wm4.stdint.h.23.d53047a68f4a85177f80b422d52785ed
                           .group:00000000 wm4.FreeRTOSConfig.h.32.6bbd733e8d202634418384a7607bb54f
                           .group:00000000 wm4.projdefs.h.29.3472c8470d131a5f474bc7437ea94609
                           .group:00000000 wm4.portmacro.h.30.ebb5f3ce711e1dad21b3172c9bc8e19f
                           .group:00000000 wm4.portable.h.64.742f2ce568820e866a7b541b4c77966f
                           .group:00000000 wm4.mpu_wrappers.h.29.4f9aea82ee68d943d141825e5294de63
                           .group:00000000 wm4.newlib.h.7.decd5b9657e2c5df625d9eac6e10520c
                           .group:00000000 wm4.ieeefp.h.77.61a77db5804869b1dadd307a77cf78c9
                           .group:00000000 wm4.config.h.224.10ee1ad185d877c6e334e6581faab44d
                           .group:00000000 wm4._ansi.h.31.de524f58584151836e90d8620a16f8e8
                           .group:00000000 wm4.cdefs.h.49.56fd742369e655e7e8a7e365e706e208
                           .group:00000000 wm4._types.h.20.dd0d04dca3800a0d2a6129b87f3adbb2
                           .group:00000000 wm4.stddef.h.173.4903093a50a8482cb062b176ea61fac3
                           .group:00000000 wm4._types.h.127.3bdfe3ff8ea2d0985b03d9cbe93480e3
                           .group:00000000 wm4.reent.h.18.25503cdc8b7e55dd0d6ea7b3e5af7a03
                           .group:00000000 wm4.lock.h.2.1461d1fff82dffe8bfddc23307f6484f
                           .group:00000000 wm4.reent.h.78.6d702f69a6d6435d2dbe915b10150b1a
                           .group:00000000 wm4.reent.h.96.88022c5a22979c33a20a5d76964119ed
                           .group:00000000 wm4.stddef.h.173.1cea4f16a943c8e875db6791959c3141
                           .group:00000000 wm4.FreeRTOS.h.136.a17c2bf78722c1d7b86ba8d45e5b5f29
                           .group:00000000 wm4.list.h.61.5c5a38f6bc6687eed6d893e57dabd8e6
                           .group:00000000 wm4.task.h.46.9fb92b2c1a30a52e436f6063552b709b
                           .group:00000000 wm4.stm32f4xx_hal_conf.h.25.0e66e2bdd1e693edb8cfdc624d1a6bd4
                           .group:00000000 wm4.stm32f4xx.h.38.63e3ea23bd63a94457417730025259b6
                           .group:00000000 wm4.stm32f411xe.h.34.f2908321cbbda12187706c23063bbc28
                           .group:00000000 wm4.cmsis_version.h.32.0ac195c83bb4537824e6ad1c47474b79
                           .group:00000000 wm4.core_cm4.h.66.e4ff136c4a17abc46741866f64f8e729
                           .group:00000000 wm4.cmsis_gcc.h.26.498d0ad17a45fc9ef20fdc01caf02259
                           .group:00000000 wm4.core_cm4.h.174.62be9b4588d49bed18171771001331df
                           .group:00000000 wm4.mpu_armv7.h.32.83326921a797fa9d6f70449916b4b839
                           .group:00000000 wm4.stm32f411xe.h.636.37cf950cfbbaac9e193dbe2b79c3e749
                           .group:00000000 wm4.stm32f4xx.h.195.a4b8bf80f37cc96981498656ffe5f588
                           .group:00000000 wm4.stm32_hal_legacy.h.22.8b7d303dc46a0b7ac6d3edf19ce2608d
ARM GAS  C:\Users\user\AppData\Local\Temp\ccCOI405.s 			page 47


                           .group:00000000 wm4.stm32f4xx_hal_def.h.58.54e2b30db63e8e74c562662f8beb243e
                           .group:00000000 wm4.stm32f4xx_hal_rcc_ex.h.20.6bc7ed2ae7969e22afc815a811faa8ee
                           .group:00000000 wm4.stm32f4xx_hal_rcc.h.106.0887cf5d985ae88e345b0aed0ceb4729
                           .group:00000000 wm4.stm32f4xx_hal_gpio.h.21.22da6a14b6049d6ac156577be74df1d7
                           .group:00000000 wm4.stm32f4xx_hal_gpio_ex.h.21.985b1076fbcb2c3eb806d02fd771d120
                           .group:00000000 wm4.stm32f4xx_hal_gpio.h.254.d7e07832f748fe8bcb575db0b8373592
                           .group:00000000 wm4.stm32f4xx_hal_exti.h.21.2ccac119fb1c64adeb682c3dcad90241
                           .group:00000000 wm4.stm32f4xx_hal_dma.h.21.8e4b1421c914345c23be719e5e528779
                           .group:00000000 wm4.stm32f4xx_hal_dma.h.720.ac2d7eef74792e4026acc4d2923c5da4
                           .group:00000000 wm4.stm32f4xx_hal_cortex.h.20.03673e4f79386680bf73ba399c19306b
                           .group:00000000 wm4.stm32f4xx_hal_flash.h.20.2f1e0d1b7010b3a81a7980aaf712e7e5
                           .group:00000000 wm4.stm32f4xx_hal_flash_ex.h.20.2abe4a01ce8028804a922735defa62fd
                           .group:00000000 wm4.stm32f4xx_hal_flash.h.361.23bc19b9eac79b0956d913651841ede8
                           .group:00000000 wm4.stm32f4xx_hal_i2c.h.21.147e96a27b1f7b1f2f8ee22132703ee3
                           .group:00000000 wm4.stm32f4xx_hal_i2c_ex.h.21.951ef5bfa13cf131d2015c338e82e461
                           .group:00000000 wm4.stm32f4xx_hal_i2c.h.647.ade9c3447780b1cc0ece02f0ce83aedc
                           .group:00000000 wm4.stm32f4xx_hal_iwdg.h.21.6227ccfbb99238d6637d6fd22341e211
                           .group:00000000 wm4.stm32f4xx_hal_pwr.h.20.1905a0783a9c83adefd7df0c4b501e40
                           .group:00000000 wm4.stm32f4xx_hal_pwr_ex.h.20.68994c4c23e76d9aeabea12988d5ec3f
                           .group:00000000 wm4.stm32f4xx_hal_pwr.h.338.debc0a4a62ba54688e63ab53dd99c4ea
                           .group:00000000 wm4.stm32f4xx_hal_tim.h.21.c31cbc03c25f07a932427770396c59d2
                           .group:00000000 wm4.stm32f4xx_hal_tim_ex.h.21.918fa7fcd405cc3ba11632ed1d07a240
                           .group:00000000 wm4.stm32f4xx_hal_uart.h.21.ba8e24dd05c77faac3f3d48472e636ba
                           .group:00000000 wm4.stm32f4xx_hal.h.71.02372bc31d47d29d3f67fbfe1429649e
                           .group:00000000 wm4.main.h.60.43ab73d02ecae73036be54daa58e8549
                           .group:00000000 wm4.cmsis_os.h.124.adbc2241dbc0025710aa866137b8f22e
                           .group:00000000 wm4.cmsis_os2.h.151.57db232dfe421e4f781dd02c42ee4360
                           .group:00000000 wm4.cmsis_os.h.179.c36f217fbf28f1f2e754518bfb5a2ae8
                           .group:00000000 wm4.drive.h.14.a1ee32a37f4f9444164234e265f0172a
                           .group:00000000 wm4.stdbool.h.29.c08aa3eec75cf5b9b5003883f43253f0

UNDEFINED SYMBOLS
osMessageQueueGet
Drive_Update
Motor_Left
Motor_Right
Drive_Init
Car_Stop
uxTaskGetStackHighWaterMark
HAL_IWDG_Refresh
dbg
hiwdg
osThreadGetId
Ultra_Init
HAL_GetTick
osMessageQueuePut
median_n
Ultra_Measure
min_n
BNO055_ReadEuler
BNO055_ReadCalibStatus
osMessageQueueNew
HAL_UART_Receive_IT
osThreadNew
huart1
