ARM GAS  /tmp/cc1K537S.s 			page 1


   1              		.cpu cortex-m4
   2              		.arch armv7e-m
   3              		.fpu fpv4-sp-d16
   4              		.eabi_attribute 27, 1
   5              		.eabi_attribute 28, 1
   6              		.eabi_attribute 20, 1
   7              		.eabi_attribute 21, 1
   8              		.eabi_attribute 23, 3
   9              		.eabi_attribute 24, 1
  10              		.eabi_attribute 25, 1
  11              		.eabi_attribute 26, 1
  12              		.eabi_attribute 30, 1
  13              		.eabi_attribute 34, 1
  14              		.eabi_attribute 18, 4
  15              		.file	"freertos.c"
  16              		.text
  17              	.Ltext0:
  18              		.cfi_sections	.debug_frame
  19              		.file 1 "Core/Src/freertos.c"
  20              		.section	.text.StartTask03,"ax",%progbits
  21              		.align	1
  22              		.global	StartTask03
  23              		.syntax unified
  24              		.thumb
  25              		.thumb_func
  27              	StartTask03:
  28              	.LFB145:
   1:Core/Src/freertos.c **** /* USER CODE BEGIN Header */
   2:Core/Src/freertos.c **** /**
   3:Core/Src/freertos.c ****   ******************************************************************************
   4:Core/Src/freertos.c ****   * File Name          : freertos.c
   5:Core/Src/freertos.c ****   * Description        : Code for freertos applications
   6:Core/Src/freertos.c ****   ******************************************************************************
   7:Core/Src/freertos.c ****   * @attention
   8:Core/Src/freertos.c ****   *
   9:Core/Src/freertos.c ****   * Copyright (c) 2026 STMicroelectronics.
  10:Core/Src/freertos.c ****   * All rights reserved.
  11:Core/Src/freertos.c ****   *
  12:Core/Src/freertos.c ****   * This software is licensed under terms that can be found in the LICENSE file
  13:Core/Src/freertos.c ****   * in the root directory of this software component.
  14:Core/Src/freertos.c ****   * If no LICENSE file comes with this software, it is provided AS-IS.
  15:Core/Src/freertos.c ****   *
  16:Core/Src/freertos.c ****   ******************************************************************************
  17:Core/Src/freertos.c ****   */
  18:Core/Src/freertos.c **** /* USER CODE END Header */
  19:Core/Src/freertos.c **** 
  20:Core/Src/freertos.c **** /* Includes ------------------------------------------------------------------*/
  21:Core/Src/freertos.c **** #include "FreeRTOS.h"
  22:Core/Src/freertos.c **** #include "task.h"
  23:Core/Src/freertos.c **** #include "main.h"
  24:Core/Src/freertos.c **** #include "cmsis_os.h"
  25:Core/Src/freertos.c **** 
  26:Core/Src/freertos.c **** /* Private includes ----------------------------------------------------------*/
  27:Core/Src/freertos.c **** /* USER CODE BEGIN Includes */
  28:Core/Src/freertos.c **** #include "iwdg.h"    /* hiwdg ‚ÄĒ MotorTaskÍįÄ ŪĀź žąėžč† žĄĪÍ≥Ķ žčúžóźŽßĆ refresh */
  29:Core/Src/freertos.c **** #include "motor.h"
  30:Core/Src/freertos.c **** #include "drive.h"   /* DriveInputs(ŪĀź Ž©ĒžčúžßÄ Í∑łŽĆÄŽ°ú žā¨žö©) + ŪäúŽčĚ ŽÖłŽłĆ */
ARM GAS  /tmp/cc1K537S.s 			page 2


  31:Core/Src/freertos.c **** #include "debug.h"   /* DebugMonitor_t dbg (SWD ŽĮłŽü¨ ŪÜĶŪē©) */
  32:Core/Src/freertos.c **** #include "bno055.h"
  33:Core/Src/freertos.c **** #include "ultra.h"
  34:Core/Src/freertos.c **** #include "vl53l0x.h" /* žĘĆ/žöį žł°Ž©ī ToF (I2C1 Í≥Ķžú† ‚ÄĒ BNO055žôÄ ŽŹôžĚľ ŪÉúžä§ŪĀ¨ Ž¨łŽß• žßĀŽ†
  35:Core/Src/freertos.c **** #include "i2c.h"     /* hi2c1 */
  36:Core/Src/freertos.c **** #include "usart.h"   /* huart1 ‚ÄĒ ŽłĒŽ£®Ūą¨žä§ 1ŽįĒžĚīŪäł IT žąėžč† */
  37:Core/Src/freertos.c **** /* USER CODE END Includes */
  38:Core/Src/freertos.c **** 
  39:Core/Src/freertos.c **** /* Private typedef -----------------------------------------------------------*/
  40:Core/Src/freertos.c **** /* USER CODE BEGIN PTD */
  41:Core/Src/freertos.c **** 
  42:Core/Src/freertos.c **** /* USER CODE END PTD */
  43:Core/Src/freertos.c **** 
  44:Core/Src/freertos.c **** /* Private define ------------------------------------------------------------*/
  45:Core/Src/freertos.c **** /* USER CODE BEGIN PD */
  46:Core/Src/freertos.c **** 
  47:Core/Src/freertos.c **** /* MotorTask ŪĀź žąėžč† timeout [ms]: ž†ēžÉĀ žĶúžēÖ žĄľžĄú žā¨žĚīŪĀī(front 6 + left 6 + front 6 + r
  48:Core/Src/freertos.c ****  * + IMU timeout/Ž≥ĶÍĶ¨ žó¨žú†)žĚė žēĹ 2Žįį žĚīžÉĀ. žīąÍ≥ľ = žĄľžĄú ŪĆĆžĚīŪĒĄŽĚľžĚł žĻ®Ž¨Ķ ‚Üí Car_
  49:Core/Src/freertos.c ****  * ‚Üí 2.048s žßÄžÜć žčú žõĆžĻėŽŹÖ Ž¶¨žÖč (ÍĶ¨ žäąŪćľŽ£®ŪĒĄžĚė 'Ž£®ŪĒĄ Ž©ąž∂§=Ž¶¨žÖč' žĚėŽĮł Ž≥īž°ī
  50:Core/Src/freertos.c **** #define DRIVE_Q_TIMEOUT_MS  150U
  51:Core/Src/freertos.c **** 
  52:Core/Src/freertos.c **** /* ---- žł°Ž©ī ToF(VL53L0X) ---- */
  53:Core/Src/freertos.c **** #define TOF_LEFT_ADDR_8BIT  0x60U  /* žĘĆžł° ž£ľžÜĆ žě¨ŽįįžĻė(0x30<<1). žöįžł°žĚÄ ŽĒĒŪŹīŪäł 0x52 žú
  54:Core/Src/freertos.c **** #define TOF_CAP_MM          1000U  /* žÉĀŪēú žļ°[mm]: out-of-range(8190/8191)/žě•ÍĪįŽ¶¨ žßÄŪĄįŽ•ľ ž
  55:Core/Src/freertos.c **** #define TOF_BUDGET_US       20000U /* žł°ž†ē Ž≤Ąžßď = žÉėŪĒĆ ž£ľÍłį. ŽĒĒŪŹīŪäł 33msŽäĒ ž†úžĖīŽ£®ŪĒĄ
  56:Core/Src/freertos.c ****                                       ŽįėžĚĎžßÄžóį Ž≥ĎŽ™©(64% dutyžĄú žßÄžóįŽčĻ 3~4.5cm žĚīŽŹô = Žį
  57:Core/Src/freertos.c ****                                       20ms(ST Í≥†žÜć ŪĒĄŽ°úŪĆĆžĚľ)Ž°ú Ž£®ŪĒĄŽčĻ žÉą žÉėŪĒĆ 1Íįú Ūôē
  58:Core/Src/freertos.c **** #define TOF_STALE_MS        150U   /* žÉą žÉėŪĒĆ Ž¨īÍįĪžč† žÉĀŪēú. Ž≤Ąžßď 20msžĚė ~7Žįį žīąÍ≥ľ = žĄ
  59:Core/Src/freertos.c **** #define TOF_LOOP_DELAY_MS   5U     /* SensorTask Ž£®ŪĒĄ žĖĎŽ≥ī. žł°Ž©īžĚī ŽÖľŽłĒŽ°úŪāĻŚĆĖŽŹľ žā¨ŽĚľ
  60:Core/Src/freertos.c **** 
  61:Core/Src/freertos.c **** /* USER CODE END PD */
  62:Core/Src/freertos.c **** 
  63:Core/Src/freertos.c **** /* Private macro -------------------------------------------------------------*/
  64:Core/Src/freertos.c **** /* USER CODE BEGIN PM */
  65:Core/Src/freertos.c **** 
  66:Core/Src/freertos.c **** /* USER CODE END PM */
  67:Core/Src/freertos.c **** 
  68:Core/Src/freertos.c **** /* Private variables ---------------------------------------------------------*/
  69:Core/Src/freertos.c **** /* USER CODE BEGIN Variables */
  70:Core/Src/freertos.c **** 
  71:Core/Src/freertos.c **** /* SensorTask ‚Üí MotorTask Žč®Žį©ŪĖ• Ž©ĒžĚľŽįēžä§ (DriveInputs Íįí Ž≥Ķžā¨ ‚ÄĒ Í≥Ķžú†Ž≥Äžąė/Žģ§ŪÖćž
  72:Core/Src/freertos.c ****  * depth 2: full Ž©ĒžčúžßÄ + žĄ†ž†úž†úŽŹô early Ž©ĒžčúžßÄ Í≥Ķž°īžö© */
  73:Core/Src/freertos.c **** static osMessageQueueId_t driveQ = NULL;
  74:Core/Src/freertos.c **** 
  75:Core/Src/freertos.c **** /* ---- ŽĒĒŽ≤ĄÍ∑ł ŽĮłŽü¨: debug.hžĚė DebugMonitor_t dbgŽ°ú ŪÜĶŪē© (ž†ēžĚėŽäĒ drive.c 1Í≥≥). ž†ĎÍ∑ľ 
  76:Core/Src/freertos.c **** 
  77:Core/Src/freertos.c **** /* ---- ŽłĒŽ£®Ūą¨žä§ žõźÍ≤©ž†úžĖī žÉĀŪÉú (BluetoothTask Žč®žĚľ writer, MotorTask reader) ----
  78:Core/Src/freertos.c ****  * 1ŽįĒžĚīŪäł/int8 žõźžěź ž†ĎÍ∑ľ ‚Üí Žģ§ŪÖćžä§ Ž∂ąžöĒ. volatile = ŪÉúžä§ŪĀ¨ÍįĄ ÍįÄžčúžĄĪ(žĽīŪĆĆžĚľŽ
  79:Core/Src/freertos.c **** volatile uint8_t sys_power = 0;     /* 0=OFF(Ž™®ŪĄį Íįēž†úž†ēžßÄ) 1=ON. Ž∂ÄŪĆÖ OFF(žēąž†Ą) */
  80:Core/Src/freertos.c **** volatile uint8_t sys_mode  = 0;     /* 0=žěźžú®ž£ľŪĖČ(Drive_Update) 1=žąėŽŹô(manual_* žĚłÍįÄ) */
  81:Core/Src/freertos.c **** volatile int8_t  manual_left  = 0;  /* žąėŽŹô žĘĆ ŽďÄŪčį [-100..100] (+ž†ĄžßĄ / -ŪõĄžßĄ) */
  82:Core/Src/freertos.c **** volatile int8_t  manual_right = 0;  /* žąėŽŹô žöį ŽďÄŪčį */
  83:Core/Src/freertos.c **** volatile uint8_t bt_rx_byte   = 0;  /* USART1 1ŽįĒžĚīŪäł IT žąėžč† Ž≤ĄŪćľ (RxCpltCallback ‚Üí uartQ
  84:Core/Src/freertos.c **** 
  85:Core/Src/freertos.c **** /* ---- žł°Ž©ī ToF Í≥ĶÍįú ŽĮłŽü¨ (SensorTask Žč®žĚľ writer, 16-bit ž†ēŽ†¨ žďįÍłį = M4 žõźžěźž†Ā ‚Üí
  86:Core/Src/freertos.c ****  * mm Žč®žúĄ, TOF_CAP_MM žÉĀŪēú. MotorTask ŽďĪ ŪÉÄ Ž™®ŽďąžĚÄ main.h externžúľŽ°ú žĚĹÍłį ž†Ąžö© žā¨ž
  87:Core/Src/freertos.c **** volatile uint16_t dist_left  = TOF_CAP_MM;
ARM GAS  /tmp/cc1K537S.s 			page 3


  88:Core/Src/freertos.c **** volatile uint16_t dist_right = TOF_CAP_MM;
  89:Core/Src/freertos.c **** volatile int16_t  wall_error = 0;   /* dist_left - dist_right [mm]: +Ž©ī žĘĆžł°žĚī ŽćĒ ŪäłžěĄ */
  90:Core/Src/freertos.c **** 
  91:Core/Src/freertos.c **** /* USER CODE END Variables */
  92:Core/Src/freertos.c **** /* Definitions for MotorTask */
  93:Core/Src/freertos.c **** osThreadId_t MotorTaskHandle;
  94:Core/Src/freertos.c **** const osThreadAttr_t MotorTask_attributes = {
  95:Core/Src/freertos.c ****   .name = "MotorTask",
  96:Core/Src/freertos.c ****   .stack_size = 256 * 4,
  97:Core/Src/freertos.c ****   .priority = (osPriority_t) osPriorityNormal,
  98:Core/Src/freertos.c **** };
  99:Core/Src/freertos.c **** /* Definitions for SensorTask */
 100:Core/Src/freertos.c **** osThreadId_t SensorTaskHandle;
 101:Core/Src/freertos.c **** const osThreadAttr_t SensorTask_attributes = {
 102:Core/Src/freertos.c ****   .name = "SensorTask",
 103:Core/Src/freertos.c ****   .stack_size = 256 * 4,
 104:Core/Src/freertos.c ****   .priority = (osPriority_t) osPriorityLow,
 105:Core/Src/freertos.c **** };
 106:Core/Src/freertos.c **** /* Definitions for BluetoothTask */
 107:Core/Src/freertos.c **** osThreadId_t BluetoothTaskHandle;
 108:Core/Src/freertos.c **** const osThreadAttr_t BluetoothTask_attributes = {
 109:Core/Src/freertos.c ****   .name = "BluetoothTask",
 110:Core/Src/freertos.c ****   .stack_size = 256 * 4,
 111:Core/Src/freertos.c ****   .priority = (osPriority_t) osPriorityLow,
 112:Core/Src/freertos.c **** };
 113:Core/Src/freertos.c **** /* Definitions for uartQ */
 114:Core/Src/freertos.c **** osMessageQueueId_t uartQHandle;
 115:Core/Src/freertos.c **** const osMessageQueueAttr_t uartQ_attributes = {
 116:Core/Src/freertos.c ****   .name = "uartQ"
 117:Core/Src/freertos.c **** };
 118:Core/Src/freertos.c **** 
 119:Core/Src/freertos.c **** /* Private function prototypes -----------------------------------------------*/
 120:Core/Src/freertos.c **** /* USER CODE BEGIN FunctionPrototypes */
 121:Core/Src/freertos.c **** 
 122:Core/Src/freertos.c **** #if MOTOR_TEST
 123:Core/Src/freertos.c **** /* ŪÖĆžä§Ūäł žčúŪÄÄžä§ ž†Ąžö© ŽĆÄÍłį: IWDG timeout(2.048s)Ž≥īŽč§ Íłī Ž¨īÍįĪžč† ŽĆÄÍłįÍįÄ ŪĚźŽ•īŽ©ī 
 124:Core/Src/freertos.c ****  * Ž¶¨žÖč ‚Üí 'ž†ĄžßĄŽßĆ ŽįėŽ≥Ķ' ŪŹ≠ž£ľ. 10ms Žč®žúĄ(osDelay)Ž°ú ÍįĪžč†ŪēėŽ©į ŽĆÄÍłį (ÍĶ¨ test_dela
 125:Core/Src/freertos.c **** static void test_delay(uint32_t ms)
 126:Core/Src/freertos.c **** {
 127:Core/Src/freertos.c ****     for (uint32_t t = 0; t < ms; t += 10U)
 128:Core/Src/freertos.c ****     {
 129:Core/Src/freertos.c ****         HAL_IWDG_Refresh(&hiwdg);
 130:Core/Src/freertos.c ****         osDelay(10);
 131:Core/Src/freertos.c ****     }
 132:Core/Src/freertos.c **** }
 133:Core/Src/freertos.c **** #endif
 134:Core/Src/freertos.c **** 
 135:Core/Src/freertos.c **** #if !MOTOR_TEST
 136:Core/Src/freertos.c **** /* ---- žł°Ž©ī ToF ŽĒĒŽįĒžĚīžä§ (SensorTask Žč®ŽŹÖ žÜĆžú†) ----
 137:Core/Src/freertos.c ****  * ŽĎź žĄľžĄú Ž™®ŽĎź Ž∂ÄŪĆÖ žčú ŽĒĒŪŹīŪäł 0x52 ‚ÄĒ XSHUT žąúžį® ÍłįŽŹôžúľŽ°ú žĘĆžł°ŽßĆ 0x60žúľŽ°ú ž
 138:Core/Src/freertos.c **** static VL53L0X tof_left  = { .hi2c = &hi2c1, .addr = VL53L0X_ADDR_DEFAULT_8BIT, .stop_variable = 0 
 139:Core/Src/freertos.c **** static VL53L0X tof_right = { .hi2c = &hi2c1, .addr = VL53L0X_ADDR_DEFAULT_8BIT, .stop_variable = 0 
 140:Core/Src/freertos.c **** static uint8_t tof_left_ok  = 0;   /* Init+žóįžÜćŽ™®Žďú žĄĪÍ≥Ķ žó¨Ž∂Ä. žč§ŪĆ® žĄľžĄúŽäĒ ŪäłžěĄ(MAX)
 141:Core/Src/freertos.c **** static uint8_t tof_right_ok = 0;
 142:Core/Src/freertos.c **** 
 143:Core/Src/freertos.c **** /* XSHUT žčúŪÄÄžä§Ž°ú ž£ľžÜĆ ž∂©ŽŹĆ ŪēīžÜĆ ŪõĄ žĖĎž™Ĺ žīąÍłįŪôĒ + žóįžÜćžł°ž†ē žčúžěĎ.
 144:Core/Src/freertos.c ****  * žąúžĄú: ŽĎė Žč§ Ž¶¨žÖč ‚Üí žĘĆŽßĆ ÍłįŽŹô ‚Üí žĘĆ ž£ľžÜĆ 0x52‚Üí0x60 ‚Üí žöį ÍłįŽŹô(0x52 žú†žßÄ).
ARM GAS  /tmp/cc1K537S.s 			page 4


 145:Core/Src/freertos.c ****  * VL53L0X ž£ľžÜĆŽäĒ ŽāīŽ∂Ä RAMžĚīŽĚľ XSHUT low/ž†Ąžõź Ž¶¨žÖčŽßąŽč§ ŽĒĒŪŹīŪäł Ž≥ĶÍ∑Ä ‚Üí Ž∂ÄŪĆÖŽßąŽ
 146:Core/Src/freertos.c ****  * osDelay žā¨žö© = žä§žľÄž§ĄŽü¨ ÍłįŽŹô ŪõĄ(SensorTask Ž¨łŽß•) Ūėłž∂ú ž†Ąž†ú */
 147:Core/Src/freertos.c **** static void Init_ToF_Sensors(void)
 148:Core/Src/freertos.c **** {
 149:Core/Src/freertos.c ****     HAL_GPIO_WritePin(TOF_LEFT_XSHUT_GPIO_Port,  TOF_LEFT_XSHUT_Pin,  GPIO_PIN_RESET);
 150:Core/Src/freertos.c ****     HAL_GPIO_WritePin(TOF_RIGHT_XSHUT_GPIO_Port, TOF_RIGHT_XSHUT_Pin, GPIO_PIN_RESET);
 151:Core/Src/freertos.c ****     osDelay(10);
 152:Core/Src/freertos.c **** 
 153:Core/Src/freertos.c ****     HAL_GPIO_WritePin(TOF_LEFT_XSHUT_GPIO_Port, TOF_LEFT_XSHUT_Pin, GPIO_PIN_SET);
 154:Core/Src/freertos.c ****     osDelay(10);   /* t_boot ~1.2ms ‚ÄĒ žó¨žú† ŪŹ¨Ūē® */
 155:Core/Src/freertos.c ****     tof_left_ok  = VL53L0X_SetAddress(&tof_left, TOF_LEFT_ADDR_8BIT);   /* žöįžł° ÍłįŽŹô ž†Ą = Ž≤Ąž
 156:Core/Src/freertos.c ****     tof_left_ok &= VL53L0X_Init(&tof_left);
 157:Core/Src/freertos.c **** 
 158:Core/Src/freertos.c ****     HAL_GPIO_WritePin(TOF_RIGHT_XSHUT_GPIO_Port, TOF_RIGHT_XSHUT_Pin, GPIO_PIN_SET);
 159:Core/Src/freertos.c ****     osDelay(10);
 160:Core/Src/freertos.c ****     tof_right_ok = VL53L0X_Init(&tof_right);    /* ŽĒĒŪŹīŪäł 0x52 ‚ÄĒ žĘĆžł°žĚÄ žĚīŽĮł 0x60žĚīŽĚľ ž
 161:Core/Src/freertos.c **** 
 162:Core/Src/freertos.c ****     /* Ž≤Ąžßď 20ms ž†Āžö© ‚ÄĒ žč§ŪĆ®ŪēīŽŹĄ ŽĒĒŪŹīŪäł 33msŽ°ú ŽŹôžěĎŪēėŽĮÄŽ°ú ok ŪĒĆŽěėÍ∑łŽäĒ žú†žßÄ
 163:Core/Src/freertos.c ****     if (tof_left_ok)  (void)VL53L0X_SetTimingBudget(&tof_left,  TOF_BUDGET_US);
 164:Core/Src/freertos.c ****     if (tof_right_ok) (void)VL53L0X_SetTimingBudget(&tof_right, TOF_BUDGET_US);
 165:Core/Src/freertos.c **** 
 166:Core/Src/freertos.c ****     if (tof_left_ok)  tof_left_ok  = VL53L0X_StartContinuous(&tof_left);
 167:Core/Src/freertos.c ****     if (tof_right_ok) tof_right_ok = VL53L0X_StartContinuous(&tof_right);
 168:Core/Src/freertos.c **** }
 169:Core/Src/freertos.c **** 
 170:Core/Src/freertos.c **** /* žł°Ž©ī ToF 1ŪöĆ ŪŹīŽßĀ ‚Üí mm ŽĮłŽü¨/cm hist ÍįĪžč†.
 171:Core/Src/freertos.c ****  * ŽįėŪôėÍįí 3žÉĀ ž≤ėŽ¶¨: 1=žÉą žÉėŪĒĆ(žļ° ŪõĄ ÍłįŽ°Ě), 0=žēĄžßĀ(Ž≤Ąžßď ~33ms vs Ž£®ŪĒĄ ~20ms ‚ÄĒ ž
 172:Core/Src/freertos.c ****  * -1=I2C žóźŽü¨(žóįžÜć SIDE_FAIL_LIMITŪöĆ ‚Üí ŪäłžěĄ ŽßĆŽ£Ć: stale Í∑ľž†ĎÍįížĚī ž°įŪĖ•žĚĄ žė§Žěė Ž
 173:Core/Src/freertos.c ****  * Ž¨īžóźŽü¨ ž†ēž≤ī(TOF_STALE_MS Ž¨īÍįĪžč†)ŽŹĄ ŽßĆŽ£Ć ‚ÄĒ ž£ĹžßÄŽŹĄ žāīžßÄŽŹĄ žēäžĚÄ žĄľžĄúžĚė žėõÍ
 174:Core/Src/freertos.c **** static void tof_record_side(VL53L0X *dev,
 175:Core/Src/freertos.c ****                             uint8_t alive,
 176:Core/Src/freertos.c ****                             uint16_t hist[SIDE_MED_WIN],
 177:Core/Src/freertos.c ****                             uint8_t *miss,
 178:Core/Src/freertos.c ****                             uint32_t *t_fresh,
 179:Core/Src/freertos.c ****                             volatile uint16_t *out_mm,
 180:Core/Src/freertos.c ****                             uint32_t now)
 181:Core/Src/freertos.c **** {
 182:Core/Src/freertos.c ****     if (!alive)
 183:Core/Src/freertos.c ****     {
 184:Core/Src/freertos.c ****         *out_mm = TOF_CAP_MM;
 185:Core/Src/freertos.c ****         for (int i = 0; i < SIDE_MED_WIN; i++) hist[i] = ULTRA_MAX_CM;
 186:Core/Src/freertos.c ****         return;
 187:Core/Src/freertos.c ****     }
 188:Core/Src/freertos.c **** 
 189:Core/Src/freertos.c ****     uint16_t mm;
 190:Core/Src/freertos.c ****     int8_t st = VL53L0X_PollRangeMM(dev, &mm);
 191:Core/Src/freertos.c ****     if (st > 0)
 192:Core/Src/freertos.c ****     {
 193:Core/Src/freertos.c ****         *miss = 0U;
 194:Core/Src/freertos.c ****         *t_fresh = now;
 195:Core/Src/freertos.c ****         if (mm > TOF_CAP_MM) mm = TOF_CAP_MM;           /* ceiling: out-of-range(8190) žßÄŪĄį žļ° *
 196:Core/Src/freertos.c ****         *out_mm = mm;
 197:Core/Src/freertos.c ****         uint16_t cm = mm / 10U;
 198:Core/Src/freertos.c ****         if (cm > ULTRA_MAX_CM) cm = ULTRA_MAX_CM;       /* drive Í≥ĄžłĶ žä§žľÄžĚľ(cm, 80 žÉĀŪēú) ž†
 199:Core/Src/freertos.c ****         if (cm == 0U) cm = 1U;                          /* 0žĚÄ center_sanitizeÍįÄ 'ŪäłžěĄ'žúľŽ°ú ž
 200:Core/Src/freertos.c ****         for (int i = SIDE_MED_WIN - 1; i > 0; i--) hist[i] = hist[i - 1];
 201:Core/Src/freertos.c ****         hist[0] = cm;
ARM GAS  /tmp/cc1K537S.s 			page 5


 202:Core/Src/freertos.c ****     }
 203:Core/Src/freertos.c ****     else if (st < 0)
 204:Core/Src/freertos.c ****     {
 205:Core/Src/freertos.c ****         if (*miss < 255U && ++(*miss) >= SIDE_FAIL_LIMIT)
 206:Core/Src/freertos.c ****         {
 207:Core/Src/freertos.c ****             *out_mm = TOF_CAP_MM;
 208:Core/Src/freertos.c ****             for (int i = 0; i < SIDE_MED_WIN; i++) hist[i] = ULTRA_MAX_CM;
 209:Core/Src/freertos.c ****         }
 210:Core/Src/freertos.c ****     }
 211:Core/Src/freertos.c ****     else if ((now - *t_fresh) > TOF_STALE_MS)
 212:Core/Src/freertos.c ****     {
 213:Core/Src/freertos.c ****         *out_mm = TOF_CAP_MM;
 214:Core/Src/freertos.c ****         for (int i = 0; i < SIDE_MED_WIN; i++) hist[i] = ULTRA_MAX_CM;
 215:Core/Src/freertos.c ****     }
 216:Core/Src/freertos.c **** }
 217:Core/Src/freertos.c **** 
 218:Core/Src/freertos.c **** static void sensor_record_front(uint8_t valid,
 219:Core/Src/freertos.c ****                                 uint16_t cm,
 220:Core/Src/freertos.c ****                                 uint16_t hist[SIDE_MED_WIN],
 221:Core/Src/freertos.c ****                                 uint8_t *front_miss,
 222:Core/Src/freertos.c ****                                 uint16_t *front_filtered)
 223:Core/Src/freertos.c **** {
 224:Core/Src/freertos.c ****     if (valid)
 225:Core/Src/freertos.c ****     {
 226:Core/Src/freertos.c ****         *front_miss = 0U;
 227:Core/Src/freertos.c ****         for (int i = SIDE_MED_WIN - 1; i > 0; i--) hist[i] = hist[i - 1];
 228:Core/Src/freertos.c ****         hist[0] = cm;
 229:Core/Src/freertos.c ****     }
 230:Core/Src/freertos.c ****     else if (*front_miss < 255U)
 231:Core/Src/freertos.c ****     {
 232:Core/Src/freertos.c ****         (*front_miss)++;
 233:Core/Src/freertos.c ****         if (*front_miss >= FRONT_FAIL_LIMIT)
 234:Core/Src/freertos.c ****         {
 235:Core/Src/freertos.c ****             for (int i = 0; i < SIDE_MED_WIN; i++) hist[i] = ULTRA_MAX_CM;
 236:Core/Src/freertos.c ****         }
 237:Core/Src/freertos.c ****     }
 238:Core/Src/freertos.c **** 
 239:Core/Src/freertos.c ****     *front_filtered = median_n(hist, FRONT_MED_WIN);
 240:Core/Src/freertos.c ****     dbg.front_miss = *front_miss;
 241:Core/Src/freertos.c **** }
 242:Core/Src/freertos.c **** 
 243:Core/Src/freertos.c **** static void sensor_put_front_early(uint16_t f,
 244:Core/Src/freertos.c ****                                    uint16_t l,
 245:Core/Src/freertos.c ****                                    uint16_t r,
 246:Core/Src/freertos.c ****                                    uint16_t raw_cm,
 247:Core/Src/freertos.c ****                                    uint8_t f_valid,
 248:Core/Src/freertos.c ****                                    uint8_t front_miss,
 249:Core/Src/freertos.c ****                                    float heading)
 250:Core/Src/freertos.c **** {
 251:Core/Src/freertos.c ****     uint16_t f_early = (f_valid && raw_cm < FRONT_STOP_CM) ? raw_cm : f;
 252:Core/Src/freertos.c **** 
 253:Core/Src/freertos.c ****     if (f_early < FRONT_TURN_CM)
 254:Core/Src/freertos.c ****     {
 255:Core/Src/freertos.c ****         DriveInputs early;
 256:Core/Src/freertos.c ****         early.f          = f_early;
 257:Core/Src/freertos.c ****         early.l          = l;            /* žßĀž†Ą žā¨žĚīŪĀī ŪēĄŪĄįÍįí ‚ÄĒ side_valid=0žĚīŽĮÄŽ°ú žł
 258:Core/Src/freertos.c ****         early.r          = r;
ARM GAS  /tmp/cc1K537S.s 			page 6


 259:Core/Src/freertos.c ****         early.f_valid    = f_valid;
 260:Core/Src/freertos.c ****         early.side_valid = 0U;
 261:Core/Src/freertos.c ****         early.front_miss = front_miss;
 262:Core/Src/freertos.c ****         early.heading    = heading;
 263:Core/Src/freertos.c ****         early.imu_live   = 0U;           /* žĚīŽ≤ą Ž£®ŪĒĄ IMU žÉėŪĒĆ ž†ĄžĚīŽĮÄŽ°ú stale heading žā¨
 264:Core/Src/freertos.c ****         early.now        = HAL_GetTick();
 265:Core/Src/freertos.c ****         if (osMessageQueuePut(driveQ, &early, 0U, 0U) != osOK) { dbg.q_drop++; }
 266:Core/Src/freertos.c ****     }
 267:Core/Src/freertos.c **** }
 268:Core/Src/freertos.c **** #endif
 269:Core/Src/freertos.c **** 
 270:Core/Src/freertos.c **** /* USER CODE END FunctionPrototypes */
 271:Core/Src/freertos.c **** 
 272:Core/Src/freertos.c **** void StartDefaultTask(void *argument);
 273:Core/Src/freertos.c **** void StartTask02(void *argument);
 274:Core/Src/freertos.c **** void StartTask03(void *argument);
 275:Core/Src/freertos.c **** 
 276:Core/Src/freertos.c **** void MX_FREERTOS_Init(void); /* (MISRA C 2004 rule 8.1) */
 277:Core/Src/freertos.c **** 
 278:Core/Src/freertos.c **** /**
 279:Core/Src/freertos.c ****   * @brief  FreeRTOS initialization
 280:Core/Src/freertos.c ****   * @param  None
 281:Core/Src/freertos.c ****   * @retval None
 282:Core/Src/freertos.c ****   */
 283:Core/Src/freertos.c **** void MX_FREERTOS_Init(void) {
 284:Core/Src/freertos.c ****   /* USER CODE BEGIN Init */
 285:Core/Src/freertos.c **** 
 286:Core/Src/freertos.c ****   /* USER CODE END Init */
 287:Core/Src/freertos.c **** 
 288:Core/Src/freertos.c ****   /* USER CODE BEGIN RTOS_MUTEX */
 289:Core/Src/freertos.c ****   /* add mutexes, ... */
 290:Core/Src/freertos.c ****   /* USER CODE END RTOS_MUTEX */
 291:Core/Src/freertos.c **** 
 292:Core/Src/freertos.c ****   /* USER CODE BEGIN RTOS_SEMAPHORES */
 293:Core/Src/freertos.c ****   /* add semaphores, ... */
 294:Core/Src/freertos.c ****   /* USER CODE END RTOS_SEMAPHORES */
 295:Core/Src/freertos.c **** 
 296:Core/Src/freertos.c ****   /* USER CODE BEGIN RTOS_TIMERS */
 297:Core/Src/freertos.c ****   /* start timers, add new ones, ... */
 298:Core/Src/freertos.c ****   /* USER CODE END RTOS_TIMERS */
 299:Core/Src/freertos.c **** 
 300:Core/Src/freertos.c ****   /* Create the queue(s) */
 301:Core/Src/freertos.c ****   /* creation of uartQ */
 302:Core/Src/freertos.c ****   uartQHandle = osMessageQueueNew (16, sizeof(uint8_t), &uartQ_attributes);
 303:Core/Src/freertos.c **** 
 304:Core/Src/freertos.c ****   /* USER CODE BEGIN RTOS_QUEUES */
 305:Core/Src/freertos.c ****   driveQ = osMessageQueueNew(2, sizeof(DriveInputs), NULL);
 306:Core/Src/freertos.c ****   /* žÉĚžĄĪ žč§ŪĆ®(NULL) žčú put/getžĚī ž†ĄŽ∂Ä žóźŽü¨ ‚Üí MotorTaskÍįÄ Car_Stop + refresh žÉĚŽěĶ ‚Ü
 307:Core/Src/freertos.c ****    * heap_4 15KBžóź ŪĀź ~žąėžč≠BŽĚľ žč§ŪĆ® ÍįÄŽä•žĄĪ žā¨žč§žÉĀ žóÜžĚĆ ‚ÄĒ Ž≥ĄŽŹĄ ž≤ėŽ¶¨ Ž∂ąžöĒ */
 308:Core/Src/freertos.c **** 
 309:Core/Src/freertos.c ****   /* ŽłĒŽ£®Ūą¨žä§ žąėžč† Íįúžčú: žĶúžīą 1ŽįĒžĚīŪäł IT Ž¨īžě• (žĚīŪõĄ RxCpltCallbackÍįÄ žěźÍįÄ žě¨Ž¨
 310:Core/Src/freertos.c ****    * uartQ žÉĚžĄĪ žßĀŪõĄŽĚľ žĹúŽįĪ put ŽĆÄžÉĀ ž°īžě¨. USART1žĚÄ žä§žľÄž§ĄŽü¨ ž†Ą init žôĄŽ£Ć ‚Üí žß
 311:Core/Src/freertos.c ****   __HAL_UART_CLEAR_OREFLAG(&huart1);  /* Ž∂ÄŪĆÖ ŽĚľžĚł ÍłÄŽ¶¨žĻėŽ°ú žĄ†-ŽįēŪěĆ ORE ž†úÍĪį ŪõĄ Ž¨īžě
 312:Core/Src/freertos.c ****   HAL_UART_Receive_IT(&huart1, (uint8_t *)&bt_rx_byte, 1);
 313:Core/Src/freertos.c ****   /* USER CODE END RTOS_QUEUES */
 314:Core/Src/freertos.c **** 
 315:Core/Src/freertos.c ****   /* Create the thread(s) */
ARM GAS  /tmp/cc1K537S.s 			page 7


 316:Core/Src/freertos.c ****   /* creation of MotorTask */
 317:Core/Src/freertos.c ****   MotorTaskHandle = osThreadNew(StartDefaultTask, NULL, &MotorTask_attributes);
 318:Core/Src/freertos.c **** 
 319:Core/Src/freertos.c ****   /* creation of SensorTask */
 320:Core/Src/freertos.c ****   SensorTaskHandle = osThreadNew(StartTask02, NULL, &SensorTask_attributes);
 321:Core/Src/freertos.c **** 
 322:Core/Src/freertos.c ****   /* creation of BluetoothTask */
 323:Core/Src/freertos.c ****   BluetoothTaskHandle = osThreadNew(StartTask03, NULL, &BluetoothTask_attributes);
 324:Core/Src/freertos.c **** 
 325:Core/Src/freertos.c ****   /* USER CODE BEGIN RTOS_THREADS */
 326:Core/Src/freertos.c ****   /* add threads, ... */
 327:Core/Src/freertos.c ****   /* USER CODE END RTOS_THREADS */
 328:Core/Src/freertos.c **** 
 329:Core/Src/freertos.c ****   /* USER CODE BEGIN RTOS_EVENTS */
 330:Core/Src/freertos.c ****   /* add events, ... */
 331:Core/Src/freertos.c ****   /* USER CODE END RTOS_EVENTS */
 332:Core/Src/freertos.c **** 
 333:Core/Src/freertos.c **** }
 334:Core/Src/freertos.c **** 
 335:Core/Src/freertos.c **** /* USER CODE BEGIN Header_StartDefaultTask */
 336:Core/Src/freertos.c **** /**
 337:Core/Src/freertos.c ****   * @brief  Function implementing the MotorTask thread.
 338:Core/Src/freertos.c ****   * @param  argument: Not used
 339:Core/Src/freertos.c ****   * @retval None
 340:Core/Src/freertos.c ****   */
 341:Core/Src/freertos.c **** /* USER CODE END Header_StartDefaultTask */
 342:Core/Src/freertos.c **** void StartDefaultTask(void *argument)
 343:Core/Src/freertos.c **** {
 344:Core/Src/freertos.c ****   /* USER CODE BEGIN StartDefaultTask */
 345:Core/Src/freertos.c ****   (void)argument;
 346:Core/Src/freertos.c **** 
 347:Core/Src/freertos.c **** #if MOTOR_TEST
 348:Core/Src/freertos.c ****   /* ŽįĒŪÄī Žį©ŪĖ•/žÜćŽŹĄ/ž†úŽŹô Žąą ŪôēžĚł + žąėžĻė ŪäúŽčĚžö©. žĄľžĄú Ž°úžßĀ ÍĪīŽĄąŽúÄ(SensorTaskŽ
 349:Core/Src/freertos.c ****    * test_delay žā¨žö© ŪēĄžąė: Ž¨īÍįĪžč† ŽĆÄÍłįŽäĒ IWDG Ž¶¨žÖč ‚Üí žčúŪÄÄžä§ ž§ĎÍįĄ ŪŹ≠ž£ľ */
 350:Core/Src/freertos.c ****   for(;;)
 351:Core/Src/freertos.c ****   {
 352:Core/Src/freertos.c ****     Car_Forward(DRIVE_SPEED);   test_delay(1500);   /* žĖĎž™Ĺ Žč§ ž†ĄžßĄŪēėŽäĒžßÄ ŪôēžĚł */
 353:Core/Src/freertos.c ****     Car_Brake();                test_delay(400);    /* Žä•ŽŹô ž†úŽŹô: žĹĒžä§Ūäł ŽĆÄŽĻĄ ž†ēžßÄÍĪįŽ¶¨
 354:Core/Src/freertos.c ****     Car_Stop();                 test_delay(800);
 355:Core/Src/freertos.c ****     Car_PivotLeft(TURN_SPEED, TURN_INNER);   test_delay(1500);   /* IN1 ž†ĄžßĄ + IN3 ŪõĄžßĄžÜĆŽüČ ‚
 356:Core/Src/freertos.c ****     Car_Stop();                              test_delay(800);
 357:Core/Src/freertos.c ****     Car_PivotRight(TURN_SPEED, TURN_INNER);  test_delay(1500);   /* IN4 ž†ĄžßĄ + IN2 ŪõĄžßĄžÜĆŽüČ ‚
 358:Core/Src/freertos.c ****     Car_Stop();                              test_delay(800);
 359:Core/Src/freertos.c ****     Car_Backward(DRIVE_SPEED);  test_delay(1500);
 360:Core/Src/freertos.c ****     Car_Stop();                 test_delay(800);
 361:Core/Src/freertos.c ****   }
 362:Core/Src/freertos.c **** #else
 363:Core/Src/freertos.c ****   /* ž†úžĖī žÜĆŽĻĄžěź = Ž™®ŪĄį Ž™ÖŽ†Ļ žú†žĚľ ŽįúŪĖČžěź (ŪŹīŪäł ŪēłŽď§Žü¨žĚė Car_Stop ž†úžôł).
 364:Core/Src/freertos.c ****    * IWDGŽäĒ 'žč†žĄ†Ūēú žĄľžĄú ŽćįžĚīŪĄįÍįÄ ŪĚźŽ•ľ ŽēĆŽßĆ' refresh ‚ÄĒ SensorTask ŪĖČ/žā¨ŽßĚ, ŪĀź Ž
 365:Core/Src/freertos.c ****    * Ž≥ł ŪÉúžä§ŪĀ¨ ŪĖČ žĖīŽäź ž™ĹžĚīŽď† 2.048s Žāī žõĆžĻėŽŹÖ Ž¶¨žÖč (ÍĶ¨ žäąŪćľŽ£®ŪĒĄ fail-safe žĚė
 366:Core/Src/freertos.c ****   DriveInputs din;
 367:Core/Src/freertos.c ****   uint8_t prev_auto = 0;   /* žßĀž†Ą Ž£®ŪĒĄÍįÄ žěźžú® ÍĶ¨ŽŹô? M‚ÜíA / OFF‚ÜíA žě¨žßĄžěÖ edge Í≤Äž∂ú
 368:Core/Src/freertos.c ****   for(;;)
 369:Core/Src/freertos.c ****   {
 370:Core/Src/freertos.c ****     if (osMessageQueueGet(driveQ, &din, NULL, DRIVE_Q_TIMEOUT_MS) == osOK)
 371:Core/Src/freertos.c ****     {
 372:Core/Src/freertos.c ****       HAL_IWDG_Refresh(&hiwdg);   /* žĄľžĄú ŪĆĆžĚīŪĒĄŽĚľžĚł žÉĚž°ī = refresh (ž£ľŪĖČŽ™®Žďú Ž¨īÍīÄ) 
ARM GAS  /tmp/cc1K537S.s 			page 8


 373:Core/Src/freertos.c **** 
 374:Core/Src/freertos.c ****       /* === Ž™®ŪĄį ž†úžĖīÍ∂Ć Žč®žĚľ Ž∂ĄÍłį (Í≤ĹžüĀ žõźž≤ú žį®Žč®; ŽįúŪĖČžěźŽäĒ Ž≥ł ŪÉúžä§ŪĀ¨ ŪēėŽā
 375:Core/Src/freertos.c ****       if (sys_power == 0)
 376:Core/Src/freertos.c ****       {
 377:Core/Src/freertos.c ****         Car_Stop();                    /* ž†Ąžõź OFF: Íįēž†ú ž†ēžßÄ (žĶúžöįžĄ†) */
 378:Core/Src/freertos.c ****         prev_auto = 0;
 379:Core/Src/freertos.c ****       }
 380:Core/Src/freertos.c ****       else if (sys_mode == 1)
 381:Core/Src/freertos.c ****       {
 382:Core/Src/freertos.c ****         Motor_Left(manual_left);       /* žąėŽŹô: žēĪ ŽďÄŪčį žßĀž†Ď žĚłÍįÄ (žĚĆžąė=ŪõĄžßĄ) */
 383:Core/Src/freertos.c ****         Motor_Right(manual_right);
 384:Core/Src/freertos.c ****         prev_auto = 0;
 385:Core/Src/freertos.c ****       }
 386:Core/Src/freertos.c ****       else                             /* sys_power==1 && sys_mode==0 ‚Üí žěźžú®ž£ľŪĖČ */
 387:Core/Src/freertos.c ****       {
 388:Core/Src/freertos.c ****         if (!prev_auto)                /* žąėŽŹô/OFFžóźžĄú ŽßČ Ž≥ĶÍ∑Ä ‚Üí žÉĀŪÉúŽ®łžč† Ž¶¨žÖč(žä§ŪÖ
 389:Core/Src/freertos.c ****         {
 390:Core/Src/freertos.c ****           Drive_Init();
 391:Core/Src/freertos.c ****           prev_auto = 1;
 392:Core/Src/freertos.c ****         }
 393:Core/Src/freertos.c ****         Drive_Update(&din);            /* din.now ÍłįŽįė ŽĻĄŽłĒŽ°úŪāĻ ž†úžĖī. early front-only ŪĒĄŽ
 394:Core/Src/freertos.c ****       }
 395:Core/Src/freertos.c ****     }
 396:Core/Src/freertos.c ****     else
 397:Core/Src/freertos.c ****     {
 398:Core/Src/freertos.c ****       dbg.q_timeout++;
 399:Core/Src/freertos.c ****       Car_Stop();           /* žĄľžĄú žĻ®Ž¨Ķ ŽŹôžēą žēąž†Ą ž†ēžßÄ. refresh žÉĚŽěĶ ‚Üí žßÄžÜć žčú IW
 400:Core/Src/freertos.c ****     }
 401:Core/Src/freertos.c ****     dbg.hw_motor = (uint32_t)uxTaskGetStackHighWaterMark(NULL);
 402:Core/Src/freertos.c ****   }
 403:Core/Src/freertos.c **** #endif
 404:Core/Src/freertos.c ****   /* USER CODE END StartDefaultTask */
 405:Core/Src/freertos.c **** }
 406:Core/Src/freertos.c **** 
 407:Core/Src/freertos.c **** /* USER CODE BEGIN Header_StartTask02 */
 408:Core/Src/freertos.c **** /**
 409:Core/Src/freertos.c **** * @brief Function implementing the SensorTask thread.
 410:Core/Src/freertos.c **** * @param argument: Not used
 411:Core/Src/freertos.c **** * @retval None
 412:Core/Src/freertos.c **** */
 413:Core/Src/freertos.c **** /* USER CODE END Header_StartTask02 */
 414:Core/Src/freertos.c **** void StartTask02(void *argument)
 415:Core/Src/freertos.c **** {
 416:Core/Src/freertos.c ****   /* USER CODE BEGIN StartTask02 */
 417:Core/Src/freertos.c ****   (void)argument;
 418:Core/Src/freertos.c **** 
 419:Core/Src/freertos.c **** #if MOTOR_TEST
 420:Core/Src/freertos.c ****   /* Ž™®ŪĄį ž†źÍ≤Ä Ž™®Žďú: žł°ž†ē/ŪĀź Ž∂ąžöĒ ‚ÄĒ MotorTaskÍįÄ žčúŪÄÄžä§ ž†ĄŽčī, žó¨ÍłįŽäĒ ŪúīŽ©ī */
 421:Core/Src/freertos.c ****   for(;;) osDelay(1000);
 422:Core/Src/freertos.c **** #else
 423:Core/Src/freertos.c ****   /* žł°ž†ē/ŪēĄŪĄį žÉĀŪÉú (ÍĶ¨ main.c žäąŪćľŽ£®ŪĒĄžóźžĄú žĚīŽŹô) ‚ÄĒ ž†úžĖī žÉĀŪÉúŽ®łžč†žĚÄ drive.c
 424:Core/Src/freertos.c ****    * hist žúąŽŹĄ = SIDE_MED_WIN(drive.h): median žÉėŪĒĆžąė = 'ŪēúŽ≤ąžĒ© ŪäÄŽäĒ Íįí' ž†úÍĪį ÍįēŽŹĄ Ž
 425:Core/Src/freertos.c ****    * žł°Ž©īžĚÄ ToFŽ°ú žĚīÍīÄŽźźžßÄŽßĆ median3 ŪēĄŪĄį Í≥ĄžłĶžĚÄ žú†žßÄ ‚ÄĒ žú†Ž¶¨/ž†ÄŽįėžā¨ ŪĎúŽ©īžĚ
 426:Core/Src/freertos.c ****   static uint16_t hist_f[SIDE_MED_WIN];
 427:Core/Src/freertos.c ****   static uint16_t hist_l[SIDE_MED_WIN];
 428:Core/Src/freertos.c ****   static uint16_t hist_r[SIDE_MED_WIN];
 429:Core/Src/freertos.c ****   for (int i = 0; i < SIDE_MED_WIN; i++)
ARM GAS  /tmp/cc1K537S.s 			page 9


 430:Core/Src/freertos.c ****   {
 431:Core/Src/freertos.c ****       hist_f[i] = ULTRA_MAX_CM;
 432:Core/Src/freertos.c ****       hist_l[i] = ULTRA_MAX_CM;
 433:Core/Src/freertos.c ****       hist_r[i] = ULTRA_MAX_CM;
 434:Core/Src/freertos.c ****   }
 435:Core/Src/freertos.c ****   static uint8_t  front_miss = 0;   /* ž†ēŽ©ī žóźžĹĒ žóįžÜć ŽĮłŪöĆžč† (stale front ž†úÍĪį ŽįŹ ž†Ą ž
 436:Core/Src/freertos.c ****   static uint8_t  tof_miss[2]  = {0, 0};   /* žĘĆ/žöį ToF I2C žóźŽü¨ žóįžÜć žĻīžöīŪäł (SIDE_FAIL_LI
 437:Core/Src/freertos.c ****   static uint32_t tof_fresh[2] = {0, 0};   /* žĘĆ/žöį ŽßąžßÄŽßČ žÉą žÉėŪĒĆ žčúÍįĀ (TOF_STALE_MS ž†ē
 438:Core/Src/freertos.c ****   static uint8_t  imu_live = 0;     /* IMU žÉĚž°ī Í≤ĆžĚīŪäł */
 439:Core/Src/freertos.c ****   static uint8_t  imu_fail = 0;     /* žĚĹÍłį žóįžÜć žč§ŪĆ® žĻīžöīŪäł */
 440:Core/Src/freertos.c ****   static uint32_t t_imu_retry = 0;  /* žā¨ŽßĚ ŪõĄ žě¨žčúŽŹĄ ŪÉÄžĚīŽ®ł */
 441:Core/Src/freertos.c ****   static uint32_t t_calib = 0;      /* CALIB_STAT ŽĒĒŽ≤ĄÍ∑ł žĚĹÍłį žä§Ž°úŪčÄ */
 442:Core/Src/freertos.c ****   static uint32_t t_loop = 0;       /* žā¨žĚīŪĀī ž£ľÍłį žł°ž†ē */
 443:Core/Src/freertos.c ****   static BNO055_Euler imu;          /* žĶúÍ∑ľ žúĶŪē©Íįí (read žč§ŪĆ® žčú žßĀž†ĄÍįí žú†žßÄ) */
 444:Core/Src/freertos.c **** 
 445:Core/Src/freertos.c ****   uint16_t f = ULTRA_MAX_CM, l = ULTRA_MAX_CM, r = ULTRA_MAX_CM;  /* ŪēĄŪĄį ž∂úŽ†• */
 446:Core/Src/freertos.c ****   uint16_t d_front;
 447:Core/Src/freertos.c ****   uint8_t  v_front;
 448:Core/Src/freertos.c **** 
 449:Core/Src/freertos.c ****   Ultra_Init(osThreadGetId());      /* TIM3 IC start(ž†ĄŽį© CH1) + žł°ž†ē žôĄŽ£Ć flag žąėžč†žěź ŽďĪ
 450:Core/Src/freertos.c ****   imu_live = dbg.imu_ok;            /* Init žĄĪÍ≥ĶŪĖąžĚĄ ŽēĆŽßĆ žÉĚž°ī žčúžěĎ (žč§ŪĆ® žčú ÍĪįŽ¶¨-on
 451:Core/Src/freertos.c ****   Init_ToF_Sensors();               /* XSHUT žąúžį® ÍłįŽŹô + žĘĆžł° ž£ľžÜĆ 0x60 žě¨ŽįįžĻė + žóįžÜćž
 452:Core/Src/freertos.c ****   tof_fresh[0] = HAL_GetTick();     /* ž†ēž≤ī ŽßĆŽ£Ć ŪÉÄžĚīŽ®ł Íłįž§Äž†ź ‚ÄĒ ÍłįŽŹô žßĀŪõĄ žė§ŪÉź Ž
 453:Core/Src/freertos.c ****   tof_fresh[1] = tof_fresh[0];
 454:Core/Src/freertos.c **** 
 455:Core/Src/freertos.c ****   for(;;)
 456:Core/Src/freertos.c ****   {
 457:Core/Src/freertos.c ****       uint32_t now = HAL_GetTick();
 458:Core/Src/freertos.c ****       dbg.loop_ms = now - t_loop;   /* žā¨žĚīŪĀī ž£ľÍłį ŽĮłŽü¨ (front-left-front-right ŽįėžĚĎžßÄžóį
 459:Core/Src/freertos.c ****       t_loop = now;
 460:Core/Src/freertos.c **** 
 461:Core/Src/freertos.c ****       uint8_t front_cycle_valid = 0U;
 462:Core/Src/freertos.c **** 
 463:Core/Src/freertos.c ****       /* 1) ž†ēŽ©ī žł°ž†ē ‚Üí ŪēĄŪĄį ‚Üí Í∑ľž†Ď žčú 'early' Ž©ĒžčúžßÄŽ°ú žĄ†ž†ú ŽįėžĚĎ(ž†ĄŽį© ž†úŽŹ
 464:Core/Src/freertos.c ****        *    [req1] ÍīÄžč¨žā¨ Ž∂ĄŽ¶¨: žĄľžĄúŽäĒ ž†úžĖīÍłį žÉĀŪÉú(DS_*)Ž•ľ Ž™®Ž¶Ą ‚ÄĒ f<FRONT_TURN_CM
 465:Core/Src/freertos.c ****        *    side_valid=0žúľŽ°ú ŪĎúžčúŪēī drive.cÍįÄ stale l/rŽ°ú žĹĒŽĄą/žł°Ž©ī ŪĆźŽč®žĚĄ ŪēėžßÄ žēä
 466:Core/Src/freertos.c ****        *    Ž™®ŪĄį Ž™ÖŽ†Ļ ŽįúŪĖČžěźŽäĒ MotorTask ŪēėŽāėŽ°ú žú†žßÄ */
 467:Core/Src/freertos.c ****       v_front = Ultra_Measure(MEAS_WAIT_MS, &d_front);           /* front (TRIG PA5, ECHO TIM3_CH1)
 468:Core/Src/freertos.c ****       front_cycle_valid |= v_front;
 469:Core/Src/freertos.c ****       sensor_record_front(v_front, d_front, hist_f, &front_miss, &f);
 470:Core/Src/freertos.c ****       sensor_put_front_early(f, l, r, d_front, v_front, front_miss, imu.heading);
 471:Core/Src/freertos.c **** 
 472:Core/Src/freertos.c ****       /* 2) žł°Ž©ī ToF ŪŹīŽßĀ(ŽÖľŽłĒŽ°úŪāĻ) ‚ÄĒ front-left-front-right žąúžĄú žú†žßÄ: ž†ēŽ©īžĚĄ ž§Ď
 473:Core/Src/freertos.c ****        *    Í≥†žÜć žĹĒŽĄą/žě•žē†Ž¨ľ ŽįėžĚĎžĚĄ žēěŽčĻÍłīŽč§. ToFŽäĒ žóįžÜćžł°ž†ē žěźžú® žßĄŪĖČžĚīŽĚľ
 474:Core/Src/freertos.c ****       tof_record_side(&tof_left, tof_left_ok, hist_l, &tof_miss[0], &tof_fresh[0], &dist_left, now)
 475:Core/Src/freertos.c **** 
 476:Core/Src/freertos.c ****       v_front = Ultra_Measure(MEAS_WAIT_MS, &d_front);           /* front žě¨ŪôēžĚł */
 477:Core/Src/freertos.c ****       front_cycle_valid |= v_front;
 478:Core/Src/freertos.c ****       sensor_record_front(v_front, d_front, hist_f, &front_miss, &f);
 479:Core/Src/freertos.c ****       sensor_put_front_early(f, l, r, d_front, v_front, front_miss, imu.heading);
 480:Core/Src/freertos.c **** 
 481:Core/Src/freertos.c ****       tof_record_side(&tof_right, tof_right_ok, hist_r, &tof_miss[1], &tof_fresh[1], &dist_right, n
 482:Core/Src/freertos.c **** 
 483:Core/Src/freertos.c ****       l = median_n(hist_l, SIDE_MED_WIN);   /* žł°Ž©ī median ŪēĄŪĄį Í≥ĄžłĶ žú†žßÄ (Žč®Žįú outlier Ž
 484:Core/Src/freertos.c ****       r = median_n(hist_r, SIDE_MED_WIN);
 485:Core/Src/freertos.c ****       wall_error = (int16_t)((int32_t)dist_left - (int32_t)dist_right);   /* [mm] +=žĘĆžł°žĚī ŽćĒ Ū
 486:Core/Src/freertos.c ****       dbg.front = f; dbg.left = l; dbg.right = r;
ARM GAS  /tmp/cc1K537S.s 			page 10


 487:Core/Src/freertos.c **** 
 488:Core/Src/freertos.c ****       /* 3) IMU žÉėŪĒĆ (žÉĚž°ī Í≤ĆžĚīŪäł): ž†ēžÉĀ žčú Žß§ žā¨žĚīŪĀī heading ÍįĪžč†. žóįžÜć IMU_FAIL
 489:Core/Src/freertos.c ****        *    žā¨ŽßĚ žĄ†žĖł ŪõĄ IMU_RETRY_MS ž£ľÍłįŽ°úŽßĆ žě¨žčúŽŹĄ ‚ÄĒ ž£ĹžĚÄ IMUÍįÄ žā¨žĚīŪĀīŽßąŽč§
 490:Core/Src/freertos.c ****        *    ŪÉúžõĆ ŽįėžĚĎžßÄžóį Ūā§žöįŽäĒ Í≤É žį®Žč®. CalibStatusŽäĒ ŽĒĒŽ≤ĄÍ∑ł ž†Ąžö©žĚīŽĚľ CALIB_P
 491:Core/Src/freertos.c ****       uint8_t imu_ctrl_live = 0U;   /* žĚīŽ≤ą ž†úžĖī ŪĒĄŽ†ąžěĄžóźžĄú žÉą headingžĚĄ žĚĹžóąžĚĄ ŽēĆŽß
 492:Core/Src/freertos.c ****       if (imu_live)
 493:Core/Src/freertos.c ****       {
 494:Core/Src/freertos.c ****           if (BNO055_ReadEuler(&imu))
 495:Core/Src/freertos.c ****           {
 496:Core/Src/freertos.c ****               imu_fail = 0;
 497:Core/Src/freertos.c ****               imu_ctrl_live = 1U;
 498:Core/Src/freertos.c ****               dbg.heading = imu.heading;
 499:Core/Src/freertos.c ****               dbg.roll    = imu.roll;
 500:Core/Src/freertos.c ****               dbg.pitch   = imu.pitch;
 501:Core/Src/freertos.c ****           }
 502:Core/Src/freertos.c ****           else if (++imu_fail >= IMU_FAIL_LIMIT)
 503:Core/Src/freertos.c ****           {
 504:Core/Src/freertos.c ****               imu_live = 0;
 505:Core/Src/freertos.c ****               t_imu_retry = now;
 506:Core/Src/freertos.c ****           }
 507:Core/Src/freertos.c ****           if ((now - t_calib) >= CALIB_POLL_MS)
 508:Core/Src/freertos.c ****           {
 509:Core/Src/freertos.c ****               t_calib = now;
 510:Core/Src/freertos.c ****               dbg.imu_calib = BNO055_ReadCalibStatus();
 511:Core/Src/freertos.c ****           }
 512:Core/Src/freertos.c ****       }
 513:Core/Src/freertos.c ****       else if (dbg.imu_ok && (now - t_imu_retry) >= IMU_RETRY_MS)
 514:Core/Src/freertos.c ****       {
 515:Core/Src/freertos.c ****           /* Init žĄĪÍ≥Ķ žĚīŽ†• žěąžĚĄ ŽēĆŽßĆ žě¨žčúŽŹĄ ‚ÄĒ Init žč§ŪĆ® žÉĀŪÉúžĚė garbage žĚĹÍłįŽ°ú
 516:Core/Src/freertos.c ****            * žė§ŪĆźŪēėŽäĒ Í≤É Žį©žßÄ. Ž≤Ąžä§ wedgeŽäĒ bno_rd ŽāīŽ∂Ä Ž≥ĶÍĶ¨(10ŪöĆ žč§ŪĆ®‚Üí9ŪĀīŽü≠)ž
 517:Core/Src/freertos.c ****           t_imu_retry = now;
 518:Core/Src/freertos.c ****           if (BNO055_ReadEuler(&imu))
 519:Core/Src/freertos.c ****           {
 520:Core/Src/freertos.c ****               imu_live = 1;
 521:Core/Src/freertos.c ****               imu_fail = 0;
 522:Core/Src/freertos.c ****               imu_ctrl_live = 1U;
 523:Core/Src/freertos.c ****               dbg.heading = imu.heading;
 524:Core/Src/freertos.c ****               dbg.roll    = imu.roll;
 525:Core/Src/freertos.c ****               dbg.pitch   = imu.pitch;
 526:Core/Src/freertos.c ****           }
 527:Core/Src/freertos.c ****       }
 528:Core/Src/freertos.c ****       dbg.imu_live = imu_ctrl_live;
 529:Core/Src/freertos.c **** 
 530:Core/Src/freertos.c ****       /* 4) ž†úžĖī žěÖŽ†• žä§ŽÉÖžÉ∑ ‚Üí ŪĀź (Íįí Ž≥Ķžā¨ ‚ÄĒ MotorTaskÍįÄ IWDG refresh + Drive_Updat
 531:Core/Src/freertos.c ****       DriveInputs din;
 532:Core/Src/freertos.c ****       din.f          = f;
 533:Core/Src/freertos.c ****       din.l          = l;
 534:Core/Src/freertos.c ****       din.r          = r;
 535:Core/Src/freertos.c ****       din.f_valid    = front_cycle_valid;
 536:Core/Src/freertos.c ****       din.side_valid = 1U;
 537:Core/Src/freertos.c ****       din.front_miss = front_miss;
 538:Core/Src/freertos.c ****       din.heading    = imu.heading;   /* imu_ctrl_live=0žĚīŽ©ī drive.cÍįÄ Ž¨īžčú(ÍĪįŽ¶¨-only ÍįēŽďĪ
 539:Core/Src/freertos.c ****       din.imu_live   = imu_ctrl_live;
 540:Core/Src/freertos.c ****       din.now        = HAL_GetTick();
 541:Core/Src/freertos.c ****       if (osMessageQueuePut(driveQ, &din, 0U, 0U) != osOK) { dbg.q_drop++; }
 542:Core/Src/freertos.c **** 
 543:Core/Src/freertos.c ****       dbg.hw_sensor = (uint32_t)uxTaskGetStackHighWaterMark(NULL);
ARM GAS  /tmp/cc1K537S.s 			page 11


 544:Core/Src/freertos.c **** 
 545:Core/Src/freertos.c ****       /* žł°Ž©īžĚī ŽłĒŽ°úŪāĻ ŽĆÄÍłį(ÍĶ¨ SIDE_WAIT_MS√ó2)žóźžĄú ŽÖľŽłĒŽ°úŪāĻ ŪŹīŽßĀžúľŽ°ú ŽįĒŽÄĆžĖī 
 546:Core/Src/freertos.c ****        * Ž£®ŪĒĄ ž£ľÍłį ~20ms žú†žßÄ (ToF Ž≤Ąžßď ~33msžôÄ ž†ēŪē© ‚ÄĒ Í≥ľŽŹĄ ŪŹīŽßĀ/CPU ŽŹÖž†ź Žį©žßÄ
 547:Core/Src/freertos.c ****       osDelay(TOF_LOOP_DELAY_MS);
 548:Core/Src/freertos.c ****   }
 549:Core/Src/freertos.c **** #endif
 550:Core/Src/freertos.c ****   /* USER CODE END StartTask02 */
 551:Core/Src/freertos.c **** }
 552:Core/Src/freertos.c **** 
 553:Core/Src/freertos.c **** /* USER CODE BEGIN Header_StartTask03 */
 554:Core/Src/freertos.c **** /**
 555:Core/Src/freertos.c **** * @brief Function implementing the BluetoothTask thread.
 556:Core/Src/freertos.c **** * @param argument: Not used
 557:Core/Src/freertos.c **** * @retval None
 558:Core/Src/freertos.c **** */
 559:Core/Src/freertos.c **** /* USER CODE END Header_StartTask03 */
 560:Core/Src/freertos.c **** void StartTask03(void *argument)
 561:Core/Src/freertos.c **** {
  29              		.loc 1 561 1 view -0
  30              		.cfi_startproc
  31              		@ Volatile: function does not return.
  32              		@ args = 0, pretend = 0, frame = 8
  33              		@ frame_needed = 0, uses_anonymous_args = 0
  34              	.LVL0:
  35              		.loc 1 561 1 is_stmt 0 view .LVU1
  36 0000 00B5     		push	{lr}
  37              	.LCFI0:
  38              		.cfi_def_cfa_offset 4
  39              		.cfi_offset 14, -4
  40 0002 83B0     		sub	sp, sp, #12
  41              	.LCFI1:
  42              		.cfi_def_cfa_offset 16
  43 0004 02E0     		b	.L2
  44              	.LVL1:
  45              	.L12:
 562:Core/Src/freertos.c ****   /* USER CODE BEGIN StartTask03 */
 563:Core/Src/freertos.c ****   (void)argument;
 564:Core/Src/freertos.c ****   uint8_t cmd;
 565:Core/Src/freertos.c **** 
 566:Core/Src/freertos.c ****   for(;;)
 567:Core/Src/freertos.c ****   {
 568:Core/Src/freertos.c ****     /* uartQžóźžĄú 1ŽįĒžĚīŪäł ŽłĒŽ°úŪāĻ žąėžč† ‚ÄĒ Ž™ÖŽ†Ļ žė¨ ŽēĆÍĻĆžßÄ CPU žĖĎŽ≥ī(busy-wait žóÜžĚĆ
 569:Core/Src/freertos.c ****     if (osMessageQueueGet(uartQHandle, &cmd, NULL, osWaitForever) != osOK)
 570:Core/Src/freertos.c ****         continue;
 571:Core/Src/freertos.c **** 
 572:Core/Src/freertos.c ****     switch (cmd)
 573:Core/Src/freertos.c ****     {
 574:Core/Src/freertos.c ****       /* ---- žčúžä§ŪÖú ž†Ąžõź ---- */
 575:Core/Src/freertos.c ****       case '1':                                  /* ON */
 576:Core/Src/freertos.c ****         sys_power = 1;
  46              		.loc 1 576 9 is_stmt 1 view .LVU2
  47              		.loc 1 576 19 is_stmt 0 view .LVU3
  48 0006 5A4B     		ldr	r3, .L16
  49 0008 0122     		movs	r2, #1
  50 000a 1A70     		strb	r2, [r3]
 577:Core/Src/freertos.c ****         break;
  51              		.loc 1 577 9 is_stmt 1 view .LVU4
ARM GAS  /tmp/cc1K537S.s 			page 12


  52              	.L2:
 563:Core/Src/freertos.c ****   uint8_t cmd;
  53              		.loc 1 563 3 view .LVU5
 564:Core/Src/freertos.c **** 
  54              		.loc 1 564 3 view .LVU6
 566:Core/Src/freertos.c ****   {
  55              		.loc 1 566 3 view .LVU7
 569:Core/Src/freertos.c ****         continue;
  56              		.loc 1 569 5 view .LVU8
 569:Core/Src/freertos.c ****         continue;
  57              		.loc 1 569 9 is_stmt 0 view .LVU9
  58 000c 4FF0FF33 		mov	r3, #-1
  59 0010 0022     		movs	r2, #0
  60 0012 0DF10701 		add	r1, sp, #7
  61 0016 5748     		ldr	r0, .L16+4
  62 0018 0068     		ldr	r0, [r0]
  63 001a FFF7FEFF 		bl	osMessageQueueGet
  64              	.LVL2:
 569:Core/Src/freertos.c ****         continue;
  65              		.loc 1 569 8 discriminator 1 view .LVU10
  66 001e 0028     		cmp	r0, #0
  67 0020 F4D1     		bne	.L2
 572:Core/Src/freertos.c ****     {
  68              		.loc 1 572 5 is_stmt 1 view .LVU11
  69 0022 9DF80730 		ldrb	r3, [sp, #7]	@ zero_extendqisi2
  70 0026 303B     		subs	r3, r3, #48
  71 0028 252B     		cmp	r3, #37
  72 002a EFD8     		bhi	.L2
  73 002c 01A2     		adr	r2, .L5
  74 002e 52F823F0 		ldr	pc, [r2, r3, lsl #2]
  75 0032 00BF     		.p2align 2
  76              	.L5:
  77 0034 CD000000 		.word	.L13+1
  78 0038 07000000 		.word	.L12+1
  79 003c 0D000000 		.word	.L2+1
  80 0040 0D000000 		.word	.L2+1
  81 0044 0D000000 		.word	.L2+1
  82 0048 0D000000 		.word	.L2+1
  83 004c 0D000000 		.word	.L2+1
  84 0050 0D000000 		.word	.L2+1
  85 0054 0D000000 		.word	.L2+1
  86 0058 0D000000 		.word	.L2+1
  87 005c 0D000000 		.word	.L2+1
  88 0060 0D000000 		.word	.L2+1
  89 0064 0D000000 		.word	.L2+1
  90 0068 0D000000 		.word	.L2+1
  91 006c 0D000000 		.word	.L2+1
  92 0070 0D000000 		.word	.L2+1
  93 0074 0D000000 		.word	.L2+1
  94 0078 DD000000 		.word	.L11+1
  95 007c 0D000000 		.word	.L2+1
  96 0080 0D000000 		.word	.L2+1
  97 0084 15010000 		.word	.L10+1
  98 0088 0D000000 		.word	.L2+1
  99 008c 0D000000 		.word	.L2+1
 100 0090 0D000000 		.word	.L2+1
 101 0094 0D000000 		.word	.L2+1
ARM GAS  /tmp/cc1K537S.s 			page 13


 102 0098 0D000000 		.word	.L2+1
 103 009c 0D000000 		.word	.L2+1
 104 00a0 0D000000 		.word	.L2+1
 105 00a4 2B010000 		.word	.L9+1
 106 00a8 EB000000 		.word	.L8+1
 107 00ac 0D000000 		.word	.L2+1
 108 00b0 0D000000 		.word	.L2+1
 109 00b4 0D000000 		.word	.L2+1
 110 00b8 0D000000 		.word	.L2+1
 111 00bc 43010000 		.word	.L7+1
 112 00c0 5B010000 		.word	.L6+1
 113 00c4 0D000000 		.word	.L2+1
 114 00c8 01010000 		.word	.L4+1
 115              		.p2align 1
 116              	.L13:
 578:Core/Src/freertos.c ****       case '0':                                  /* OFF: žąėŽŹôÍįí Ž¶¨žÖč + ž†ēžßÄ(žĖīŽäź Ž™®ŽďúŽď†
 579:Core/Src/freertos.c ****         sys_power = 0;
 117              		.loc 1 579 9 view .LVU12
 118              		.loc 1 579 19 is_stmt 0 view .LVU13
 119 00cc 0023     		movs	r3, #0
 120 00ce 284A     		ldr	r2, .L16
 121 00d0 1370     		strb	r3, [r2]
 580:Core/Src/freertos.c ****         manual_left = 0;
 122              		.loc 1 580 9 is_stmt 1 view .LVU14
 123              		.loc 1 580 21 is_stmt 0 view .LVU15
 124 00d2 294A     		ldr	r2, .L16+8
 125 00d4 1370     		strb	r3, [r2]
 581:Core/Src/freertos.c ****         manual_right = 0;
 126              		.loc 1 581 9 is_stmt 1 view .LVU16
 127              		.loc 1 581 22 is_stmt 0 view .LVU17
 128 00d6 294A     		ldr	r2, .L16+12
 129 00d8 1370     		strb	r3, [r2]
 582:Core/Src/freertos.c ****         break;
 130              		.loc 1 582 9 is_stmt 1 view .LVU18
 131 00da 97E7     		b	.L2
 132              	.L11:
 583:Core/Src/freertos.c **** 
 584:Core/Src/freertos.c ****       /* ---- Ž™®ŪĄį Ž™®Žďú (Ž™®Žďú žĄ†ŪÉĚ = ž†Ąžõź ON žĽ§ŪĒĆŽßĀ) ----
 585:Core/Src/freertos.c ****        * žēĪžóź '1'(ž†Ąžõź ON) Ž≤ĄŪäľžĚī žóÜžĖī sys_powerÍįÄ 0žóź Ž¨∂žó¨ Ž™®ŪĄįÍįÄ Íįēž†úž†ēžßÄŪēėŽ
 586:Core/Src/freertos.c ****        * Ž™®ŽďúŽ•ľ Í≥†Ž•īŽäĒ Í≤É = ž£ľŪĖČ žĚėžā¨ ‚Üí sys_power=1. Ž∂ÄŪĆÖžĚÄ žó¨ž†ĄŪěą OFF(žēąž†Ą). 
 587:Core/Src/freertos.c ****       case 'A':                                  /* žěźžú®ž£ľŪĖČ */
 588:Core/Src/freertos.c ****         sys_mode = 0;
 133              		.loc 1 588 9 view .LVU19
 134              		.loc 1 588 18 is_stmt 0 view .LVU20
 135 00dc 284B     		ldr	r3, .L16+16
 136 00de 0022     		movs	r2, #0
 137 00e0 1A70     		strb	r2, [r3]
 589:Core/Src/freertos.c ****         sys_power = 1;
 138              		.loc 1 589 9 is_stmt 1 view .LVU21
 139              		.loc 1 589 19 is_stmt 0 view .LVU22
 140 00e2 234B     		ldr	r3, .L16
 141 00e4 0122     		movs	r2, #1
 142 00e6 1A70     		strb	r2, [r3]
 590:Core/Src/freertos.c ****         break;
 143              		.loc 1 590 9 is_stmt 1 view .LVU23
 144 00e8 90E7     		b	.L2
 145              	.L8:
ARM GAS  /tmp/cc1K537S.s 			page 14


 591:Core/Src/freertos.c ****       case 'M':                                  /* žąėŽŹô: žßĄžěÖ žčú ž†ēžßÄÍįížúľŽ°ú žčúžěĎ(ŽŹĆŽį
 592:Core/Src/freertos.c ****         sys_mode = 1;
 146              		.loc 1 592 9 view .LVU24
 147              		.loc 1 592 18 is_stmt 0 view .LVU25
 148 00ea 0123     		movs	r3, #1
 149 00ec 244A     		ldr	r2, .L16+16
 150 00ee 1370     		strb	r3, [r2]
 593:Core/Src/freertos.c ****         sys_power = 1;
 151              		.loc 1 593 9 is_stmt 1 view .LVU26
 152              		.loc 1 593 19 is_stmt 0 view .LVU27
 153 00f0 1F4A     		ldr	r2, .L16
 154 00f2 1370     		strb	r3, [r2]
 594:Core/Src/freertos.c ****         manual_left = 0;
 155              		.loc 1 594 9 is_stmt 1 view .LVU28
 156              		.loc 1 594 21 is_stmt 0 view .LVU29
 157 00f4 0023     		movs	r3, #0
 158 00f6 204A     		ldr	r2, .L16+8
 159 00f8 1370     		strb	r3, [r2]
 595:Core/Src/freertos.c ****         manual_right = 0;
 160              		.loc 1 595 9 is_stmt 1 view .LVU30
 161              		.loc 1 595 22 is_stmt 0 view .LVU31
 162 00fa 204A     		ldr	r2, .L16+12
 163 00fc 1370     		strb	r3, [r2]
 596:Core/Src/freertos.c ****         break;
 164              		.loc 1 596 9 is_stmt 1 view .LVU32
 165 00fe 85E7     		b	.L2
 166              	.L4:
 597:Core/Src/freertos.c **** 
 598:Core/Src/freertos.c ****       /* ---- žąėŽŹô ž°įžěĎ (Manual Ž™®Žďú ž†Ąžö©) ---- */
 599:Core/Src/freertos.c ****       case 'U': if (sys_mode) { manual_left =  80; manual_right =  80; } break;  /* ž†ĄžßĄ */
 167              		.loc 1 599 17 view .LVU33
 168              		.loc 1 599 21 is_stmt 0 view .LVU34
 169 0100 1F4B     		ldr	r3, .L16+16
 170 0102 1B78     		ldrb	r3, [r3]	@ zero_extendqisi2
 171              		.loc 1 599 20 view .LVU35
 172 0104 002B     		cmp	r3, #0
 173 0106 81D0     		beq	.L2
 174              		.loc 1 599 33 is_stmt 1 discriminator 1 view .LVU36
 175              		.loc 1 599 45 is_stmt 0 discriminator 1 view .LVU37
 176 0108 5023     		movs	r3, #80
 177 010a 1B4A     		ldr	r2, .L16+8
 178 010c 1370     		strb	r3, [r2]
 179              		.loc 1 599 52 is_stmt 1 discriminator 1 view .LVU38
 180              		.loc 1 599 65 is_stmt 0 discriminator 1 view .LVU39
 181 010e 1B4A     		ldr	r2, .L16+12
 182 0110 1370     		strb	r3, [r2]
 183 0112 7BE7     		b	.L2
 184              	.L10:
 600:Core/Src/freertos.c ****       case 'D': if (sys_mode) { manual_left = -80; manual_right = -80; } break;  /* ŪõĄžßĄ */
 185              		.loc 1 600 17 is_stmt 1 view .LVU40
 186              		.loc 1 600 21 is_stmt 0 view .LVU41
 187 0114 1A4B     		ldr	r3, .L16+16
 188 0116 1B78     		ldrb	r3, [r3]	@ zero_extendqisi2
 189              		.loc 1 600 20 view .LVU42
 190 0118 002B     		cmp	r3, #0
 191 011a 3FF477AF 		beq	.L2
 192              		.loc 1 600 33 is_stmt 1 discriminator 1 view .LVU43
ARM GAS  /tmp/cc1K537S.s 			page 15


 193              		.loc 1 600 45 is_stmt 0 discriminator 1 view .LVU44
 194 011e B023     		movs	r3, #176
 195 0120 154A     		ldr	r2, .L16+8
 196 0122 1370     		strb	r3, [r2]
 197              		.loc 1 600 52 is_stmt 1 discriminator 1 view .LVU45
 198              		.loc 1 600 65 is_stmt 0 discriminator 1 view .LVU46
 199 0124 154A     		ldr	r2, .L16+12
 200 0126 1370     		strb	r3, [r2]
 201 0128 70E7     		b	.L2
 202              	.L9:
 601:Core/Src/freertos.c ****       case 'L': if (sys_mode) { manual_left = -60; manual_right =  60; } break;  /* žĘĆŪöĆž†Ą */
 203              		.loc 1 601 17 is_stmt 1 view .LVU47
 204              		.loc 1 601 21 is_stmt 0 view .LVU48
 205 012a 154B     		ldr	r3, .L16+16
 206 012c 1B78     		ldrb	r3, [r3]	@ zero_extendqisi2
 207              		.loc 1 601 20 view .LVU49
 208 012e 002B     		cmp	r3, #0
 209 0130 3FF46CAF 		beq	.L2
 210              		.loc 1 601 33 is_stmt 1 discriminator 1 view .LVU50
 211              		.loc 1 601 45 is_stmt 0 discriminator 1 view .LVU51
 212 0134 104B     		ldr	r3, .L16+8
 213 0136 C422     		movs	r2, #196
 214 0138 1A70     		strb	r2, [r3]
 215              		.loc 1 601 52 is_stmt 1 discriminator 1 view .LVU52
 216              		.loc 1 601 65 is_stmt 0 discriminator 1 view .LVU53
 217 013a 104B     		ldr	r3, .L16+12
 218 013c 3C22     		movs	r2, #60
 219 013e 1A70     		strb	r2, [r3]
 220 0140 64E7     		b	.L2
 221              	.L7:
 602:Core/Src/freertos.c ****       case 'R': if (sys_mode) { manual_left =  60; manual_right = -60; } break;  /* žöįŪöĆž†Ą */
 222              		.loc 1 602 17 is_stmt 1 view .LVU54
 223              		.loc 1 602 21 is_stmt 0 view .LVU55
 224 0142 0F4B     		ldr	r3, .L16+16
 225 0144 1B78     		ldrb	r3, [r3]	@ zero_extendqisi2
 226              		.loc 1 602 20 view .LVU56
 227 0146 002B     		cmp	r3, #0
 228 0148 3FF460AF 		beq	.L2
 229              		.loc 1 602 33 is_stmt 1 discriminator 1 view .LVU57
 230              		.loc 1 602 45 is_stmt 0 discriminator 1 view .LVU58
 231 014c 0A4B     		ldr	r3, .L16+8
 232 014e 3C22     		movs	r2, #60
 233 0150 1A70     		strb	r2, [r3]
 234              		.loc 1 602 52 is_stmt 1 discriminator 1 view .LVU59
 235              		.loc 1 602 65 is_stmt 0 discriminator 1 view .LVU60
 236 0152 0A4B     		ldr	r3, .L16+12
 237 0154 C422     		movs	r2, #196
 238 0156 1A70     		strb	r2, [r3]
 239 0158 58E7     		b	.L2
 240              	.L6:
 603:Core/Src/freertos.c ****       case 'S': if (sys_mode) { manual_left =   0; manual_right =   0; } break;  /* ž†ēžßÄ */
 241              		.loc 1 603 17 is_stmt 1 view .LVU61
 242              		.loc 1 603 21 is_stmt 0 view .LVU62
 243 015a 094B     		ldr	r3, .L16+16
 244 015c 1B78     		ldrb	r3, [r3]	@ zero_extendqisi2
 245              		.loc 1 603 20 view .LVU63
 246 015e 002B     		cmp	r3, #0
ARM GAS  /tmp/cc1K537S.s 			page 16


 247 0160 3FF454AF 		beq	.L2
 248              		.loc 1 603 33 is_stmt 1 discriminator 1 view .LVU64
 249              		.loc 1 603 45 is_stmt 0 discriminator 1 view .LVU65
 250 0164 0023     		movs	r3, #0
 251 0166 044A     		ldr	r2, .L16+8
 252 0168 1370     		strb	r3, [r2]
 253              		.loc 1 603 52 is_stmt 1 discriminator 1 view .LVU66
 254              		.loc 1 603 65 is_stmt 0 discriminator 1 view .LVU67
 255 016a 044A     		ldr	r2, .L16+12
 256 016c 1370     		strb	r3, [r2]
 257 016e 4DE7     		b	.L2
 258              	.L17:
 259              		.align	2
 260              	.L16:
 261 0170 00000000 		.word	sys_power
 262 0174 00000000 		.word	uartQHandle
 263 0178 00000000 		.word	manual_left
 264 017c 00000000 		.word	manual_right
 265 0180 00000000 		.word	sys_mode
 266              		.cfi_endproc
 267              	.LFE145:
 269              		.section	.text.StartDefaultTask,"ax",%progbits
 270              		.align	1
 271              		.global	StartDefaultTask
 272              		.syntax unified
 273              		.thumb
 274              		.thumb_func
 276              	StartDefaultTask:
 277              	.LVL3:
 278              	.LFB143:
 343:Core/Src/freertos.c ****   /* USER CODE BEGIN StartDefaultTask */
 279              		.loc 1 343 1 is_stmt 1 view -0
 280              		.cfi_startproc
 281              		@ args = 0, pretend = 0, frame = 24
 282              		@ frame_needed = 0, uses_anonymous_args = 0
 343:Core/Src/freertos.c ****   /* USER CODE BEGIN StartDefaultTask */
 283              		.loc 1 343 1 is_stmt 0 view .LVU69
 284 0000 30B5     		push	{r4, r5, lr}
 285              	.LCFI2:
 286              		.cfi_def_cfa_offset 12
 287              		.cfi_offset 4, -12
 288              		.cfi_offset 5, -8
 289              		.cfi_offset 14, -4
 290 0002 87B0     		sub	sp, sp, #28
 291              	.LCFI3:
 292              		.cfi_def_cfa_offset 40
 345:Core/Src/freertos.c **** 
 293              		.loc 1 345 3 is_stmt 1 view .LVU70
 366:Core/Src/freertos.c ****   uint8_t prev_auto = 0;   /* žßĀž†Ą Ž£®ŪĒĄÍįÄ žěźžú® ÍĶ¨ŽŹô? M‚ÜíA / OFF‚ÜíA žě¨žßĄžěÖ edge Í≤Äž∂ú
 294              		.loc 1 366 3 view .LVU71
 367:Core/Src/freertos.c ****   for(;;)
 295              		.loc 1 367 3 view .LVU72
 296              	.LVL4:
 367:Core/Src/freertos.c ****   for(;;)
 297              		.loc 1 367 11 is_stmt 0 view .LVU73
 298 0004 0024     		movs	r4, #0
 299 0006 24E0     		b	.L24
ARM GAS  /tmp/cc1K537S.s 			page 17


 300              	.LVL5:
 301              	.L20:
 380:Core/Src/freertos.c ****       {
 302              		.loc 1 380 12 is_stmt 1 view .LVU74
 380:Core/Src/freertos.c ****       {
 303              		.loc 1 380 25 is_stmt 0 view .LVU75
 304 0008 1D4B     		ldr	r3, .L28
 305 000a 1B78     		ldrb	r3, [r3]	@ zero_extendqisi2
 306 000c DBB2     		uxtb	r3, r3
 380:Core/Src/freertos.c ****       {
 307              		.loc 1 380 15 view .LVU76
 308 000e 012B     		cmp	r3, #1
 309 0010 04D0     		beq	.L26
 388:Core/Src/freertos.c ****         {
 310              		.loc 1 388 9 is_stmt 1 view .LVU77
 388:Core/Src/freertos.c ****         {
 311              		.loc 1 388 12 is_stmt 0 view .LVU78
 312 0012 7CB1     		cbz	r4, .L27
 313              	.LVL6:
 314              	.L23:
 393:Core/Src/freertos.c ****       }
 315              		.loc 1 393 9 is_stmt 1 view .LVU79
 316 0014 6846     		mov	r0, sp
 317 0016 FFF7FEFF 		bl	Drive_Update
 318              	.LVL7:
 319 001a 15E0     		b	.L21
 320              	.L26:
 382:Core/Src/freertos.c ****         Motor_Right(manual_right);
 321              		.loc 1 382 9 view .LVU80
 322 001c 194B     		ldr	r3, .L28+4
 323 001e 1878     		ldrb	r0, [r3]	@ zero_extendqisi2
 324 0020 40B2     		sxtb	r0, r0
 325 0022 FFF7FEFF 		bl	Motor_Left
 326              	.LVL8:
 383:Core/Src/freertos.c ****         prev_auto = 0;
 327              		.loc 1 383 9 view .LVU81
 328 0026 184B     		ldr	r3, .L28+8
 329 0028 1878     		ldrb	r0, [r3]	@ zero_extendqisi2
 330 002a 40B2     		sxtb	r0, r0
 331 002c FFF7FEFF 		bl	Motor_Right
 332              	.LVL9:
 384:Core/Src/freertos.c ****       }
 333              		.loc 1 384 9 view .LVU82
 384:Core/Src/freertos.c ****       }
 334              		.loc 1 384 19 is_stmt 0 view .LVU83
 335 0030 0024     		movs	r4, #0
 336 0032 09E0     		b	.L21
 337              	.LVL10:
 338              	.L27:
 390:Core/Src/freertos.c ****           prev_auto = 1;
 339              		.loc 1 390 11 is_stmt 1 view .LVU84
 340 0034 FFF7FEFF 		bl	Drive_Init
 341              	.LVL11:
 391:Core/Src/freertos.c ****         }
 342              		.loc 1 391 11 view .LVU85
 391:Core/Src/freertos.c ****         }
 343              		.loc 1 391 21 is_stmt 0 view .LVU86
ARM GAS  /tmp/cc1K537S.s 			page 18


 344 0038 0124     		movs	r4, #1
 345 003a EBE7     		b	.L23
 346              	.LVL12:
 347              	.L19:
 398:Core/Src/freertos.c ****       Car_Stop();           /* žĄľžĄú žĻ®Ž¨Ķ ŽŹôžēą žēąž†Ą ž†ēžßÄ. refresh žÉĚŽěĶ ‚Üí žßÄžÜć žčú IW
 348              		.loc 1 398 7 is_stmt 1 view .LVU87
 398:Core/Src/freertos.c ****       Car_Stop();           /* žĄľžĄú žĻ®Ž¨Ķ ŽŹôžēą žēąž†Ą ž†ēžßÄ. refresh žÉĚŽěĶ ‚Üí žßÄžÜć žčú IW
 349              		.loc 1 398 10 is_stmt 0 view .LVU88
 350 003c 134A     		ldr	r2, .L28+12
 351 003e 936C     		ldr	r3, [r2, #72]
 398:Core/Src/freertos.c ****       Car_Stop();           /* žĄľžĄú žĻ®Ž¨Ķ ŽŹôžēą žēąž†Ą ž†ēžßÄ. refresh žÉĚŽěĶ ‚Üí žßÄžÜć žčú IW
 352              		.loc 1 398 20 view .LVU89
 353 0040 0133     		adds	r3, r3, #1
 354 0042 9364     		str	r3, [r2, #72]
 399:Core/Src/freertos.c ****     }
 355              		.loc 1 399 7 is_stmt 1 view .LVU90
 356 0044 FFF7FEFF 		bl	Car_Stop
 357              	.LVL13:
 358              	.L21:
 401:Core/Src/freertos.c ****   }
 359              		.loc 1 401 5 view .LVU91
 401:Core/Src/freertos.c ****   }
 360              		.loc 1 401 30 is_stmt 0 view .LVU92
 361 0048 0020     		movs	r0, #0
 362 004a FFF7FEFF 		bl	uxTaskGetStackHighWaterMark
 363              	.LVL14:
 401:Core/Src/freertos.c ****   }
 364              		.loc 1 401 18 discriminator 1 view .LVU93
 365 004e 0F4B     		ldr	r3, .L28+12
 366 0050 1865     		str	r0, [r3, #80]
 368:Core/Src/freertos.c ****   {
 367              		.loc 1 368 3 is_stmt 1 view .LVU94
 368              	.LVL15:
 369              	.L24:
 368:Core/Src/freertos.c ****   {
 370              		.loc 1 368 3 view .LVU95
 370:Core/Src/freertos.c ****     {
 371              		.loc 1 370 5 view .LVU96
 370:Core/Src/freertos.c ****     {
 372              		.loc 1 370 9 is_stmt 0 view .LVU97
 373 0052 9623     		movs	r3, #150
 374 0054 0022     		movs	r2, #0
 375 0056 6946     		mov	r1, sp
 376 0058 0D48     		ldr	r0, .L28+16
 377 005a 0068     		ldr	r0, [r0]
 378 005c FFF7FEFF 		bl	osMessageQueueGet
 379              	.LVL16:
 370:Core/Src/freertos.c ****     {
 380              		.loc 1 370 8 discriminator 1 view .LVU98
 381 0060 0028     		cmp	r0, #0
 382 0062 EBD1     		bne	.L19
 372:Core/Src/freertos.c **** 
 383              		.loc 1 372 7 is_stmt 1 view .LVU99
 384 0064 0B48     		ldr	r0, .L28+20
 385 0066 FFF7FEFF 		bl	HAL_IWDG_Refresh
 386              	.LVL17:
 375:Core/Src/freertos.c ****       {
ARM GAS  /tmp/cc1K537S.s 			page 19


 387              		.loc 1 375 7 view .LVU100
 375:Core/Src/freertos.c ****       {
 388              		.loc 1 375 21 is_stmt 0 view .LVU101
 389 006a 0B4B     		ldr	r3, .L28+24
 390 006c 1B78     		ldrb	r3, [r3]	@ zero_extendqisi2
 375:Core/Src/freertos.c ****       {
 391              		.loc 1 375 10 view .LVU102
 392 006e 03F0FF05 		and	r5, r3, #255
 393 0072 002B     		cmp	r3, #0
 394 0074 C8D1     		bne	.L20
 377:Core/Src/freertos.c ****         prev_auto = 0;
 395              		.loc 1 377 9 is_stmt 1 view .LVU103
 396 0076 FFF7FEFF 		bl	Car_Stop
 397              	.LVL18:
 378:Core/Src/freertos.c ****       }
 398              		.loc 1 378 9 view .LVU104
 378:Core/Src/freertos.c ****       }
 399              		.loc 1 378 19 is_stmt 0 view .LVU105
 400 007a 2C46     		mov	r4, r5
 401 007c E4E7     		b	.L21
 402              	.L29:
 403 007e 00BF     		.align	2
 404              	.L28:
 405 0080 00000000 		.word	sys_mode
 406 0084 00000000 		.word	manual_left
 407 0088 00000000 		.word	manual_right
 408 008c 00000000 		.word	dbg
 409 0090 00000000 		.word	driveQ
 410 0094 00000000 		.word	hiwdg
 411 0098 00000000 		.word	sys_power
 412              		.cfi_endproc
 413              	.LFE143:
 415              		.section	.text.sensor_record_front,"ax",%progbits
 416              		.align	1
 417              		.syntax unified
 418              		.thumb
 419              		.thumb_func
 421              	sensor_record_front:
 422              	.LVL19:
 423              	.LFB140:
 223:Core/Src/freertos.c ****     if (valid)
 424              		.loc 1 223 1 is_stmt 1 view -0
 425              		.cfi_startproc
 426              		@ args = 4, pretend = 0, frame = 0
 427              		@ frame_needed = 0, uses_anonymous_args = 0
 223:Core/Src/freertos.c ****     if (valid)
 428              		.loc 1 223 1 is_stmt 0 view .LVU107
 429 0000 10B5     		push	{r4, lr}
 430              	.LCFI4:
 431              		.cfi_def_cfa_offset 8
 432              		.cfi_offset 4, -8
 433              		.cfi_offset 14, -4
 434 0002 1C46     		mov	r4, r3
 224:Core/Src/freertos.c ****     {
 435              		.loc 1 224 5 is_stmt 1 view .LVU108
 224:Core/Src/freertos.c ****     {
 436              		.loc 1 224 8 is_stmt 0 view .LVU109
ARM GAS  /tmp/cc1K537S.s 			page 20


 437 0004 C8B1     		cbz	r0, .L31
 226:Core/Src/freertos.c ****         for (int i = SIDE_MED_WIN - 1; i > 0; i--) hist[i] = hist[i - 1];
 438              		.loc 1 226 9 is_stmt 1 view .LVU110
 226:Core/Src/freertos.c ****         for (int i = SIDE_MED_WIN - 1; i > 0; i--) hist[i] = hist[i - 1];
 439              		.loc 1 226 21 is_stmt 0 view .LVU111
 440 0006 0023     		movs	r3, #0
 441              	.LVL20:
 226:Core/Src/freertos.c ****         for (int i = SIDE_MED_WIN - 1; i > 0; i--) hist[i] = hist[i - 1];
 442              		.loc 1 226 21 view .LVU112
 443 0008 2370     		strb	r3, [r4]
 227:Core/Src/freertos.c ****         hist[0] = cm;
 444              		.loc 1 227 9 is_stmt 1 view .LVU113
 445              	.LBB2:
 227:Core/Src/freertos.c ****         hist[0] = cm;
 446              		.loc 1 227 14 view .LVU114
 447              	.LVL21:
 227:Core/Src/freertos.c ****         hist[0] = cm;
 448              		.loc 1 227 18 is_stmt 0 view .LVU115
 449 000a 0220     		movs	r0, #2
 450              	.LVL22:
 227:Core/Src/freertos.c ****         hist[0] = cm;
 451              		.loc 1 227 9 view .LVU116
 452 000c 07E0     		b	.L32
 453              	.LVL23:
 454              	.L33:
 227:Core/Src/freertos.c ****         hist[0] = cm;
 455              		.loc 1 227 52 is_stmt 1 discriminator 3 view .LVU117
 227:Core/Src/freertos.c ****         hist[0] = cm;
 456              		.loc 1 227 66 is_stmt 0 discriminator 3 view .LVU118
 457 000e 00F10043 		add	r3, r0, #-2147483648
 458 0012 013B     		subs	r3, r3, #1
 459 0014 32F81330 		ldrh	r3, [r2, r3, lsl #1]
 227:Core/Src/freertos.c ****         hist[0] = cm;
 460              		.loc 1 227 60 discriminator 3 view .LVU119
 461 0018 22F81030 		strh	r3, [r2, r0, lsl #1]	@ movhi
 227:Core/Src/freertos.c ****         hist[0] = cm;
 462              		.loc 1 227 48 is_stmt 1 discriminator 3 view .LVU120
 463 001c 0138     		subs	r0, r0, #1
 464              	.LVL24:
 465              	.L32:
 227:Core/Src/freertos.c ****         hist[0] = cm;
 466              		.loc 1 227 42 discriminator 1 view .LVU121
 467 001e 0028     		cmp	r0, #0
 468 0020 F5DC     		bgt	.L33
 469              	.LBE2:
 228:Core/Src/freertos.c ****     }
 470              		.loc 1 228 9 view .LVU122
 228:Core/Src/freertos.c ****     }
 471              		.loc 1 228 17 is_stmt 0 view .LVU123
 472 0022 1180     		strh	r1, [r2]	@ movhi
 473              	.LVL25:
 474              	.L34:
 239:Core/Src/freertos.c ****     dbg.front_miss = *front_miss;
 475              		.loc 1 239 5 is_stmt 1 view .LVU124
 239:Core/Src/freertos.c ****     dbg.front_miss = *front_miss;
 476              		.loc 1 239 23 is_stmt 0 view .LVU125
 477 0024 0321     		movs	r1, #3
ARM GAS  /tmp/cc1K537S.s 			page 21


 478 0026 1046     		mov	r0, r2
 479 0028 FFF7FEFF 		bl	median_n
 480              	.LVL26:
 239:Core/Src/freertos.c ****     dbg.front_miss = *front_miss;
 481              		.loc 1 239 21 discriminator 1 view .LVU126
 482 002c 029B     		ldr	r3, [sp, #8]
 483 002e 1880     		strh	r0, [r3]	@ movhi
 240:Core/Src/freertos.c **** }
 484              		.loc 1 240 5 is_stmt 1 view .LVU127
 240:Core/Src/freertos.c **** }
 485              		.loc 1 240 22 is_stmt 0 view .LVU128
 486 0030 2278     		ldrb	r2, [r4]	@ zero_extendqisi2
 240:Core/Src/freertos.c **** }
 487              		.loc 1 240 20 view .LVU129
 488 0032 0A4B     		ldr	r3, .L39
 489 0034 83F82A20 		strb	r2, [r3, #42]
 241:Core/Src/freertos.c **** 
 490              		.loc 1 241 1 view .LVU130
 491 0038 10BD     		pop	{r4, pc}
 492              	.LVL27:
 493              	.L31:
 230:Core/Src/freertos.c ****     {
 494              		.loc 1 230 10 is_stmt 1 view .LVU131
 230:Core/Src/freertos.c ****     {
 495              		.loc 1 230 14 is_stmt 0 view .LVU132
 496 003a 1B78     		ldrb	r3, [r3]	@ zero_extendqisi2
 497              	.LVL28:
 230:Core/Src/freertos.c ****     {
 498              		.loc 1 230 13 view .LVU133
 499 003c FF2B     		cmp	r3, #255
 500 003e F1D0     		beq	.L34
 232:Core/Src/freertos.c ****         if (*front_miss >= FRONT_FAIL_LIMIT)
 501              		.loc 1 232 9 is_stmt 1 view .LVU134
 232:Core/Src/freertos.c ****         if (*front_miss >= FRONT_FAIL_LIMIT)
 502              		.loc 1 232 22 is_stmt 0 view .LVU135
 503 0040 0133     		adds	r3, r3, #1
 504 0042 DBB2     		uxtb	r3, r3
 505 0044 2370     		strb	r3, [r4]
 233:Core/Src/freertos.c ****         {
 506              		.loc 1 233 9 is_stmt 1 view .LVU136
 233:Core/Src/freertos.c ****         {
 507              		.loc 1 233 12 is_stmt 0 view .LVU137
 508 0046 042B     		cmp	r3, #4
 509 0048 ECD9     		bls	.L34
 510              	.LBB3:
 235:Core/Src/freertos.c ****         }
 511              		.loc 1 235 22 view .LVU138
 512 004a 0023     		movs	r3, #0
 513 004c 03E0     		b	.L35
 514              	.LVL29:
 515              	.L36:
 235:Core/Src/freertos.c ****         }
 516              		.loc 1 235 52 is_stmt 1 discriminator 3 view .LVU139
 235:Core/Src/freertos.c ****         }
 517              		.loc 1 235 60 is_stmt 0 discriminator 3 view .LVU140
 518 004e 5021     		movs	r1, #80
 519 0050 22F81310 		strh	r1, [r2, r3, lsl #1]	@ movhi
ARM GAS  /tmp/cc1K537S.s 			page 22


 235:Core/Src/freertos.c ****         }
 520              		.loc 1 235 48 is_stmt 1 discriminator 3 view .LVU141
 521 0054 0133     		adds	r3, r3, #1
 522              	.LVL30:
 523              	.L35:
 235:Core/Src/freertos.c ****         }
 524              		.loc 1 235 31 discriminator 1 view .LVU142
 525 0056 022B     		cmp	r3, #2
 526 0058 F9DD     		ble	.L36
 527 005a E3E7     		b	.L34
 528              	.L40:
 529              		.align	2
 530              	.L39:
 531 005c 00000000 		.word	dbg
 532              	.LBE3:
 533              		.cfi_endproc
 534              	.LFE140:
 536              		.section	.text.sensor_put_front_early,"ax",%progbits
 537              		.align	1
 538              		.syntax unified
 539              		.thumb
 540              		.thumb_func
 542              	sensor_put_front_early:
 543              	.LVL31:
 544              	.LFB141:
 250:Core/Src/freertos.c ****     uint16_t f_early = (f_valid && raw_cm < FRONT_STOP_CM) ? raw_cm : f;
 545              		.loc 1 250 1 view -0
 546              		.cfi_startproc
 547              		@ args = 8, pretend = 0, frame = 24
 548              		@ frame_needed = 0, uses_anonymous_args = 0
 250:Core/Src/freertos.c ****     uint16_t f_early = (f_valid && raw_cm < FRONT_STOP_CM) ? raw_cm : f;
 549              		.loc 1 250 1 is_stmt 0 view .LVU144
 550 0000 10B5     		push	{r4, lr}
 551              	.LCFI5:
 552              		.cfi_def_cfa_offset 8
 553              		.cfi_offset 4, -8
 554              		.cfi_offset 14, -4
 555 0002 86B0     		sub	sp, sp, #24
 556              	.LCFI6:
 557              		.cfi_def_cfa_offset 32
 558 0004 9DF82040 		ldrb	r4, [sp, #32]	@ zero_extendqisi2
 251:Core/Src/freertos.c **** 
 559              		.loc 1 251 5 is_stmt 1 view .LVU145
 251:Core/Src/freertos.c **** 
 560              		.loc 1 251 14 is_stmt 0 view .LVU146
 561 0008 0CB1     		cbz	r4, .L42
 251:Core/Src/freertos.c **** 
 562              		.loc 1 251 33 discriminator 1 view .LVU147
 563 000a 1B2B     		cmp	r3, #27
 564 000c 25D9     		bls	.L46
 565              	.L42:
 566              	.LVL32:
 253:Core/Src/freertos.c ****     {
 567              		.loc 1 253 5 is_stmt 1 view .LVU148
 253:Core/Src/freertos.c ****     {
 568              		.loc 1 253 8 is_stmt 0 view .LVU149
 569 000e 2328     		cmp	r0, #35
ARM GAS  /tmp/cc1K537S.s 			page 23


 570 0010 21D8     		bhi	.L41
 571              	.LVL33:
 572              	.L43:
 573              	.LBB4:
 255:Core/Src/freertos.c ****         early.f          = f_early;
 574              		.loc 1 255 9 is_stmt 1 view .LVU150
 256:Core/Src/freertos.c ****         early.l          = l;            /* žßĀž†Ą žā¨žĚīŪĀī ŪēĄŪĄįÍįí ‚ÄĒ side_valid=0žĚīŽĮÄŽ°ú žł
 575              		.loc 1 256 9 view .LVU151
 256:Core/Src/freertos.c ****         early.l          = l;            /* žßĀž†Ą žā¨žĚīŪĀī ŪēĄŪĄįÍįí ‚ÄĒ side_valid=0žĚīŽĮÄŽ°ú žł
 576              		.loc 1 256 26 is_stmt 0 view .LVU152
 577 0012 ADF80000 		strh	r0, [sp]	@ movhi
 257:Core/Src/freertos.c ****         early.r          = r;
 578              		.loc 1 257 9 is_stmt 1 view .LVU153
 257:Core/Src/freertos.c ****         early.r          = r;
 579              		.loc 1 257 26 is_stmt 0 view .LVU154
 580 0016 ADF80210 		strh	r1, [sp, #2]	@ movhi
 258:Core/Src/freertos.c ****         early.f_valid    = f_valid;
 581              		.loc 1 258 9 is_stmt 1 view .LVU155
 258:Core/Src/freertos.c ****         early.f_valid    = f_valid;
 582              		.loc 1 258 26 is_stmt 0 view .LVU156
 583 001a ADF80420 		strh	r2, [sp, #4]	@ movhi
 259:Core/Src/freertos.c ****         early.side_valid = 0U;
 584              		.loc 1 259 9 is_stmt 1 view .LVU157
 259:Core/Src/freertos.c ****         early.side_valid = 0U;
 585              		.loc 1 259 26 is_stmt 0 view .LVU158
 586 001e 8DF80640 		strb	r4, [sp, #6]
 260:Core/Src/freertos.c ****         early.front_miss = front_miss;
 587              		.loc 1 260 9 is_stmt 1 view .LVU159
 260:Core/Src/freertos.c ****         early.front_miss = front_miss;
 588              		.loc 1 260 26 is_stmt 0 view .LVU160
 589 0022 0024     		movs	r4, #0
 590 0024 8DF80740 		strb	r4, [sp, #7]
 261:Core/Src/freertos.c ****         early.heading    = heading;
 591              		.loc 1 261 9 is_stmt 1 view .LVU161
 261:Core/Src/freertos.c ****         early.heading    = heading;
 592              		.loc 1 261 26 is_stmt 0 view .LVU162
 593 0028 9DF82430 		ldrb	r3, [sp, #36]	@ zero_extendqisi2
 594              	.LVL34:
 261:Core/Src/freertos.c ****         early.heading    = heading;
 595              		.loc 1 261 26 view .LVU163
 596 002c 8DF80830 		strb	r3, [sp, #8]
 262:Core/Src/freertos.c ****         early.imu_live   = 0U;           /* žĚīŽ≤ą Ž£®ŪĒĄ IMU žÉėŪĒĆ ž†ĄžĚīŽĮÄŽ°ú stale heading žā¨
 597              		.loc 1 262 9 is_stmt 1 view .LVU164
 262:Core/Src/freertos.c ****         early.imu_live   = 0U;           /* žĚīŽ≤ą Ž£®ŪĒĄ IMU žÉėŪĒĆ ž†ĄžĚīŽĮÄŽ°ú stale heading žā¨
 598              		.loc 1 262 26 is_stmt 0 view .LVU165
 599 0030 8DED030A 		vstr.32	s0, [sp, #12]
 263:Core/Src/freertos.c ****         early.now        = HAL_GetTick();
 600              		.loc 1 263 9 is_stmt 1 view .LVU166
 263:Core/Src/freertos.c ****         early.now        = HAL_GetTick();
 601              		.loc 1 263 26 is_stmt 0 view .LVU167
 602 0034 8DF81040 		strb	r4, [sp, #16]
 264:Core/Src/freertos.c ****         if (osMessageQueuePut(driveQ, &early, 0U, 0U) != osOK) { dbg.q_drop++; }
 603              		.loc 1 264 9 is_stmt 1 view .LVU168
 264:Core/Src/freertos.c ****         if (osMessageQueuePut(driveQ, &early, 0U, 0U) != osOK) { dbg.q_drop++; }
 604              		.loc 1 264 28 is_stmt 0 view .LVU169
 605 0038 FFF7FEFF 		bl	HAL_GetTick
 606              	.LVL35:
ARM GAS  /tmp/cc1K537S.s 			page 24


 264:Core/Src/freertos.c ****         if (osMessageQueuePut(driveQ, &early, 0U, 0U) != osOK) { dbg.q_drop++; }
 607              		.loc 1 264 26 discriminator 1 view .LVU170
 608 003c 0590     		str	r0, [sp, #20]
 265:Core/Src/freertos.c ****     }
 609              		.loc 1 265 9 is_stmt 1 view .LVU171
 265:Core/Src/freertos.c ****     }
 610              		.loc 1 265 13 is_stmt 0 view .LVU172
 611 003e 2346     		mov	r3, r4
 612 0040 2246     		mov	r2, r4
 613 0042 6946     		mov	r1, sp
 614 0044 0648     		ldr	r0, .L48
 615 0046 0068     		ldr	r0, [r0]
 616 0048 FFF7FEFF 		bl	osMessageQueuePut
 617              	.LVL36:
 265:Core/Src/freertos.c ****     }
 618              		.loc 1 265 12 discriminator 1 view .LVU173
 619 004c 18B1     		cbz	r0, .L41
 265:Core/Src/freertos.c ****     }
 620              		.loc 1 265 66 is_stmt 1 discriminator 1 view .LVU174
 265:Core/Src/freertos.c ****     }
 621              		.loc 1 265 69 is_stmt 0 discriminator 1 view .LVU175
 622 004e 054A     		ldr	r2, .L48+4
 623 0050 536C     		ldr	r3, [r2, #68]
 265:Core/Src/freertos.c ****     }
 624              		.loc 1 265 76 discriminator 1 view .LVU176
 625 0052 0133     		adds	r3, r3, #1
 626 0054 5364     		str	r3, [r2, #68]
 627              	.L41:
 265:Core/Src/freertos.c ****     }
 628              		.loc 1 265 76 discriminator 1 view .LVU177
 629              	.LBE4:
 267:Core/Src/freertos.c **** #endif
 630              		.loc 1 267 1 view .LVU178
 631 0056 06B0     		add	sp, sp, #24
 632              	.LCFI7:
 633              		.cfi_remember_state
 634              		.cfi_def_cfa_offset 8
 635              		@ sp needed
 636 0058 10BD     		pop	{r4, pc}
 637              	.LVL37:
 638              	.L46:
 639              	.LCFI8:
 640              		.cfi_restore_state
 251:Core/Src/freertos.c **** 
 641              		.loc 1 251 14 discriminator 3 view .LVU179
 642 005a 1846     		mov	r0, r3
 643              	.LVL38:
 251:Core/Src/freertos.c **** 
 644              		.loc 1 251 14 discriminator 3 view .LVU180
 645 005c D9E7     		b	.L43
 646              	.L49:
 647 005e 00BF     		.align	2
 648              	.L48:
 649 0060 00000000 		.word	driveQ
 650 0064 00000000 		.word	dbg
 651              		.cfi_endproc
 652              	.LFE141:
ARM GAS  /tmp/cc1K537S.s 			page 25


 654              		.section	.text.Init_ToF_Sensors,"ax",%progbits
 655              		.align	1
 656              		.syntax unified
 657              		.thumb
 658              		.thumb_func
 660              	Init_ToF_Sensors:
 661              	.LFB138:
 148:Core/Src/freertos.c ****     HAL_GPIO_WritePin(TOF_LEFT_XSHUT_GPIO_Port,  TOF_LEFT_XSHUT_Pin,  GPIO_PIN_RESET);
 662              		.loc 1 148 1 is_stmt 1 view -0
 663              		.cfi_startproc
 664              		@ args = 0, pretend = 0, frame = 0
 665              		@ frame_needed = 0, uses_anonymous_args = 0
 666 0000 70B5     		push	{r4, r5, r6, lr}
 667              	.LCFI9:
 668              		.cfi_def_cfa_offset 16
 669              		.cfi_offset 4, -16
 670              		.cfi_offset 5, -12
 671              		.cfi_offset 6, -8
 672              		.cfi_offset 14, -4
 149:Core/Src/freertos.c ****     HAL_GPIO_WritePin(TOF_RIGHT_XSHUT_GPIO_Port, TOF_RIGHT_XSHUT_Pin, GPIO_PIN_RESET);
 673              		.loc 1 149 5 view .LVU182
 674 0002 2A4D     		ldr	r5, .L60
 675 0004 0022     		movs	r2, #0
 676 0006 0221     		movs	r1, #2
 677 0008 2846     		mov	r0, r5
 678 000a FFF7FEFF 		bl	HAL_GPIO_WritePin
 679              	.LVL39:
 150:Core/Src/freertos.c ****     osDelay(10);
 680              		.loc 1 150 5 view .LVU183
 681 000e 0022     		movs	r2, #0
 682 0010 0421     		movs	r1, #4
 683 0012 2846     		mov	r0, r5
 684 0014 FFF7FEFF 		bl	HAL_GPIO_WritePin
 685              	.LVL40:
 151:Core/Src/freertos.c **** 
 686              		.loc 1 151 5 view .LVU184
 687 0018 0A20     		movs	r0, #10
 688 001a FFF7FEFF 		bl	osDelay
 689              	.LVL41:
 153:Core/Src/freertos.c ****     osDelay(10);   /* t_boot ~1.2ms ‚ÄĒ žó¨žú† ŪŹ¨Ūē® */
 690              		.loc 1 153 5 view .LVU185
 691 001e 0122     		movs	r2, #1
 692 0020 0221     		movs	r1, #2
 693 0022 2846     		mov	r0, r5
 694 0024 FFF7FEFF 		bl	HAL_GPIO_WritePin
 695              	.LVL42:
 154:Core/Src/freertos.c ****     tof_left_ok  = VL53L0X_SetAddress(&tof_left, TOF_LEFT_ADDR_8BIT);   /* žöįžł° ÍłįŽŹô ž†Ą = Ž≤Ąž
 696              		.loc 1 154 5 view .LVU186
 697 0028 0A20     		movs	r0, #10
 698 002a FFF7FEFF 		bl	osDelay
 699              	.LVL43:
 155:Core/Src/freertos.c ****     tof_left_ok &= VL53L0X_Init(&tof_left);
 700              		.loc 1 155 5 view .LVU187
 155:Core/Src/freertos.c ****     tof_left_ok &= VL53L0X_Init(&tof_left);
 701              		.loc 1 155 20 is_stmt 0 view .LVU188
 702 002e 204E     		ldr	r6, .L60+4
 703 0030 6021     		movs	r1, #96
ARM GAS  /tmp/cc1K537S.s 			page 26


 704 0032 3046     		mov	r0, r6
 705 0034 FFF7FEFF 		bl	VL53L0X_SetAddress
 706              	.LVL44:
 155:Core/Src/freertos.c ****     tof_left_ok &= VL53L0X_Init(&tof_left);
 707              		.loc 1 155 18 discriminator 1 view .LVU189
 708 0038 1E4C     		ldr	r4, .L60+8
 709 003a 2070     		strb	r0, [r4]
 156:Core/Src/freertos.c **** 
 710              		.loc 1 156 5 is_stmt 1 view .LVU190
 156:Core/Src/freertos.c **** 
 711              		.loc 1 156 20 is_stmt 0 view .LVU191
 712 003c 3046     		mov	r0, r6
 713 003e FFF7FEFF 		bl	VL53L0X_Init
 714              	.LVL45:
 156:Core/Src/freertos.c **** 
 715              		.loc 1 156 17 discriminator 1 view .LVU192
 716 0042 2378     		ldrb	r3, [r4]	@ zero_extendqisi2
 717 0044 1840     		ands	r0, r0, r3
 718 0046 2070     		strb	r0, [r4]
 158:Core/Src/freertos.c ****     osDelay(10);
 719              		.loc 1 158 5 is_stmt 1 view .LVU193
 720 0048 0122     		movs	r2, #1
 721 004a 0421     		movs	r1, #4
 722 004c 2846     		mov	r0, r5
 723 004e FFF7FEFF 		bl	HAL_GPIO_WritePin
 724              	.LVL46:
 159:Core/Src/freertos.c ****     tof_right_ok = VL53L0X_Init(&tof_right);    /* ŽĒĒŪŹīŪäł 0x52 ‚ÄĒ žĘĆžł°žĚÄ žĚīŽĮł 0x60žĚīŽĚľ ž
 725              		.loc 1 159 5 view .LVU194
 726 0052 0A20     		movs	r0, #10
 727 0054 FFF7FEFF 		bl	osDelay
 728              	.LVL47:
 160:Core/Src/freertos.c **** 
 729              		.loc 1 160 5 view .LVU195
 160:Core/Src/freertos.c **** 
 730              		.loc 1 160 20 is_stmt 0 view .LVU196
 731 0058 1748     		ldr	r0, .L60+12
 732 005a FFF7FEFF 		bl	VL53L0X_Init
 733              	.LVL48:
 160:Core/Src/freertos.c **** 
 734              		.loc 1 160 18 discriminator 1 view .LVU197
 735 005e 174B     		ldr	r3, .L60+16
 736 0060 1870     		strb	r0, [r3]
 163:Core/Src/freertos.c ****     if (tof_right_ok) (void)VL53L0X_SetTimingBudget(&tof_right, TOF_BUDGET_US);
 737              		.loc 1 163 5 is_stmt 1 view .LVU198
 163:Core/Src/freertos.c ****     if (tof_right_ok) (void)VL53L0X_SetTimingBudget(&tof_right, TOF_BUDGET_US);
 738              		.loc 1 163 9 is_stmt 0 view .LVU199
 739 0062 2378     		ldrb	r3, [r4]	@ zero_extendqisi2
 163:Core/Src/freertos.c ****     if (tof_right_ok) (void)VL53L0X_SetTimingBudget(&tof_right, TOF_BUDGET_US);
 740              		.loc 1 163 8 view .LVU200
 741 0064 4BB9     		cbnz	r3, .L56
 742              	.L51:
 164:Core/Src/freertos.c **** 
 743              		.loc 1 164 5 is_stmt 1 view .LVU201
 164:Core/Src/freertos.c **** 
 744              		.loc 1 164 9 is_stmt 0 view .LVU202
 745 0066 154B     		ldr	r3, .L60+16
 746 0068 1B78     		ldrb	r3, [r3]	@ zero_extendqisi2
ARM GAS  /tmp/cc1K537S.s 			page 27


 164:Core/Src/freertos.c **** 
 747              		.loc 1 164 8 view .LVU203
 748 006a 63B9     		cbnz	r3, .L57
 749              	.L52:
 166:Core/Src/freertos.c ****     if (tof_right_ok) tof_right_ok = VL53L0X_StartContinuous(&tof_right);
 750              		.loc 1 166 5 is_stmt 1 view .LVU204
 166:Core/Src/freertos.c ****     if (tof_right_ok) tof_right_ok = VL53L0X_StartContinuous(&tof_right);
 751              		.loc 1 166 9 is_stmt 0 view .LVU205
 752 006c 114B     		ldr	r3, .L60+8
 753 006e 1B78     		ldrb	r3, [r3]	@ zero_extendqisi2
 166:Core/Src/freertos.c ****     if (tof_right_ok) tof_right_ok = VL53L0X_StartContinuous(&tof_right);
 754              		.loc 1 166 8 view .LVU206
 755 0070 7BB9     		cbnz	r3, .L58
 756              	.L53:
 167:Core/Src/freertos.c **** }
 757              		.loc 1 167 5 is_stmt 1 view .LVU207
 167:Core/Src/freertos.c **** }
 758              		.loc 1 167 9 is_stmt 0 view .LVU208
 759 0072 124B     		ldr	r3, .L60+16
 760 0074 1B78     		ldrb	r3, [r3]	@ zero_extendqisi2
 167:Core/Src/freertos.c **** }
 761              		.loc 1 167 8 view .LVU209
 762 0076 93B9     		cbnz	r3, .L59
 763              	.L50:
 168:Core/Src/freertos.c **** 
 764              		.loc 1 168 1 view .LVU210
 765 0078 70BD     		pop	{r4, r5, r6, pc}
 766              	.L56:
 163:Core/Src/freertos.c ****     if (tof_right_ok) (void)VL53L0X_SetTimingBudget(&tof_right, TOF_BUDGET_US);
 767              		.loc 1 163 23 is_stmt 1 discriminator 1 view .LVU211
 163:Core/Src/freertos.c ****     if (tof_right_ok) (void)VL53L0X_SetTimingBudget(&tof_right, TOF_BUDGET_US);
 768              		.loc 1 163 29 is_stmt 0 discriminator 1 view .LVU212
 769 007a 44F62061 		movw	r1, #20000
 770 007e 3046     		mov	r0, r6
 771 0080 FFF7FEFF 		bl	VL53L0X_SetTimingBudget
 772              	.LVL49:
 773 0084 EFE7     		b	.L51
 774              	.L57:
 164:Core/Src/freertos.c **** 
 775              		.loc 1 164 23 is_stmt 1 discriminator 1 view .LVU213
 164:Core/Src/freertos.c **** 
 776              		.loc 1 164 29 is_stmt 0 discriminator 1 view .LVU214
 777 0086 44F62061 		movw	r1, #20000
 778 008a 0B48     		ldr	r0, .L60+12
 779 008c FFF7FEFF 		bl	VL53L0X_SetTimingBudget
 780              	.LVL50:
 781 0090 ECE7     		b	.L52
 782              	.L58:
 166:Core/Src/freertos.c ****     if (tof_right_ok) tof_right_ok = VL53L0X_StartContinuous(&tof_right);
 783              		.loc 1 166 23 is_stmt 1 discriminator 1 view .LVU215
 166:Core/Src/freertos.c ****     if (tof_right_ok) tof_right_ok = VL53L0X_StartContinuous(&tof_right);
 784              		.loc 1 166 38 is_stmt 0 discriminator 1 view .LVU216
 785 0092 0748     		ldr	r0, .L60+4
 786 0094 FFF7FEFF 		bl	VL53L0X_StartContinuous
 787              	.LVL51:
 166:Core/Src/freertos.c ****     if (tof_right_ok) tof_right_ok = VL53L0X_StartContinuous(&tof_right);
 788              		.loc 1 166 36 discriminator 1 view .LVU217
ARM GAS  /tmp/cc1K537S.s 			page 28


 789 0098 064B     		ldr	r3, .L60+8
 790 009a 1870     		strb	r0, [r3]
 791 009c E9E7     		b	.L53
 792              	.L59:
 167:Core/Src/freertos.c **** }
 793              		.loc 1 167 23 is_stmt 1 discriminator 1 view .LVU218
 167:Core/Src/freertos.c **** }
 794              		.loc 1 167 38 is_stmt 0 discriminator 1 view .LVU219
 795 009e 0648     		ldr	r0, .L60+12
 796 00a0 FFF7FEFF 		bl	VL53L0X_StartContinuous
 797              	.LVL52:
 167:Core/Src/freertos.c **** }
 798              		.loc 1 167 36 discriminator 1 view .LVU220
 799 00a4 054B     		ldr	r3, .L60+16
 800 00a6 1870     		strb	r0, [r3]
 168:Core/Src/freertos.c **** 
 801              		.loc 1 168 1 view .LVU221
 802 00a8 E6E7     		b	.L50
 803              	.L61:
 804 00aa 00BF     		.align	2
 805              	.L60:
 806 00ac 00000240 		.word	1073872896
 807 00b0 00000000 		.word	tof_left
 808 00b4 00000000 		.word	tof_left_ok
 809 00b8 00000000 		.word	tof_right
 810 00bc 00000000 		.word	tof_right_ok
 811              		.cfi_endproc
 812              	.LFE138:
 814              		.section	.text.tof_record_side,"ax",%progbits
 815              		.align	1
 816              		.syntax unified
 817              		.thumb
 818              		.thumb_func
 820              	tof_record_side:
 821              	.LVL53:
 822              	.LFB139:
 181:Core/Src/freertos.c ****     if (!alive)
 823              		.loc 1 181 1 is_stmt 1 view -0
 824              		.cfi_startproc
 825              		@ args = 12, pretend = 0, frame = 8
 826              		@ frame_needed = 0, uses_anonymous_args = 0
 181:Core/Src/freertos.c ****     if (!alive)
 827              		.loc 1 181 1 is_stmt 0 view .LVU223
 828 0000 30B5     		push	{r4, r5, lr}
 829              	.LCFI10:
 830              		.cfi_def_cfa_offset 12
 831              		.cfi_offset 4, -12
 832              		.cfi_offset 5, -8
 833              		.cfi_offset 14, -4
 834 0002 83B0     		sub	sp, sp, #12
 835              	.LCFI11:
 836              		.cfi_def_cfa_offset 24
 837 0004 1446     		mov	r4, r2
 182:Core/Src/freertos.c ****     {
 838              		.loc 1 182 5 is_stmt 1 view .LVU224
 182:Core/Src/freertos.c ****     {
 839              		.loc 1 182 8 is_stmt 0 view .LVU225
ARM GAS  /tmp/cc1K537S.s 			page 29


 840 0006 69B9     		cbnz	r1, .L63
 184:Core/Src/freertos.c ****         for (int i = 0; i < SIDE_MED_WIN; i++) hist[i] = ULTRA_MAX_CM;
 841              		.loc 1 184 9 is_stmt 1 view .LVU226
 184:Core/Src/freertos.c ****         for (int i = 0; i < SIDE_MED_WIN; i++) hist[i] = ULTRA_MAX_CM;
 842              		.loc 1 184 17 is_stmt 0 view .LVU227
 843 0008 4FF47A73 		mov	r3, #1000
 844              	.LVL54:
 184:Core/Src/freertos.c ****         for (int i = 0; i < SIDE_MED_WIN; i++) hist[i] = ULTRA_MAX_CM;
 845              		.loc 1 184 17 view .LVU228
 846 000c 079A     		ldr	r2, [sp, #28]
 847              	.LVL55:
 184:Core/Src/freertos.c ****         for (int i = 0; i < SIDE_MED_WIN; i++) hist[i] = ULTRA_MAX_CM;
 848              		.loc 1 184 17 view .LVU229
 849 000e 1380     		strh	r3, [r2]	@ movhi
 185:Core/Src/freertos.c ****         return;
 850              		.loc 1 185 9 is_stmt 1 view .LVU230
 851              	.LBB5:
 185:Core/Src/freertos.c ****         return;
 852              		.loc 1 185 14 view .LVU231
 853              	.LVL56:
 185:Core/Src/freertos.c ****         return;
 854              		.loc 1 185 18 is_stmt 0 view .LVU232
 855 0010 0023     		movs	r3, #0
 185:Core/Src/freertos.c ****         return;
 856              		.loc 1 185 9 view .LVU233
 857 0012 03E0     		b	.L64
 858              	.LVL57:
 859              	.L65:
 185:Core/Src/freertos.c ****         return;
 860              		.loc 1 185 48 is_stmt 1 discriminator 3 view .LVU234
 185:Core/Src/freertos.c ****         return;
 861              		.loc 1 185 56 is_stmt 0 discriminator 3 view .LVU235
 862 0014 5022     		movs	r2, #80
 863 0016 24F81320 		strh	r2, [r4, r3, lsl #1]	@ movhi
 185:Core/Src/freertos.c ****         return;
 864              		.loc 1 185 44 is_stmt 1 discriminator 3 view .LVU236
 865 001a 0133     		adds	r3, r3, #1
 866              	.LVL58:
 867              	.L64:
 185:Core/Src/freertos.c ****         return;
 868              		.loc 1 185 27 discriminator 1 view .LVU237
 869 001c 022B     		cmp	r3, #2
 870 001e F9DD     		ble	.L65
 871              	.LVL59:
 872              	.L62:
 185:Core/Src/freertos.c ****         return;
 873              		.loc 1 185 27 is_stmt 0 discriminator 1 view .LVU238
 874              	.LBE5:
 216:Core/Src/freertos.c **** 
 875              		.loc 1 216 1 view .LVU239
 876 0020 03B0     		add	sp, sp, #12
 877              	.LCFI12:
 878              		.cfi_remember_state
 879              		.cfi_def_cfa_offset 12
 880              		@ sp needed
 881 0022 30BD     		pop	{r4, r5, pc}
 882              	.LVL60:
ARM GAS  /tmp/cc1K537S.s 			page 30


 883              	.L63:
 884              	.LCFI13:
 885              		.cfi_restore_state
 216:Core/Src/freertos.c **** 
 886              		.loc 1 216 1 view .LVU240
 887 0024 1D46     		mov	r5, r3
 189:Core/Src/freertos.c ****     int8_t st = VL53L0X_PollRangeMM(dev, &mm);
 888              		.loc 1 189 5 is_stmt 1 view .LVU241
 190:Core/Src/freertos.c ****     if (st > 0)
 889              		.loc 1 190 5 view .LVU242
 190:Core/Src/freertos.c ****     if (st > 0)
 890              		.loc 1 190 17 is_stmt 0 view .LVU243
 891 0026 0DF10601 		add	r1, sp, #6
 892              	.LVL61:
 190:Core/Src/freertos.c ****     if (st > 0)
 893              		.loc 1 190 17 view .LVU244
 894 002a FFF7FEFF 		bl	VL53L0X_PollRangeMM
 895              	.LVL62:
 191:Core/Src/freertos.c ****     {
 896              		.loc 1 191 5 is_stmt 1 view .LVU245
 191:Core/Src/freertos.c ****     {
 897              		.loc 1 191 8 is_stmt 0 view .LVU246
 898 002e 0028     		cmp	r0, #0
 191:Core/Src/freertos.c ****     {
 899              		.loc 1 191 8 view .LVU247
 900 0030 2CDD     		ble	.L67
 901              	.LBB6:
 193:Core/Src/freertos.c ****         *t_fresh = now;
 902              		.loc 1 193 9 is_stmt 1 view .LVU248
 193:Core/Src/freertos.c ****         *t_fresh = now;
 903              		.loc 1 193 15 is_stmt 0 view .LVU249
 904 0032 0023     		movs	r3, #0
 905 0034 2B70     		strb	r3, [r5]
 194:Core/Src/freertos.c ****         if (mm > TOF_CAP_MM) mm = TOF_CAP_MM;           /* ceiling: out-of-range(8190) žßÄŪĄį žļ° *
 906              		.loc 1 194 9 is_stmt 1 view .LVU250
 194:Core/Src/freertos.c ****         if (mm > TOF_CAP_MM) mm = TOF_CAP_MM;           /* ceiling: out-of-range(8190) žßÄŪĄį žļ° *
 907              		.loc 1 194 18 is_stmt 0 view .LVU251
 908 0036 069B     		ldr	r3, [sp, #24]
 909 0038 089A     		ldr	r2, [sp, #32]
 910 003a 1A60     		str	r2, [r3]
 195:Core/Src/freertos.c ****         *out_mm = mm;
 911              		.loc 1 195 9 is_stmt 1 view .LVU252
 195:Core/Src/freertos.c ****         *out_mm = mm;
 912              		.loc 1 195 16 is_stmt 0 view .LVU253
 913 003c BDF80630 		ldrh	r3, [sp, #6]
 195:Core/Src/freertos.c ****         *out_mm = mm;
 914              		.loc 1 195 12 view .LVU254
 915 0040 B3F57A7F 		cmp	r3, #1000
 916 0044 03D9     		bls	.L68
 195:Core/Src/freertos.c ****         *out_mm = mm;
 917              		.loc 1 195 30 is_stmt 1 discriminator 1 view .LVU255
 195:Core/Src/freertos.c ****         *out_mm = mm;
 918              		.loc 1 195 33 is_stmt 0 discriminator 1 view .LVU256
 919 0046 4FF47A73 		mov	r3, #1000
 920 004a ADF80630 		strh	r3, [sp, #6]	@ movhi
 921              	.L68:
 196:Core/Src/freertos.c ****         uint16_t cm = mm / 10U;
ARM GAS  /tmp/cc1K537S.s 			page 31


 922              		.loc 1 196 9 is_stmt 1 view .LVU257
 196:Core/Src/freertos.c ****         uint16_t cm = mm / 10U;
 923              		.loc 1 196 17 is_stmt 0 view .LVU258
 924 004e BDF80630 		ldrh	r3, [sp, #6]
 925 0052 079A     		ldr	r2, [sp, #28]
 926 0054 1380     		strh	r3, [r2]	@ movhi
 197:Core/Src/freertos.c ****         if (cm > ULTRA_MAX_CM) cm = ULTRA_MAX_CM;       /* drive Í≥ĄžłĶ žä§žľÄžĚľ(cm, 80 žÉĀŪēú) ž†
 927              		.loc 1 197 9 is_stmt 1 view .LVU259
 197:Core/Src/freertos.c ****         if (cm > ULTRA_MAX_CM) cm = ULTRA_MAX_CM;       /* drive Í≥ĄžłĶ žä§žľÄžĚľ(cm, 80 žÉĀŪēú) ž†
 928              		.loc 1 197 18 is_stmt 0 view .LVU260
 929 0056 2249     		ldr	r1, .L82
 930 0058 A1FB0321 		umull	r2, r1, r1, r3
 931 005c C908     		lsrs	r1, r1, #3
 932              	.LVL63:
 198:Core/Src/freertos.c ****         if (cm == 0U) cm = 1U;                          /* 0žĚÄ center_sanitizeÍįÄ 'ŪäłžěĄ'žúľŽ°ú ž
 933              		.loc 1 198 9 is_stmt 1 view .LVU261
 198:Core/Src/freertos.c ****         if (cm == 0U) cm = 1U;                          /* 0žĚÄ center_sanitizeÍįÄ 'ŪäłžěĄ'žúľŽ°ú ž
 934              		.loc 1 198 12 is_stmt 0 view .LVU262
 935 005e 40F22932 		movw	r2, #809
 936 0062 9342     		cmp	r3, r2
 937 0064 03D8     		bhi	.L78
 199:Core/Src/freertos.c ****         for (int i = SIDE_MED_WIN - 1; i > 0; i--) hist[i] = hist[i - 1];
 938              		.loc 1 199 9 is_stmt 1 view .LVU263
 199:Core/Src/freertos.c ****         for (int i = SIDE_MED_WIN - 1; i > 0; i--) hist[i] = hist[i - 1];
 939              		.loc 1 199 12 is_stmt 0 view .LVU264
 940 0066 092B     		cmp	r3, #9
 941 0068 02D8     		bhi	.L69
 199:Core/Src/freertos.c ****         for (int i = SIDE_MED_WIN - 1; i > 0; i--) hist[i] = hist[i - 1];
 942              		.loc 1 199 26 discriminator 1 view .LVU265
 943 006a 0121     		movs	r1, #1
 944              	.LVL64:
 199:Core/Src/freertos.c ****         for (int i = SIDE_MED_WIN - 1; i > 0; i--) hist[i] = hist[i - 1];
 945              		.loc 1 199 26 discriminator 1 view .LVU266
 946 006c 00E0     		b	.L69
 947              	.LVL65:
 948              	.L78:
 198:Core/Src/freertos.c ****         if (cm == 0U) cm = 1U;                          /* 0žĚÄ center_sanitizeÍįÄ 'ŪäłžěĄ'žúľŽ°ú ž
 949              		.loc 1 198 35 discriminator 1 view .LVU267
 950 006e 5021     		movs	r1, #80
 951              	.LVL66:
 952              	.L69:
 200:Core/Src/freertos.c ****         hist[0] = cm;
 953              		.loc 1 200 9 is_stmt 1 view .LVU268
 954              	.LBB7:
 200:Core/Src/freertos.c ****         hist[0] = cm;
 955              		.loc 1 200 14 view .LVU269
 200:Core/Src/freertos.c ****         hist[0] = cm;
 956              		.loc 1 200 18 is_stmt 0 view .LVU270
 957 0070 0223     		movs	r3, #2
 200:Core/Src/freertos.c ****         hist[0] = cm;
 958              		.loc 1 200 9 view .LVU271
 959 0072 07E0     		b	.L70
 960              	.LVL67:
 961              	.L71:
 200:Core/Src/freertos.c ****         hist[0] = cm;
 962              		.loc 1 200 52 is_stmt 1 discriminator 3 view .LVU272
 200:Core/Src/freertos.c ****         hist[0] = cm;
ARM GAS  /tmp/cc1K537S.s 			page 32


 963              		.loc 1 200 66 is_stmt 0 discriminator 3 view .LVU273
 964 0074 03F10042 		add	r2, r3, #-2147483648
 965 0078 013A     		subs	r2, r2, #1
 966 007a 34F81220 		ldrh	r2, [r4, r2, lsl #1]
 200:Core/Src/freertos.c ****         hist[0] = cm;
 967              		.loc 1 200 60 discriminator 3 view .LVU274
 968 007e 24F81320 		strh	r2, [r4, r3, lsl #1]	@ movhi
 200:Core/Src/freertos.c ****         hist[0] = cm;
 969              		.loc 1 200 48 is_stmt 1 discriminator 3 view .LVU275
 970 0082 013B     		subs	r3, r3, #1
 971              	.LVL68:
 972              	.L70:
 200:Core/Src/freertos.c ****         hist[0] = cm;
 973              		.loc 1 200 42 discriminator 1 view .LVU276
 974 0084 002B     		cmp	r3, #0
 975 0086 F5DC     		bgt	.L71
 976              	.LBE7:
 201:Core/Src/freertos.c ****     }
 977              		.loc 1 201 9 view .LVU277
 201:Core/Src/freertos.c ****     }
 978              		.loc 1 201 17 is_stmt 0 view .LVU278
 979 0088 2180     		strh	r1, [r4]	@ movhi
 980              	.LBE6:
 981 008a C9E7     		b	.L62
 982              	.LVL69:
 983              	.L67:
 203:Core/Src/freertos.c ****     {
 984              		.loc 1 203 10 is_stmt 1 view .LVU279
 203:Core/Src/freertos.c ****     {
 985              		.loc 1 203 13 is_stmt 0 view .LVU280
 986 008c 0028     		cmp	r0, #0
 987 008e 0BDB     		blt	.L81
 211:Core/Src/freertos.c ****     {
 988              		.loc 1 211 10 is_stmt 1 view .LVU281
 211:Core/Src/freertos.c ****     {
 989              		.loc 1 211 21 is_stmt 0 view .LVU282
 990 0090 069B     		ldr	r3, [sp, #24]
 991 0092 1B68     		ldr	r3, [r3]
 211:Core/Src/freertos.c ****     {
 992              		.loc 1 211 19 view .LVU283
 993 0094 089A     		ldr	r2, [sp, #32]
 994 0096 D31A     		subs	r3, r2, r3
 211:Core/Src/freertos.c ****     {
 995              		.loc 1 211 13 view .LVU284
 996 0098 962B     		cmp	r3, #150
 997 009a C1D9     		bls	.L62
 213:Core/Src/freertos.c ****         for (int i = 0; i < SIDE_MED_WIN; i++) hist[i] = ULTRA_MAX_CM;
 998              		.loc 1 213 9 is_stmt 1 view .LVU285
 213:Core/Src/freertos.c ****         for (int i = 0; i < SIDE_MED_WIN; i++) hist[i] = ULTRA_MAX_CM;
 999              		.loc 1 213 17 is_stmt 0 view .LVU286
 1000 009c 4FF47A73 		mov	r3, #1000
 1001 00a0 079A     		ldr	r2, [sp, #28]
 1002 00a2 1380     		strh	r3, [r2]	@ movhi
 214:Core/Src/freertos.c ****     }
 1003              		.loc 1 214 9 is_stmt 1 view .LVU287
 1004              	.LBB8:
 214:Core/Src/freertos.c ****     }
ARM GAS  /tmp/cc1K537S.s 			page 33


 1005              		.loc 1 214 14 view .LVU288
 1006              	.LVL70:
 214:Core/Src/freertos.c ****     }
 1007              		.loc 1 214 18 is_stmt 0 view .LVU289
 1008 00a4 0023     		movs	r3, #0
 214:Core/Src/freertos.c ****     }
 1009              		.loc 1 214 9 view .LVU290
 1010 00a6 18E0     		b	.L76
 1011              	.LVL71:
 1012              	.L81:
 214:Core/Src/freertos.c ****     }
 1013              		.loc 1 214 9 view .LVU291
 1014              	.LBE8:
 205:Core/Src/freertos.c ****         {
 1015              		.loc 1 205 9 is_stmt 1 view .LVU292
 205:Core/Src/freertos.c ****         {
 1016              		.loc 1 205 13 is_stmt 0 view .LVU293
 1017 00a8 2B78     		ldrb	r3, [r5]	@ zero_extendqisi2
 205:Core/Src/freertos.c ****         {
 1018              		.loc 1 205 12 view .LVU294
 1019 00aa FF2B     		cmp	r3, #255
 1020 00ac B8D0     		beq	.L62
 205:Core/Src/freertos.c ****         {
 1021              		.loc 1 205 29 discriminator 1 view .LVU295
 1022 00ae 0133     		adds	r3, r3, #1
 1023 00b0 DBB2     		uxtb	r3, r3
 205:Core/Src/freertos.c ****         {
 1024              		.loc 1 205 26 discriminator 1 view .LVU296
 1025 00b2 2B70     		strb	r3, [r5]
 1026 00b4 022B     		cmp	r3, #2
 1027 00b6 B3D9     		bls	.L62
 207:Core/Src/freertos.c ****             for (int i = 0; i < SIDE_MED_WIN; i++) hist[i] = ULTRA_MAX_CM;
 1028              		.loc 1 207 13 is_stmt 1 view .LVU297
 207:Core/Src/freertos.c ****             for (int i = 0; i < SIDE_MED_WIN; i++) hist[i] = ULTRA_MAX_CM;
 1029              		.loc 1 207 21 is_stmt 0 view .LVU298
 1030 00b8 4FF47A73 		mov	r3, #1000
 1031 00bc 079A     		ldr	r2, [sp, #28]
 1032 00be 1380     		strh	r3, [r2]	@ movhi
 208:Core/Src/freertos.c ****         }
 1033              		.loc 1 208 13 is_stmt 1 view .LVU299
 1034              	.LBB9:
 208:Core/Src/freertos.c ****         }
 1035              		.loc 1 208 18 view .LVU300
 1036              	.LVL72:
 208:Core/Src/freertos.c ****         }
 1037              		.loc 1 208 22 is_stmt 0 view .LVU301
 1038 00c0 0023     		movs	r3, #0
 208:Core/Src/freertos.c ****         }
 1039              		.loc 1 208 13 view .LVU302
 1040 00c2 03E0     		b	.L74
 1041              	.LVL73:
 1042              	.L75:
 208:Core/Src/freertos.c ****         }
 1043              		.loc 1 208 52 is_stmt 1 discriminator 3 view .LVU303
 208:Core/Src/freertos.c ****         }
 1044              		.loc 1 208 60 is_stmt 0 discriminator 3 view .LVU304
 1045 00c4 5022     		movs	r2, #80
ARM GAS  /tmp/cc1K537S.s 			page 34


 1046 00c6 24F81320 		strh	r2, [r4, r3, lsl #1]	@ movhi
 208:Core/Src/freertos.c ****         }
 1047              		.loc 1 208 48 is_stmt 1 discriminator 3 view .LVU305
 1048 00ca 0133     		adds	r3, r3, #1
 1049              	.LVL74:
 1050              	.L74:
 208:Core/Src/freertos.c ****         }
 1051              		.loc 1 208 31 discriminator 1 view .LVU306
 1052 00cc 022B     		cmp	r3, #2
 1053 00ce F9DD     		ble	.L75
 1054 00d0 A6E7     		b	.L62
 1055              	.LVL75:
 1056              	.L77:
 208:Core/Src/freertos.c ****         }
 1057              		.loc 1 208 31 is_stmt 0 discriminator 1 view .LVU307
 1058              	.LBE9:
 1059              	.LBB10:
 214:Core/Src/freertos.c ****     }
 1060              		.loc 1 214 48 is_stmt 1 discriminator 3 view .LVU308
 214:Core/Src/freertos.c ****     }
 1061              		.loc 1 214 56 is_stmt 0 discriminator 3 view .LVU309
 1062 00d2 5022     		movs	r2, #80
 1063 00d4 24F81320 		strh	r2, [r4, r3, lsl #1]	@ movhi
 214:Core/Src/freertos.c ****     }
 1064              		.loc 1 214 44 is_stmt 1 discriminator 3 view .LVU310
 1065 00d8 0133     		adds	r3, r3, #1
 1066              	.LVL76:
 1067              	.L76:
 214:Core/Src/freertos.c ****     }
 1068              		.loc 1 214 27 discriminator 1 view .LVU311
 1069 00da 022B     		cmp	r3, #2
 1070 00dc F9DD     		ble	.L77
 1071 00de 9FE7     		b	.L62
 1072              	.L83:
 1073              		.align	2
 1074              	.L82:
 1075 00e0 CDCCCCCC 		.word	-858993459
 1076              	.LBE10:
 1077              		.cfi_endproc
 1078              	.LFE139:
 1080              		.section	.text.StartTask02,"ax",%progbits
 1081              		.align	1
 1082              		.global	StartTask02
 1083              		.syntax unified
 1084              		.thumb
 1085              		.thumb_func
 1087              	StartTask02:
 1088              	.LVL77:
 1089              	.LFB144:
 415:Core/Src/freertos.c ****   /* USER CODE BEGIN StartTask02 */
 1090              		.loc 1 415 1 view -0
 1091              		.cfi_startproc
 1092              		@ args = 0, pretend = 0, frame = 40
 1093              		@ frame_needed = 0, uses_anonymous_args = 0
 415:Core/Src/freertos.c ****   /* USER CODE BEGIN StartTask02 */
 1094              		.loc 1 415 1 is_stmt 0 view .LVU313
 1095 0000 2DE9F04F 		push	{r4, r5, r6, r7, r8, r9, r10, fp, lr}
ARM GAS  /tmp/cc1K537S.s 			page 35


 1096              	.LCFI14:
 1097              		.cfi_def_cfa_offset 36
 1098              		.cfi_offset 4, -36
 1099              		.cfi_offset 5, -32
 1100              		.cfi_offset 6, -28
 1101              		.cfi_offset 7, -24
 1102              		.cfi_offset 8, -20
 1103              		.cfi_offset 9, -16
 1104              		.cfi_offset 10, -12
 1105              		.cfi_offset 11, -8
 1106              		.cfi_offset 14, -4
 1107 0004 8FB0     		sub	sp, sp, #60
 1108              	.LCFI15:
 1109              		.cfi_def_cfa_offset 96
 417:Core/Src/freertos.c **** 
 1110              		.loc 1 417 3 is_stmt 1 view .LVU314
 426:Core/Src/freertos.c ****   static uint16_t hist_l[SIDE_MED_WIN];
 1111              		.loc 1 426 3 view .LVU315
 427:Core/Src/freertos.c ****   static uint16_t hist_r[SIDE_MED_WIN];
 1112              		.loc 1 427 3 view .LVU316
 428:Core/Src/freertos.c ****   for (int i = 0; i < SIDE_MED_WIN; i++)
 1113              		.loc 1 428 3 view .LVU317
 429:Core/Src/freertos.c ****   {
 1114              		.loc 1 429 3 view .LVU318
 1115              	.LBB11:
 429:Core/Src/freertos.c ****   {
 1116              		.loc 1 429 8 view .LVU319
 1117              	.LVL78:
 429:Core/Src/freertos.c ****   {
 1118              		.loc 1 429 12 is_stmt 0 view .LVU320
 1119 0006 0023     		movs	r3, #0
 429:Core/Src/freertos.c ****   {
 1120              		.loc 1 429 3 view .LVU321
 1121 0008 0AE0     		b	.L85
 1122              	.LVL79:
 1123              	.L86:
 431:Core/Src/freertos.c ****       hist_l[i] = ULTRA_MAX_CM;
 1124              		.loc 1 431 7 is_stmt 1 view .LVU322
 431:Core/Src/freertos.c ****       hist_l[i] = ULTRA_MAX_CM;
 1125              		.loc 1 431 17 is_stmt 0 view .LVU323
 1126 000a 5022     		movs	r2, #80
 1127 000c 9449     		ldr	r1, .L100
 1128 000e 21F81320 		strh	r2, [r1, r3, lsl #1]	@ movhi
 432:Core/Src/freertos.c ****       hist_r[i] = ULTRA_MAX_CM;
 1129              		.loc 1 432 7 is_stmt 1 view .LVU324
 432:Core/Src/freertos.c ****       hist_r[i] = ULTRA_MAX_CM;
 1130              		.loc 1 432 17 is_stmt 0 view .LVU325
 1131 0012 9449     		ldr	r1, .L100+4
 1132 0014 21F81320 		strh	r2, [r1, r3, lsl #1]	@ movhi
 433:Core/Src/freertos.c ****   }
 1133              		.loc 1 433 7 is_stmt 1 view .LVU326
 433:Core/Src/freertos.c ****   }
 1134              		.loc 1 433 17 is_stmt 0 view .LVU327
 1135 0018 9349     		ldr	r1, .L100+8
 1136 001a 21F81320 		strh	r2, [r1, r3, lsl #1]	@ movhi
 429:Core/Src/freertos.c ****   {
 1137              		.loc 1 429 38 is_stmt 1 discriminator 3 view .LVU328
ARM GAS  /tmp/cc1K537S.s 			page 36


 1138 001e 0133     		adds	r3, r3, #1
 1139              	.LVL80:
 1140              	.L85:
 429:Core/Src/freertos.c ****   {
 1141              		.loc 1 429 21 discriminator 1 view .LVU329
 1142 0020 022B     		cmp	r3, #2
 1143 0022 F2DD     		ble	.L86
 1144              	.LBE11:
 435:Core/Src/freertos.c ****   static uint8_t  tof_miss[2]  = {0, 0};   /* žĘĆ/žöį ToF I2C žóźŽü¨ žóįžÜć žĻīžöīŪäł (SIDE_FAIL_LI
 1145              		.loc 1 435 3 view .LVU330
 436:Core/Src/freertos.c ****   static uint32_t tof_fresh[2] = {0, 0};   /* žĘĆ/žöį ŽßąžßÄŽßČ žÉą žÉėŪĒĆ žčúÍįĀ (TOF_STALE_MS ž†ē
 1146              		.loc 1 436 3 view .LVU331
 437:Core/Src/freertos.c ****   static uint8_t  imu_live = 0;     /* IMU žÉĚž°ī Í≤ĆžĚīŪäł */
 1147              		.loc 1 437 3 view .LVU332
 438:Core/Src/freertos.c ****   static uint8_t  imu_fail = 0;     /* žĚĹÍłį žóįžÜć žč§ŪĆ® žĻīžöīŪäł */
 1148              		.loc 1 438 3 view .LVU333
 439:Core/Src/freertos.c ****   static uint32_t t_imu_retry = 0;  /* žā¨ŽßĚ ŪõĄ žě¨žčúŽŹĄ ŪÉÄžĚīŽ®ł */
 1149              		.loc 1 439 3 view .LVU334
 440:Core/Src/freertos.c ****   static uint32_t t_calib = 0;      /* CALIB_STAT ŽĒĒŽ≤ĄÍ∑ł žĚĹÍłį žä§Ž°úŪčÄ */
 1150              		.loc 1 440 3 view .LVU335
 441:Core/Src/freertos.c ****   static uint32_t t_loop = 0;       /* žā¨žĚīŪĀī ž£ľÍłį žł°ž†ē */
 1151              		.loc 1 441 3 view .LVU336
 442:Core/Src/freertos.c ****   static BNO055_Euler imu;          /* žĶúÍ∑ľ žúĶŪē©Íįí (read žč§ŪĆ® žčú žßĀž†ĄÍįí žú†žßÄ) */
 1152              		.loc 1 442 3 view .LVU337
 443:Core/Src/freertos.c **** 
 1153              		.loc 1 443 3 view .LVU338
 445:Core/Src/freertos.c ****   uint16_t d_front;
 1154              		.loc 1 445 3 view .LVU339
 445:Core/Src/freertos.c ****   uint16_t d_front;
 1155              		.loc 1 445 12 is_stmt 0 view .LVU340
 1156 0024 4FF0500B 		mov	fp, #80
 1157 0028 ADF836B0 		strh	fp, [sp, #54]	@ movhi
 1158              	.LVL81:
 446:Core/Src/freertos.c ****   uint8_t  v_front;
 1159              		.loc 1 446 3 is_stmt 1 view .LVU341
 447:Core/Src/freertos.c **** 
 1160              		.loc 1 447 3 view .LVU342
 449:Core/Src/freertos.c ****   imu_live = dbg.imu_ok;            /* Init žĄĪÍ≥ĶŪĖąžĚĄ ŽēĆŽßĆ žÉĚž°ī žčúžěĎ (žč§ŪĆ® žčú ÍĪįŽ¶¨-on
 1161              		.loc 1 449 3 view .LVU343
 1162 002c FFF7FEFF 		bl	osThreadGetId
 1163              	.LVL82:
 449:Core/Src/freertos.c ****   imu_live = dbg.imu_ok;            /* Init žĄĪÍ≥ĶŪĖąžĚĄ ŽēĆŽßĆ žÉĚž°ī žčúžěĎ (žč§ŪĆ® žčú ÍĪįŽ¶¨-on
 1164              		.loc 1 449 3 is_stmt 0 discriminator 1 view .LVU344
 1165 0030 FFF7FEFF 		bl	Ultra_Init
 1166              	.LVL83:
 450:Core/Src/freertos.c ****   Init_ToF_Sensors();               /* XSHUT žąúžį® ÍłįŽŹô + žĘĆžł° ž£ľžÜĆ 0x60 žě¨ŽįįžĻė + žóįžÜćž
 1167              		.loc 1 450 3 is_stmt 1 view .LVU345
 450:Core/Src/freertos.c ****   Init_ToF_Sensors();               /* XSHUT žąúžį® ÍłįŽŹô + žĘĆžł° ž£ľžÜĆ 0x60 žě¨ŽįįžĻė + žóįžÜćž
 1168              		.loc 1 450 17 is_stmt 0 view .LVU346
 1169 0034 8D4B     		ldr	r3, .L100+12
 1170 0036 93F83C20 		ldrb	r2, [r3, #60]	@ zero_extendqisi2
 450:Core/Src/freertos.c ****   Init_ToF_Sensors();               /* XSHUT žąúžį® ÍłįŽŹô + žĘĆžł° ž£ľžÜĆ 0x60 žě¨ŽįįžĻė + žóįžÜćž
 1171              		.loc 1 450 12 view .LVU347
 1172 003a 8D4B     		ldr	r3, .L100+16
 1173 003c 1A70     		strb	r2, [r3]
 451:Core/Src/freertos.c ****   tof_fresh[0] = HAL_GetTick();     /* ž†ēž≤ī ŽßĆŽ£Ć ŪÉÄžĚīŽ®ł Íłįž§Äž†ź ‚ÄĒ ÍłįŽŹô žßĀŪõĄ žė§ŪÉź Ž
 1174              		.loc 1 451 3 is_stmt 1 view .LVU348
ARM GAS  /tmp/cc1K537S.s 			page 37


 1175 003e FFF7FEFF 		bl	Init_ToF_Sensors
 1176              	.LVL84:
 452:Core/Src/freertos.c ****   tof_fresh[1] = tof_fresh[0];
 1177              		.loc 1 452 3 view .LVU349
 452:Core/Src/freertos.c ****   tof_fresh[1] = tof_fresh[0];
 1178              		.loc 1 452 18 is_stmt 0 view .LVU350
 1179 0042 FFF7FEFF 		bl	HAL_GetTick
 1180              	.LVL85:
 452:Core/Src/freertos.c ****   tof_fresh[1] = tof_fresh[0];
 1181              		.loc 1 452 16 discriminator 1 view .LVU351
 1182 0046 8B4B     		ldr	r3, .L100+20
 1183 0048 1860     		str	r0, [r3]
 453:Core/Src/freertos.c **** 
 1184              		.loc 1 453 3 is_stmt 1 view .LVU352
 453:Core/Src/freertos.c **** 
 1185              		.loc 1 453 16 is_stmt 0 view .LVU353
 1186 004a 5860     		str	r0, [r3, #4]
 445:Core/Src/freertos.c ****   uint16_t d_front;
 1187              		.loc 1 445 48 view .LVU354
 1188 004c D946     		mov	r9, fp
 1189 004e 48E0     		b	.L92
 1190              	.LVL86:
 1191              	.L98:
 1192              	.LBB12:
 494:Core/Src/freertos.c ****           {
 1193              		.loc 1 494 11 is_stmt 1 view .LVU355
 494:Core/Src/freertos.c ****           {
 1194              		.loc 1 494 15 is_stmt 0 view .LVU356
 1195 0050 8948     		ldr	r0, .L100+24
 1196              	.LVL87:
 494:Core/Src/freertos.c ****           {
 1197              		.loc 1 494 15 view .LVU357
 1198 0052 FFF7FEFF 		bl	BNO055_ReadEuler
 1199              	.LVL88:
 494:Core/Src/freertos.c ****           {
 1200              		.loc 1 494 14 discriminator 1 view .LVU358
 1201 0056 0028     		cmp	r0, #0
 1202 0058 00F0D380 		beq	.L88
 496:Core/Src/freertos.c ****               imu_ctrl_live = 1U;
 1203              		.loc 1 496 15 is_stmt 1 view .LVU359
 496:Core/Src/freertos.c ****               imu_ctrl_live = 1U;
 1204              		.loc 1 496 24 is_stmt 0 view .LVU360
 1205 005c 874B     		ldr	r3, .L100+28
 1206 005e 0022     		movs	r2, #0
 1207 0060 1A70     		strb	r2, [r3]
 497:Core/Src/freertos.c ****               dbg.heading = imu.heading;
 1208              		.loc 1 497 15 is_stmt 1 view .LVU361
 1209              	.LVL89:
 498:Core/Src/freertos.c ****               dbg.roll    = imu.roll;
 1210              		.loc 1 498 15 view .LVU362
 498:Core/Src/freertos.c ****               dbg.roll    = imu.roll;
 1211              		.loc 1 498 32 is_stmt 0 view .LVU363
 1212 0062 854A     		ldr	r2, .L100+24
 1213 0064 1168     		ldr	r1, [r2]	@ float
 498:Core/Src/freertos.c ****               dbg.roll    = imu.roll;
 1214              		.loc 1 498 27 view .LVU364
 1215 0066 814B     		ldr	r3, .L100+12
ARM GAS  /tmp/cc1K537S.s 			page 38


 1216 0068 1963     		str	r1, [r3, #48]	@ float
 499:Core/Src/freertos.c ****               dbg.pitch   = imu.pitch;
 1217              		.loc 1 499 15 is_stmt 1 view .LVU365
 499:Core/Src/freertos.c ****               dbg.pitch   = imu.pitch;
 1218              		.loc 1 499 32 is_stmt 0 view .LVU366
 1219 006a 5168     		ldr	r1, [r2, #4]	@ float
 499:Core/Src/freertos.c ****               dbg.pitch   = imu.pitch;
 1220              		.loc 1 499 27 view .LVU367
 1221 006c 5963     		str	r1, [r3, #52]	@ float
 500:Core/Src/freertos.c ****           }
 1222              		.loc 1 500 15 is_stmt 1 view .LVU368
 500:Core/Src/freertos.c ****           }
 1223              		.loc 1 500 32 is_stmt 0 view .LVU369
 1224 006e 9268     		ldr	r2, [r2, #8]	@ float
 500:Core/Src/freertos.c ****           }
 1225              		.loc 1 500 27 view .LVU370
 1226 0070 9A63     		str	r2, [r3, #56]	@ float
 497:Core/Src/freertos.c ****               dbg.heading = imu.heading;
 1227              		.loc 1 497 29 view .LVU371
 1228 0072 0126     		movs	r6, #1
 1229              	.LVL90:
 1230              	.L89:
 507:Core/Src/freertos.c ****           {
 1231              		.loc 1 507 11 is_stmt 1 view .LVU372
 507:Core/Src/freertos.c ****           {
 1232              		.loc 1 507 20 is_stmt 0 view .LVU373
 1233 0074 824B     		ldr	r3, .L100+32
 1234 0076 1B68     		ldr	r3, [r3]
 1235 0078 EB1A     		subs	r3, r5, r3
 507:Core/Src/freertos.c ****           {
 1236              		.loc 1 507 14 view .LVU374
 1237 007a B3F5FA7F 		cmp	r3, #500
 1238 007e 80F0CF80 		bcs	.L97
 1239              	.LVL91:
 1240              	.L90:
 528:Core/Src/freertos.c **** 
 1241              		.loc 1 528 7 is_stmt 1 view .LVU375
 528:Core/Src/freertos.c **** 
 1242              		.loc 1 528 20 is_stmt 0 view .LVU376
 1243 0082 7A4B     		ldr	r3, .L100+12
 1244 0084 83F83D60 		strb	r6, [r3, #61]
 531:Core/Src/freertos.c ****       din.f          = f;
 1245              		.loc 1 531 7 is_stmt 1 view .LVU377
 532:Core/Src/freertos.c ****       din.l          = l;
 1246              		.loc 1 532 7 view .LVU378
 532:Core/Src/freertos.c ****       din.l          = l;
 1247              		.loc 1 532 22 is_stmt 0 view .LVU379
 1248 0088 BDF83630 		ldrh	r3, [sp, #54]
 1249 008c ADF81C30 		strh	r3, [sp, #28]	@ movhi
 533:Core/Src/freertos.c ****       din.r          = r;
 1250              		.loc 1 533 7 is_stmt 1 view .LVU380
 533:Core/Src/freertos.c ****       din.r          = r;
 1251              		.loc 1 533 22 is_stmt 0 view .LVU381
 1252 0090 ADF81EB0 		strh	fp, [sp, #30]	@ movhi
 534:Core/Src/freertos.c ****       din.f_valid    = front_cycle_valid;
 1253              		.loc 1 534 7 is_stmt 1 view .LVU382
 534:Core/Src/freertos.c ****       din.f_valid    = front_cycle_valid;
ARM GAS  /tmp/cc1K537S.s 			page 39


 1254              		.loc 1 534 22 is_stmt 0 view .LVU383
 1255 0094 ADF82090 		strh	r9, [sp, #32]	@ movhi
 535:Core/Src/freertos.c ****       din.side_valid = 1U;
 1256              		.loc 1 535 7 is_stmt 1 view .LVU384
 535:Core/Src/freertos.c ****       din.side_valid = 1U;
 1257              		.loc 1 535 22 is_stmt 0 view .LVU385
 1258 0098 8DF82240 		strb	r4, [sp, #34]
 536:Core/Src/freertos.c ****       din.front_miss = front_miss;
 1259              		.loc 1 536 7 is_stmt 1 view .LVU386
 536:Core/Src/freertos.c ****       din.front_miss = front_miss;
 1260              		.loc 1 536 22 is_stmt 0 view .LVU387
 1261 009c 0123     		movs	r3, #1
 1262 009e 8DF82330 		strb	r3, [sp, #35]
 537:Core/Src/freertos.c ****       din.heading    = imu.heading;   /* imu_ctrl_live=0žĚīŽ©ī drive.cÍįÄ Ž¨īžčú(ÍĪįŽ¶¨-only ÍįēŽďĪ
 1263              		.loc 1 537 7 is_stmt 1 view .LVU388
 537:Core/Src/freertos.c ****       din.heading    = imu.heading;   /* imu_ctrl_live=0žĚīŽ©ī drive.cÍįÄ Ž¨īžčú(ÍĪįŽ¶¨-only ÍįēŽďĪ
 1264              		.loc 1 537 22 is_stmt 0 view .LVU389
 1265 00a2 784B     		ldr	r3, .L100+36
 1266 00a4 1B78     		ldrb	r3, [r3]	@ zero_extendqisi2
 1267 00a6 8DF82430 		strb	r3, [sp, #36]
 538:Core/Src/freertos.c ****       din.imu_live   = imu_ctrl_live;
 1268              		.loc 1 538 7 is_stmt 1 view .LVU390
 538:Core/Src/freertos.c ****       din.imu_live   = imu_ctrl_live;
 1269              		.loc 1 538 27 is_stmt 0 view .LVU391
 1270 00aa 734B     		ldr	r3, .L100+24
 1271 00ac 1B68     		ldr	r3, [r3]	@ float
 538:Core/Src/freertos.c ****       din.imu_live   = imu_ctrl_live;
 1272              		.loc 1 538 22 view .LVU392
 1273 00ae 0A93     		str	r3, [sp, #40]	@ float
 539:Core/Src/freertos.c ****       din.now        = HAL_GetTick();
 1274              		.loc 1 539 7 is_stmt 1 view .LVU393
 539:Core/Src/freertos.c ****       din.now        = HAL_GetTick();
 1275              		.loc 1 539 22 is_stmt 0 view .LVU394
 1276 00b0 8DF82C60 		strb	r6, [sp, #44]
 540:Core/Src/freertos.c ****       if (osMessageQueuePut(driveQ, &din, 0U, 0U) != osOK) { dbg.q_drop++; }
 1277              		.loc 1 540 7 is_stmt 1 view .LVU395
 540:Core/Src/freertos.c ****       if (osMessageQueuePut(driveQ, &din, 0U, 0U) != osOK) { dbg.q_drop++; }
 1278              		.loc 1 540 24 is_stmt 0 view .LVU396
 1279 00b4 FFF7FEFF 		bl	HAL_GetTick
 1280              	.LVL92:
 540:Core/Src/freertos.c ****       if (osMessageQueuePut(driveQ, &din, 0U, 0U) != osOK) { dbg.q_drop++; }
 1281              		.loc 1 540 22 discriminator 1 view .LVU397
 1282 00b8 0C90     		str	r0, [sp, #48]
 541:Core/Src/freertos.c **** 
 1283              		.loc 1 541 7 is_stmt 1 view .LVU398
 541:Core/Src/freertos.c **** 
 1284              		.loc 1 541 11 is_stmt 0 view .LVU399
 1285 00ba 0023     		movs	r3, #0
 1286 00bc 1A46     		mov	r2, r3
 1287 00be 07A9     		add	r1, sp, #28
 1288 00c0 7148     		ldr	r0, .L100+40
 1289 00c2 0068     		ldr	r0, [r0]
 1290 00c4 FFF7FEFF 		bl	osMessageQueuePut
 1291              	.LVL93:
 541:Core/Src/freertos.c **** 
 1292              		.loc 1 541 10 discriminator 1 view .LVU400
 1293 00c8 18B1     		cbz	r0, .L91
ARM GAS  /tmp/cc1K537S.s 			page 40


 541:Core/Src/freertos.c **** 
 1294              		.loc 1 541 62 is_stmt 1 discriminator 1 view .LVU401
 541:Core/Src/freertos.c **** 
 1295              		.loc 1 541 65 is_stmt 0 discriminator 1 view .LVU402
 1296 00ca 684A     		ldr	r2, .L100+12
 1297 00cc 536C     		ldr	r3, [r2, #68]
 541:Core/Src/freertos.c **** 
 1298              		.loc 1 541 72 discriminator 1 view .LVU403
 1299 00ce 0133     		adds	r3, r3, #1
 1300 00d0 5364     		str	r3, [r2, #68]
 1301              	.L91:
 543:Core/Src/freertos.c **** 
 1302              		.loc 1 543 7 is_stmt 1 view .LVU404
 543:Core/Src/freertos.c **** 
 1303              		.loc 1 543 33 is_stmt 0 view .LVU405
 1304 00d2 0020     		movs	r0, #0
 1305 00d4 FFF7FEFF 		bl	uxTaskGetStackHighWaterMark
 1306              	.LVL94:
 543:Core/Src/freertos.c **** 
 1307              		.loc 1 543 21 discriminator 1 view .LVU406
 1308 00d8 644B     		ldr	r3, .L100+12
 1309 00da D864     		str	r0, [r3, #76]
 547:Core/Src/freertos.c ****   }
 1310              		.loc 1 547 7 is_stmt 1 view .LVU407
 1311 00dc 0520     		movs	r0, #5
 1312 00de FFF7FEFF 		bl	osDelay
 1313              	.LVL95:
 1314              	.LBE12:
 455:Core/Src/freertos.c ****   {
 1315              		.loc 1 455 3 view .LVU408
 1316              	.L92:
 455:Core/Src/freertos.c ****   {
 1317              		.loc 1 455 3 view .LVU409
 1318              	.LBB13:
 457:Core/Src/freertos.c ****       dbg.loop_ms = now - t_loop;   /* žā¨žĚīŪĀī ž£ľÍłį ŽĮłŽü¨ (front-left-front-right ŽįėžĚĎžßÄžóį
 1319              		.loc 1 457 7 view .LVU410
 457:Core/Src/freertos.c ****       dbg.loop_ms = now - t_loop;   /* žā¨žĚīŪĀī ž£ľÍłį ŽĮłŽü¨ (front-left-front-right ŽįėžĚĎžßÄžóį
 1320              		.loc 1 457 22 is_stmt 0 view .LVU411
 1321 00e2 FFF7FEFF 		bl	HAL_GetTick
 1322              	.LVL96:
 1323 00e6 0546     		mov	r5, r0
 1324              	.LVL97:
 458:Core/Src/freertos.c ****       t_loop = now;
 1325              		.loc 1 458 7 is_stmt 1 view .LVU412
 458:Core/Src/freertos.c ****       t_loop = now;
 1326              		.loc 1 458 25 is_stmt 0 view .LVU413
 1327 00e8 684A     		ldr	r2, .L100+44
 1328 00ea 1368     		ldr	r3, [r2]
 1329 00ec C31A     		subs	r3, r0, r3
 458:Core/Src/freertos.c ****       t_loop = now;
 1330              		.loc 1 458 19 view .LVU414
 1331 00ee 5F4F     		ldr	r7, .L100+12
 1332 00f0 FB62     		str	r3, [r7, #44]
 459:Core/Src/freertos.c **** 
 1333              		.loc 1 459 7 is_stmt 1 view .LVU415
 459:Core/Src/freertos.c **** 
 1334              		.loc 1 459 14 is_stmt 0 view .LVU416
ARM GAS  /tmp/cc1K537S.s 			page 41


 1335 00f2 1060     		str	r0, [r2]
 461:Core/Src/freertos.c **** 
 1336              		.loc 1 461 7 is_stmt 1 view .LVU417
 1337              	.LVL98:
 467:Core/Src/freertos.c ****       front_cycle_valid |= v_front;
 1338              		.loc 1 467 7 view .LVU418
 467:Core/Src/freertos.c ****       front_cycle_valid |= v_front;
 1339              		.loc 1 467 17 is_stmt 0 view .LVU419
 1340 00f4 0DA9     		add	r1, sp, #52
 1341 00f6 0620     		movs	r0, #6
 1342              	.LVL99:
 467:Core/Src/freertos.c ****       front_cycle_valid |= v_front;
 1343              		.loc 1 467 17 view .LVU420
 1344 00f8 FFF7FEFF 		bl	Ultra_Measure
 1345              	.LVL100:
 1346 00fc 0446     		mov	r4, r0
 1347              	.LVL101:
 468:Core/Src/freertos.c ****       sensor_record_front(v_front, d_front, hist_f, &front_miss, &f);
 1348              		.loc 1 468 7 is_stmt 1 view .LVU421
 469:Core/Src/freertos.c ****       sensor_put_front_early(f, l, r, d_front, v_front, front_miss, imu.heading);
 1349              		.loc 1 469 7 view .LVU422
 1350 00fe DFF884A1 		ldr	r10, .L100+36
 1351 0102 0DF13606 		add	r6, sp, #54
 1352 0106 0096     		str	r6, [sp]
 1353 0108 5346     		mov	r3, r10
 1354 010a 554A     		ldr	r2, .L100
 1355 010c BDF83410 		ldrh	r1, [sp, #52]
 1356 0110 FFF7FEFF 		bl	sensor_record_front
 1357              	.LVL102:
 470:Core/Src/freertos.c **** 
 1358              		.loc 1 470 7 view .LVU423
 1359 0114 DFF86081 		ldr	r8, .L100+24
 1360 0118 9AF80030 		ldrb	r3, [r10]	@ zero_extendqisi2
 1361 011c 0193     		str	r3, [sp, #4]
 1362 011e 0094     		str	r4, [sp]
 1363 0120 98ED000A 		vldr.32	s0, [r8]
 1364 0124 BDF83430 		ldrh	r3, [sp, #52]
 1365 0128 4A46     		mov	r2, r9
 1366 012a 5946     		mov	r1, fp
 1367 012c BDF83600 		ldrh	r0, [sp, #54]
 1368 0130 FFF7FEFF 		bl	sensor_put_front_early
 1369              	.LVL103:
 474:Core/Src/freertos.c **** 
 1370              		.loc 1 474 7 view .LVU424
 1371 0134 0295     		str	r5, [sp, #8]
 1372 0136 564B     		ldr	r3, .L100+48
 1373 0138 0193     		str	r3, [sp, #4]
 1374 013a 4E4A     		ldr	r2, .L100+20
 1375 013c 0092     		str	r2, [sp]
 1376 013e 554B     		ldr	r3, .L100+52
 1377 0140 484A     		ldr	r2, .L100+4
 1378 0142 5549     		ldr	r1, .L100+56
 1379 0144 0978     		ldrb	r1, [r1]	@ zero_extendqisi2
 1380 0146 5548     		ldr	r0, .L100+60
 1381 0148 FFF7FEFF 		bl	tof_record_side
 1382              	.LVL104:
 476:Core/Src/freertos.c ****       front_cycle_valid |= v_front;
ARM GAS  /tmp/cc1K537S.s 			page 42


 1383              		.loc 1 476 7 view .LVU425
 476:Core/Src/freertos.c ****       front_cycle_valid |= v_front;
 1384              		.loc 1 476 17 is_stmt 0 view .LVU426
 1385 014c 0DA9     		add	r1, sp, #52
 1386 014e 0620     		movs	r0, #6
 1387 0150 FFF7FEFF 		bl	Ultra_Measure
 1388              	.LVL105:
 477:Core/Src/freertos.c ****       sensor_record_front(v_front, d_front, hist_f, &front_miss, &f);
 1389              		.loc 1 477 7 is_stmt 1 view .LVU427
 477:Core/Src/freertos.c ****       sensor_record_front(v_front, d_front, hist_f, &front_miss, &f);
 1390              		.loc 1 477 25 is_stmt 0 view .LVU428
 1391 0154 0590     		str	r0, [sp, #20]
 1392 0156 0443     		orrs	r4, r4, r0
 1393              	.LVL106:
 477:Core/Src/freertos.c ****       sensor_record_front(v_front, d_front, hist_f, &front_miss, &f);
 1394              		.loc 1 477 25 view .LVU429
 1395 0158 E4B2     		uxtb	r4, r4
 1396              	.LVL107:
 478:Core/Src/freertos.c ****       sensor_put_front_early(f, l, r, d_front, v_front, front_miss, imu.heading);
 1397              		.loc 1 478 7 is_stmt 1 view .LVU430
 1398 015a 0096     		str	r6, [sp]
 1399 015c 5346     		mov	r3, r10
 1400 015e 404A     		ldr	r2, .L100
 1401 0160 BDF83410 		ldrh	r1, [sp, #52]
 1402 0164 FFF7FEFF 		bl	sensor_record_front
 1403              	.LVL108:
 479:Core/Src/freertos.c **** 
 1404              		.loc 1 479 7 view .LVU431
 1405 0168 9AF80030 		ldrb	r3, [r10]	@ zero_extendqisi2
 1406 016c 0193     		str	r3, [sp, #4]
 1407 016e 0599     		ldr	r1, [sp, #20]
 1408 0170 0091     		str	r1, [sp]
 1409 0172 98ED000A 		vldr.32	s0, [r8]
 1410 0176 BDF83430 		ldrh	r3, [sp, #52]
 1411 017a 4A46     		mov	r2, r9
 1412 017c 5946     		mov	r1, fp
 1413 017e BDF83600 		ldrh	r0, [sp, #54]
 1414 0182 FFF7FEFF 		bl	sensor_put_front_early
 1415              	.LVL109:
 481:Core/Src/freertos.c **** 
 1416              		.loc 1 481 7 view .LVU432
 1417 0186 DFF8E080 		ldr	r8, .L100+8
 1418 018a 0295     		str	r5, [sp, #8]
 1419 018c 444E     		ldr	r6, .L100+64
 1420 018e 0196     		str	r6, [sp, #4]
 1421 0190 384A     		ldr	r2, .L100+20
 1422 0192 131D     		adds	r3, r2, #4
 1423 0194 0093     		str	r3, [sp]
 1424 0196 3F4A     		ldr	r2, .L100+52
 1425 0198 531C     		adds	r3, r2, #1
 1426 019a 4246     		mov	r2, r8
 1427 019c 4149     		ldr	r1, .L100+68
 1428 019e 0978     		ldrb	r1, [r1]	@ zero_extendqisi2
 1429 01a0 4148     		ldr	r0, .L100+72
 1430 01a2 FFF7FEFF 		bl	tof_record_side
 1431              	.LVL110:
 483:Core/Src/freertos.c ****       r = median_n(hist_r, SIDE_MED_WIN);
ARM GAS  /tmp/cc1K537S.s 			page 43


 1432              		.loc 1 483 7 view .LVU433
 483:Core/Src/freertos.c ****       r = median_n(hist_r, SIDE_MED_WIN);
 1433              		.loc 1 483 11 is_stmt 0 view .LVU434
 1434 01a6 0321     		movs	r1, #3
 1435 01a8 2E48     		ldr	r0, .L100+4
 1436 01aa FFF7FEFF 		bl	median_n
 1437              	.LVL111:
 1438 01ae 8346     		mov	fp, r0
 1439              	.LVL112:
 484:Core/Src/freertos.c ****       wall_error = (int16_t)((int32_t)dist_left - (int32_t)dist_right);   /* [mm] +=žĘĆžł°žĚī ŽćĒ Ū
 1440              		.loc 1 484 7 is_stmt 1 view .LVU435
 484:Core/Src/freertos.c ****       wall_error = (int16_t)((int32_t)dist_left - (int32_t)dist_right);   /* [mm] +=žĘĆžł°žĚī ŽćĒ Ū
 1441              		.loc 1 484 11 is_stmt 0 view .LVU436
 1442 01b0 0321     		movs	r1, #3
 1443 01b2 4046     		mov	r0, r8
 1444 01b4 FFF7FEFF 		bl	median_n
 1445              	.LVL113:
 1446 01b8 8146     		mov	r9, r0
 1447              	.LVL114:
 485:Core/Src/freertos.c ****       dbg.front = f; dbg.left = l; dbg.right = r;
 1448              		.loc 1 485 7 is_stmt 1 view .LVU437
 485:Core/Src/freertos.c ****       dbg.front = f; dbg.left = l; dbg.right = r;
 1449              		.loc 1 485 49 is_stmt 0 view .LVU438
 1450 01ba 354B     		ldr	r3, .L100+48
 1451 01bc 1B88     		ldrh	r3, [r3]
 1452 01be 9BB2     		uxth	r3, r3
 1453 01c0 3288     		ldrh	r2, [r6]
 1454 01c2 92B2     		uxth	r2, r2
 1455 01c4 9B1A     		subs	r3, r3, r2
 485:Core/Src/freertos.c ****       dbg.front = f; dbg.left = l; dbg.right = r;
 1456              		.loc 1 485 20 view .LVU439
 1457 01c6 1BB2     		sxth	r3, r3
 485:Core/Src/freertos.c ****       dbg.front = f; dbg.left = l; dbg.right = r;
 1458              		.loc 1 485 18 view .LVU440
 1459 01c8 384A     		ldr	r2, .L100+76
 1460 01ca 1380     		strh	r3, [r2]	@ movhi
 486:Core/Src/freertos.c **** 
 1461              		.loc 1 486 7 is_stmt 1 view .LVU441
 486:Core/Src/freertos.c **** 
 1462              		.loc 1 486 17 is_stmt 0 view .LVU442
 1463 01cc BDF83630 		ldrh	r3, [sp, #54]
 1464 01d0 BB84     		strh	r3, [r7, #36]	@ movhi
 486:Core/Src/freertos.c **** 
 1465              		.loc 1 486 22 is_stmt 1 view .LVU443
 486:Core/Src/freertos.c **** 
 1466              		.loc 1 486 31 is_stmt 0 view .LVU444
 1467 01d2 A7F826B0 		strh	fp, [r7, #38]	@ movhi
 486:Core/Src/freertos.c **** 
 1468              		.loc 1 486 36 is_stmt 1 view .LVU445
 486:Core/Src/freertos.c **** 
 1469              		.loc 1 486 46 is_stmt 0 view .LVU446
 1470 01d6 3885     		strh	r0, [r7, #40]	@ movhi
 491:Core/Src/freertos.c ****       if (imu_live)
 1471              		.loc 1 491 7 is_stmt 1 view .LVU447
 1472              	.LVL115:
 492:Core/Src/freertos.c ****       {
 1473              		.loc 1 492 7 view .LVU448
ARM GAS  /tmp/cc1K537S.s 			page 44


 492:Core/Src/freertos.c ****       {
 1474              		.loc 1 492 11 is_stmt 0 view .LVU449
 1475 01d8 254B     		ldr	r3, .L100+16
 1476 01da 1F78     		ldrb	r7, [r3]	@ zero_extendqisi2
 492:Core/Src/freertos.c ****       {
 1477              		.loc 1 492 10 view .LVU450
 1478 01dc 002F     		cmp	r7, #0
 1479 01de 7FF437AF 		bne	.L98
 513:Core/Src/freertos.c ****       {
 1480              		.loc 1 513 12 is_stmt 1 view .LVU451
 513:Core/Src/freertos.c ****       {
 1481              		.loc 1 513 19 is_stmt 0 view .LVU452
 1482 01e2 224B     		ldr	r3, .L100+12
 1483 01e4 93F83C30 		ldrb	r3, [r3, #60]	@ zero_extendqisi2
 513:Core/Src/freertos.c ****       {
 1484              		.loc 1 513 15 view .LVU453
 1485 01e8 03F0FF06 		and	r6, r3, #255
 1486 01ec 002B     		cmp	r3, #0
 1487 01ee 3FF448AF 		beq	.L90
 513:Core/Src/freertos.c ****       {
 1488              		.loc 1 513 35 discriminator 1 view .LVU454
 1489 01f2 2F4B     		ldr	r3, .L100+80
 1490 01f4 1B68     		ldr	r3, [r3]
 1491 01f6 EB1A     		subs	r3, r5, r3
 513:Core/Src/freertos.c ****       {
 1492              		.loc 1 513 27 discriminator 1 view .LVU455
 1493 01f8 B3F5FA7F 		cmp	r3, #500
 1494 01fc 18D2     		bcs	.L99
 491:Core/Src/freertos.c ****       if (imu_live)
 1495              		.loc 1 491 15 view .LVU456
 1496 01fe 3E46     		mov	r6, r7
 1497 0200 3FE7     		b	.L90
 1498              	.LVL116:
 1499              	.L88:
 502:Core/Src/freertos.c ****           {
 1500              		.loc 1 502 16 is_stmt 1 view .LVU457
 502:Core/Src/freertos.c ****           {
 1501              		.loc 1 502 20 is_stmt 0 view .LVU458
 1502 0202 1E4A     		ldr	r2, .L100+28
 1503 0204 1378     		ldrb	r3, [r2]	@ zero_extendqisi2
 1504 0206 0133     		adds	r3, r3, #1
 1505 0208 DBB2     		uxtb	r3, r3
 502:Core/Src/freertos.c ****           {
 1506              		.loc 1 502 19 view .LVU459
 1507 020a 1370     		strb	r3, [r2]
 1508 020c 042B     		cmp	r3, #4
 1509 020e 05D9     		bls	.L93
 504:Core/Src/freertos.c ****               t_imu_retry = now;
 1510              		.loc 1 504 15 is_stmt 1 view .LVU460
 504:Core/Src/freertos.c ****               t_imu_retry = now;
 1511              		.loc 1 504 24 is_stmt 0 view .LVU461
 1512 0210 0026     		movs	r6, #0
 1513 0212 174B     		ldr	r3, .L100+16
 1514 0214 1E70     		strb	r6, [r3]
 505:Core/Src/freertos.c ****           }
 1515              		.loc 1 505 15 is_stmt 1 view .LVU462
 505:Core/Src/freertos.c ****           }
ARM GAS  /tmp/cc1K537S.s 			page 45


 1516              		.loc 1 505 27 is_stmt 0 view .LVU463
 1517 0216 264B     		ldr	r3, .L100+80
 1518 0218 1D60     		str	r5, [r3]
 1519 021a 2BE7     		b	.L89
 1520              	.L93:
 491:Core/Src/freertos.c ****       if (imu_live)
 1521              		.loc 1 491 15 view .LVU464
 1522 021c 0026     		movs	r6, #0
 1523 021e 29E7     		b	.L89
 1524              	.LVL117:
 1525              	.L97:
 509:Core/Src/freertos.c ****               dbg.imu_calib = BNO055_ReadCalibStatus();
 1526              		.loc 1 509 15 is_stmt 1 view .LVU465
 509:Core/Src/freertos.c ****               dbg.imu_calib = BNO055_ReadCalibStatus();
 1527              		.loc 1 509 23 is_stmt 0 view .LVU466
 1528 0220 174B     		ldr	r3, .L100+32
 1529 0222 1D60     		str	r5, [r3]
 510:Core/Src/freertos.c ****           }
 1530              		.loc 1 510 15 is_stmt 1 view .LVU467
 510:Core/Src/freertos.c ****           }
 1531              		.loc 1 510 31 is_stmt 0 view .LVU468
 1532 0224 FFF7FEFF 		bl	BNO055_ReadCalibStatus
 1533              	.LVL118:
 510:Core/Src/freertos.c ****           }
 1534              		.loc 1 510 29 discriminator 1 view .LVU469
 1535 0228 104B     		ldr	r3, .L100+12
 1536 022a 83F83E00 		strb	r0, [r3, #62]
 1537 022e 28E7     		b	.L90
 1538              	.LVL119:
 1539              	.L99:
 517:Core/Src/freertos.c ****           if (BNO055_ReadEuler(&imu))
 1540              		.loc 1 517 11 is_stmt 1 view .LVU470
 517:Core/Src/freertos.c ****           if (BNO055_ReadEuler(&imu))
 1541              		.loc 1 517 23 is_stmt 0 view .LVU471
 1542 0230 1F4B     		ldr	r3, .L100+80
 1543 0232 1D60     		str	r5, [r3]
 518:Core/Src/freertos.c ****           {
 1544              		.loc 1 518 11 is_stmt 1 view .LVU472
 518:Core/Src/freertos.c ****           {
 1545              		.loc 1 518 15 is_stmt 0 view .LVU473
 1546 0234 1048     		ldr	r0, .L100+24
 1547              	.LVL120:
 518:Core/Src/freertos.c ****           {
 1548              		.loc 1 518 15 view .LVU474
 1549 0236 FFF7FEFF 		bl	BNO055_ReadEuler
 1550              	.LVL121:
 518:Core/Src/freertos.c ****           {
 1551              		.loc 1 518 14 discriminator 1 view .LVU475
 1552 023a 70B1     		cbz	r0, .L95
 520:Core/Src/freertos.c ****               imu_fail = 0;
 1553              		.loc 1 520 15 is_stmt 1 view .LVU476
 520:Core/Src/freertos.c ****               imu_fail = 0;
 1554              		.loc 1 520 24 is_stmt 0 view .LVU477
 1555 023c 0126     		movs	r6, #1
 1556 023e 0C4B     		ldr	r3, .L100+16
 1557 0240 1E70     		strb	r6, [r3]
 521:Core/Src/freertos.c ****               imu_ctrl_live = 1U;
ARM GAS  /tmp/cc1K537S.s 			page 46


 1558              		.loc 1 521 15 is_stmt 1 view .LVU478
 521:Core/Src/freertos.c ****               imu_ctrl_live = 1U;
 1559              		.loc 1 521 24 is_stmt 0 view .LVU479
 1560 0242 0E4B     		ldr	r3, .L100+28
 1561 0244 0022     		movs	r2, #0
 1562 0246 1A70     		strb	r2, [r3]
 522:Core/Src/freertos.c ****               dbg.heading = imu.heading;
 1563              		.loc 1 522 15 is_stmt 1 view .LVU480
 1564              	.LVL122:
 523:Core/Src/freertos.c ****               dbg.roll    = imu.roll;
 1565              		.loc 1 523 15 view .LVU481
 523:Core/Src/freertos.c ****               dbg.roll    = imu.roll;
 1566              		.loc 1 523 32 is_stmt 0 view .LVU482
 1567 0248 0B4A     		ldr	r2, .L100+24
 1568 024a 1168     		ldr	r1, [r2]	@ float
 523:Core/Src/freertos.c ****               dbg.roll    = imu.roll;
 1569              		.loc 1 523 27 view .LVU483
 1570 024c 074B     		ldr	r3, .L100+12
 1571 024e 1963     		str	r1, [r3, #48]	@ float
 524:Core/Src/freertos.c ****               dbg.pitch   = imu.pitch;
 1572              		.loc 1 524 15 is_stmt 1 view .LVU484
 524:Core/Src/freertos.c ****               dbg.pitch   = imu.pitch;
 1573              		.loc 1 524 32 is_stmt 0 view .LVU485
 1574 0250 5168     		ldr	r1, [r2, #4]	@ float
 524:Core/Src/freertos.c ****               dbg.pitch   = imu.pitch;
 1575              		.loc 1 524 27 view .LVU486
 1576 0252 5963     		str	r1, [r3, #52]	@ float
 525:Core/Src/freertos.c ****           }
 1577              		.loc 1 525 15 is_stmt 1 view .LVU487
 525:Core/Src/freertos.c ****           }
 1578              		.loc 1 525 32 is_stmt 0 view .LVU488
 1579 0254 9268     		ldr	r2, [r2, #8]	@ float
 525:Core/Src/freertos.c ****           }
 1580              		.loc 1 525 27 view .LVU489
 1581 0256 9A63     		str	r2, [r3, #56]	@ float
 1582 0258 13E7     		b	.L90
 1583              	.LVL123:
 1584              	.L95:
 491:Core/Src/freertos.c ****       if (imu_live)
 1585              		.loc 1 491 15 view .LVU490
 1586 025a 3E46     		mov	r6, r7
 1587 025c 11E7     		b	.L90
 1588              	.L101:
 1589 025e 00BF     		.align	2
 1590              	.L100:
 1591 0260 00000000 		.word	hist_f.11
 1592 0264 00000000 		.word	hist_l.10
 1593 0268 00000000 		.word	hist_r.9
 1594 026c 00000000 		.word	dbg
 1595 0270 00000000 		.word	imu_live.8
 1596 0274 00000000 		.word	tof_fresh.7
 1597 0278 00000000 		.word	imu.4
 1598 027c 00000000 		.word	imu_fail.2
 1599 0280 00000000 		.word	t_calib.0
 1600 0284 00000000 		.word	front_miss.5
 1601 0288 00000000 		.word	driveQ
 1602 028c 00000000 		.word	t_loop.6
ARM GAS  /tmp/cc1K537S.s 			page 47


 1603 0290 00000000 		.word	dist_left
 1604 0294 00000000 		.word	tof_miss.3
 1605 0298 00000000 		.word	tof_left_ok
 1606 029c 00000000 		.word	tof_left
 1607 02a0 00000000 		.word	dist_right
 1608 02a4 00000000 		.word	tof_right_ok
 1609 02a8 00000000 		.word	tof_right
 1610 02ac 00000000 		.word	wall_error
 1611 02b0 00000000 		.word	t_imu_retry.1
 1612              	.LBE13:
 1613              		.cfi_endproc
 1614              	.LFE144:
 1616              		.section	.text.MX_FREERTOS_Init,"ax",%progbits
 1617              		.align	1
 1618              		.global	MX_FREERTOS_Init
 1619              		.syntax unified
 1620              		.thumb
 1621              		.thumb_func
 1623              	MX_FREERTOS_Init:
 1624              	.LFB142:
 283:Core/Src/freertos.c ****   /* USER CODE BEGIN Init */
 1625              		.loc 1 283 29 is_stmt 1 view -0
 1626              		.cfi_startproc
 1627              		@ args = 0, pretend = 0, frame = 8
 1628              		@ frame_needed = 0, uses_anonymous_args = 0
 1629 0000 10B5     		push	{r4, lr}
 1630              	.LCFI16:
 1631              		.cfi_def_cfa_offset 8
 1632              		.cfi_offset 4, -8
 1633              		.cfi_offset 14, -4
 1634 0002 82B0     		sub	sp, sp, #8
 1635              	.LCFI17:
 1636              		.cfi_def_cfa_offset 16
 302:Core/Src/freertos.c **** 
 1637              		.loc 1 302 3 view .LVU492
 302:Core/Src/freertos.c **** 
 1638              		.loc 1 302 17 is_stmt 0 view .LVU493
 1639 0004 184A     		ldr	r2, .L104
 1640 0006 0121     		movs	r1, #1
 1641 0008 1020     		movs	r0, #16
 1642 000a FFF7FEFF 		bl	osMessageQueueNew
 1643              	.LVL124:
 302:Core/Src/freertos.c **** 
 1644              		.loc 1 302 15 discriminator 1 view .LVU494
 1645 000e 174B     		ldr	r3, .L104+4
 1646 0010 1860     		str	r0, [r3]
 305:Core/Src/freertos.c ****   /* žÉĚžĄĪ žč§ŪĆ®(NULL) žčú put/getžĚī ž†ĄŽ∂Ä žóźŽü¨ ‚Üí MotorTaskÍįÄ Car_Stop + refresh žÉĚŽěĶ ‚Ü
 1647              		.loc 1 305 3 is_stmt 1 view .LVU495
 305:Core/Src/freertos.c ****   /* žÉĚžĄĪ žč§ŪĆ®(NULL) žčú put/getžĚī ž†ĄŽ∂Ä žóźŽü¨ ‚Üí MotorTaskÍįÄ Car_Stop + refresh žÉĚŽěĶ ‚Ü
 1648              		.loc 1 305 12 is_stmt 0 view .LVU496
 1649 0012 0022     		movs	r2, #0
 1650 0014 1821     		movs	r1, #24
 1651 0016 0220     		movs	r0, #2
 1652 0018 FFF7FEFF 		bl	osMessageQueueNew
 1653              	.LVL125:
 305:Core/Src/freertos.c ****   /* žÉĚžĄĪ žč§ŪĆ®(NULL) žčú put/getžĚī ž†ĄŽ∂Ä žóźŽü¨ ‚Üí MotorTaskÍįÄ Car_Stop + refresh žÉĚŽěĶ ‚Ü
 1654              		.loc 1 305 10 discriminator 1 view .LVU497
ARM GAS  /tmp/cc1K537S.s 			page 48


 1655 001c 144B     		ldr	r3, .L104+8
 1656 001e 1860     		str	r0, [r3]
 311:Core/Src/freertos.c ****   HAL_UART_Receive_IT(&huart1, (uint8_t *)&bt_rx_byte, 1);
 1657              		.loc 1 311 3 is_stmt 1 view .LVU498
 1658              	.LBB14:
 311:Core/Src/freertos.c ****   HAL_UART_Receive_IT(&huart1, (uint8_t *)&bt_rx_byte, 1);
 1659              		.loc 1 311 3 view .LVU499
 1660 0020 0024     		movs	r4, #0
 1661 0022 0194     		str	r4, [sp, #4]
 311:Core/Src/freertos.c ****   HAL_UART_Receive_IT(&huart1, (uint8_t *)&bt_rx_byte, 1);
 1662              		.loc 1 311 3 view .LVU500
 1663 0024 1348     		ldr	r0, .L104+12
 1664 0026 0368     		ldr	r3, [r0]
 1665 0028 1A68     		ldr	r2, [r3]
 1666 002a 0192     		str	r2, [sp, #4]
 311:Core/Src/freertos.c ****   HAL_UART_Receive_IT(&huart1, (uint8_t *)&bt_rx_byte, 1);
 1667              		.loc 1 311 3 view .LVU501
 1668 002c 5B68     		ldr	r3, [r3, #4]
 1669 002e 0193     		str	r3, [sp, #4]
 311:Core/Src/freertos.c ****   HAL_UART_Receive_IT(&huart1, (uint8_t *)&bt_rx_byte, 1);
 1670              		.loc 1 311 3 view .LVU502
 1671 0030 019B     		ldr	r3, [sp, #4]
 1672              	.LBE14:
 311:Core/Src/freertos.c ****   HAL_UART_Receive_IT(&huart1, (uint8_t *)&bt_rx_byte, 1);
 1673              		.loc 1 311 3 view .LVU503
 312:Core/Src/freertos.c ****   /* USER CODE END RTOS_QUEUES */
 1674              		.loc 1 312 3 view .LVU504
 1675 0032 0122     		movs	r2, #1
 1676 0034 1049     		ldr	r1, .L104+16
 1677 0036 FFF7FEFF 		bl	HAL_UART_Receive_IT
 1678              	.LVL126:
 317:Core/Src/freertos.c **** 
 1679              		.loc 1 317 3 view .LVU505
 317:Core/Src/freertos.c **** 
 1680              		.loc 1 317 21 is_stmt 0 view .LVU506
 1681 003a 104A     		ldr	r2, .L104+20
 1682 003c 2146     		mov	r1, r4
 1683 003e 1048     		ldr	r0, .L104+24
 1684 0040 FFF7FEFF 		bl	osThreadNew
 1685              	.LVL127:
 317:Core/Src/freertos.c **** 
 1686              		.loc 1 317 19 discriminator 1 view .LVU507
 1687 0044 0F4B     		ldr	r3, .L104+28
 1688 0046 1860     		str	r0, [r3]
 320:Core/Src/freertos.c **** 
 1689              		.loc 1 320 3 is_stmt 1 view .LVU508
 320:Core/Src/freertos.c **** 
 1690              		.loc 1 320 22 is_stmt 0 view .LVU509
 1691 0048 0F4A     		ldr	r2, .L104+32
 1692 004a 2146     		mov	r1, r4
 1693 004c 0F48     		ldr	r0, .L104+36
 1694 004e FFF7FEFF 		bl	osThreadNew
 1695              	.LVL128:
 320:Core/Src/freertos.c **** 
 1696              		.loc 1 320 20 discriminator 1 view .LVU510
 1697 0052 0F4B     		ldr	r3, .L104+40
 1698 0054 1860     		str	r0, [r3]
ARM GAS  /tmp/cc1K537S.s 			page 49


 323:Core/Src/freertos.c **** 
 1699              		.loc 1 323 3 is_stmt 1 view .LVU511
 323:Core/Src/freertos.c **** 
 1700              		.loc 1 323 25 is_stmt 0 view .LVU512
 1701 0056 0F4A     		ldr	r2, .L104+44
 1702 0058 2146     		mov	r1, r4
 1703 005a 0F48     		ldr	r0, .L104+48
 1704 005c FFF7FEFF 		bl	osThreadNew
 1705              	.LVL129:
 323:Core/Src/freertos.c **** 
 1706              		.loc 1 323 23 discriminator 1 view .LVU513
 1707 0060 0E4B     		ldr	r3, .L104+52
 1708 0062 1860     		str	r0, [r3]
 333:Core/Src/freertos.c **** 
 1709              		.loc 1 333 1 view .LVU514
 1710 0064 02B0     		add	sp, sp, #8
 1711              	.LCFI18:
 1712              		.cfi_def_cfa_offset 8
 1713              		@ sp needed
 1714 0066 10BD     		pop	{r4, pc}
 1715              	.L105:
 1716              		.align	2
 1717              	.L104:
 1718 0068 00000000 		.word	uartQ_attributes
 1719 006c 00000000 		.word	uartQHandle
 1720 0070 00000000 		.word	driveQ
 1721 0074 00000000 		.word	huart1
 1722 0078 00000000 		.word	bt_rx_byte
 1723 007c 00000000 		.word	MotorTask_attributes
 1724 0080 00000000 		.word	StartDefaultTask
 1725 0084 00000000 		.word	MotorTaskHandle
 1726 0088 00000000 		.word	SensorTask_attributes
 1727 008c 00000000 		.word	StartTask02
 1728 0090 00000000 		.word	SensorTaskHandle
 1729 0094 00000000 		.word	BluetoothTask_attributes
 1730 0098 00000000 		.word	StartTask03
 1731 009c 00000000 		.word	BluetoothTaskHandle
 1732              		.cfi_endproc
 1733              	.LFE142:
 1735              		.section	.text.HAL_GPIO_EXTI_Callback,"ax",%progbits
 1736              		.align	1
 1737              		.global	HAL_GPIO_EXTI_Callback
 1738              		.syntax unified
 1739              		.thumb
 1740              		.thumb_func
 1742              	HAL_GPIO_EXTI_Callback:
 1743              	.LVL130:
 1744              	.LFB146:
 604:Core/Src/freertos.c **** 
 605:Core/Src/freertos.c ****       default:                                   /* ŽĮłž†ēžĚė ŽįĒžĚīŪäł Ž¨īžčú */
 606:Core/Src/freertos.c ****         break;
 607:Core/Src/freertos.c ****     }
 608:Core/Src/freertos.c ****   }
 609:Core/Src/freertos.c ****   /* USER CODE END StartTask03 */
 610:Core/Src/freertos.c **** }
 611:Core/Src/freertos.c **** 
 612:Core/Src/freertos.c **** /* Private application code --------------------------------------------------*/
ARM GAS  /tmp/cc1K537S.s 			page 50


 613:Core/Src/freertos.c **** /* USER CODE BEGIN Application */
 614:Core/Src/freertos.c **** 
 615:Core/Src/freertos.c **** /* BNO055 INT(PA0/EXTI0) žĹúŽįĪ (ÍĶ¨ main.cžóźžĄú žĚīŽŹô).
 616:Core/Src/freertos.c ****  * ž£ľžĚė: žúĶŪē© ŽćįžĚīŪĄįžóĒ ž†Ąžö© DRDY INTÍįÄ žóÜžĚĆ ‚Üí headingžĚÄ SensorTaskžóźžĄú polling.
 617:Core/Src/freertos.c ****  *       žĚī žĹúŽįĪžĚÄ INT ŽįįžĄ† Í≤Äž¶Ě/Ž™®žÖė(any-motion ŽďĪ) ŪäłŽ¶¨ÍĪįžö© žĻīžöīŪĄį. */
 618:Core/Src/freertos.c **** void HAL_GPIO_EXTI_Callback(uint16_t GPIO_Pin)
 619:Core/Src/freertos.c **** {
 1745              		.loc 1 619 1 is_stmt 1 view -0
 1746              		.cfi_startproc
 1747              		@ args = 0, pretend = 0, frame = 0
 1748              		@ frame_needed = 0, uses_anonymous_args = 0
 1749              		@ link register save eliminated.
 620:Core/Src/freertos.c ****     if (GPIO_Pin == IMU_INT_Pin)
 1750              		.loc 1 620 5 view .LVU516
 1751              		.loc 1 620 8 is_stmt 0 view .LVU517
 1752 0000 0128     		cmp	r0, #1
 1753 0002 00D0     		beq	.L108
 1754              	.L106:
 621:Core/Src/freertos.c ****     {
 622:Core/Src/freertos.c ****         dbg.imu_evt++;
 623:Core/Src/freertos.c ****     }
 624:Core/Src/freertos.c **** }
 1755              		.loc 1 624 1 view .LVU518
 1756 0004 7047     		bx	lr
 1757              	.L108:
 622:Core/Src/freertos.c ****     }
 1758              		.loc 1 622 9 is_stmt 1 view .LVU519
 622:Core/Src/freertos.c ****     }
 1759              		.loc 1 622 12 is_stmt 0 view .LVU520
 1760 0006 024A     		ldr	r2, .L109
 1761 0008 136C     		ldr	r3, [r2, #64]
 622:Core/Src/freertos.c ****     }
 1762              		.loc 1 622 20 view .LVU521
 1763 000a 0133     		adds	r3, r3, #1
 1764 000c 1364     		str	r3, [r2, #64]
 1765              		.loc 1 624 1 view .LVU522
 1766 000e F9E7     		b	.L106
 1767              	.L110:
 1768              		.align	2
 1769              	.L109:
 1770 0010 00000000 		.word	dbg
 1771              		.cfi_endproc
 1772              	.LFE146:
 1774              		.section	.text.HAL_UART_RxCpltCallback,"ax",%progbits
 1775              		.align	1
 1776              		.global	HAL_UART_RxCpltCallback
 1777              		.syntax unified
 1778              		.thumb
 1779              		.thumb_func
 1781              	HAL_UART_RxCpltCallback:
 1782              	.LVL131:
 1783              	.LFB147:
 625:Core/Src/freertos.c **** 
 626:Core/Src/freertos.c **** /* ŽłĒŽ£®Ūą¨žä§ UART(USART1) 1ŽįĒžĚīŪäł žąėžč† žôĄŽ£Ć žĹúŽįĪ (ISR Ž¨łŽß•).
 627:Core/Src/freertos.c ****  * žąėžč† ŽįĒžĚīŪäłŽ•ľ uartQŽ°ú ŽĄėÍłįÍ≥† ž¶Čžčú Žč§žĚĆ 1ŽįĒžĚīŪäł IT žě¨Ž¨īžě• ‚Üí žóįžÜć žąėžč†.
 628:Core/Src/freertos.c ****  * osMessageQueuePut timeout 0 = ISR žēąž†Ą(xQueueSendFromISR). ŪĀź ÍįÄŽďĚ žčú ŽįĒžĚīŪäłŽäĒ
 629:Core/Src/freertos.c ****  * Ž≤ĄŽ†§ŽŹĄ žě¨Ž¨īžě•žĚÄ Ž¨īž°įÍĪī žąėŪĖČŪēī žąėžč†žĚī Ž©éžßÄ žēäÍ≤Ć Ūē® */
ARM GAS  /tmp/cc1K537S.s 			page 51


 630:Core/Src/freertos.c **** void HAL_UART_RxCpltCallback(UART_HandleTypeDef *huart)
 631:Core/Src/freertos.c **** {
 1784              		.loc 1 631 1 is_stmt 1 view -0
 1785              		.cfi_startproc
 1786              		@ args = 0, pretend = 0, frame = 0
 1787              		@ frame_needed = 0, uses_anonymous_args = 0
 632:Core/Src/freertos.c ****     if (huart->Instance == USART1)
 1788              		.loc 1 632 5 view .LVU524
 1789              		.loc 1 632 14 is_stmt 0 view .LVU525
 1790 0000 0268     		ldr	r2, [r0]
 1791              		.loc 1 632 8 view .LVU526
 1792 0002 094B     		ldr	r3, .L118
 1793 0004 9A42     		cmp	r2, r3
 1794 0006 00D0     		beq	.L117
 1795 0008 7047     		bx	lr
 1796              	.L117:
 631:Core/Src/freertos.c ****     if (huart->Instance == USART1)
 1797              		.loc 1 631 1 view .LVU527
 1798 000a 10B5     		push	{r4, lr}
 1799              	.LCFI19:
 1800              		.cfi_def_cfa_offset 8
 1801              		.cfi_offset 4, -8
 1802              		.cfi_offset 14, -4
 633:Core/Src/freertos.c ****     {
 634:Core/Src/freertos.c ****         (void)osMessageQueuePut(uartQHandle, (const void *)&bt_rx_byte, 0U, 0U);
 1803              		.loc 1 634 9 is_stmt 1 view .LVU528
 1804              		.loc 1 634 15 is_stmt 0 view .LVU529
 1805 000c 074C     		ldr	r4, .L118+4
 1806 000e 0023     		movs	r3, #0
 1807 0010 1A46     		mov	r2, r3
 1808 0012 2146     		mov	r1, r4
 1809 0014 0648     		ldr	r0, .L118+8
 1810              	.LVL132:
 1811              		.loc 1 634 15 view .LVU530
 1812 0016 0068     		ldr	r0, [r0]
 1813 0018 FFF7FEFF 		bl	osMessageQueuePut
 1814              	.LVL133:
 635:Core/Src/freertos.c ****         HAL_UART_Receive_IT(&huart1, (uint8_t *)&bt_rx_byte, 1);
 1815              		.loc 1 635 9 is_stmt 1 view .LVU531
 1816 001c 0122     		movs	r2, #1
 1817 001e 2146     		mov	r1, r4
 1818 0020 0448     		ldr	r0, .L118+12
 1819 0022 FFF7FEFF 		bl	HAL_UART_Receive_IT
 1820              	.LVL134:
 636:Core/Src/freertos.c ****     }
 637:Core/Src/freertos.c **** }
 1821              		.loc 1 637 1 is_stmt 0 view .LVU532
 1822 0026 10BD     		pop	{r4, pc}
 1823              	.L119:
 1824              		.align	2
 1825              	.L118:
 1826 0028 00100140 		.word	1073811456
 1827 002c 00000000 		.word	bt_rx_byte
 1828 0030 00000000 		.word	uartQHandle
 1829 0034 00000000 		.word	huart1
 1830              		.cfi_endproc
 1831              	.LFE147:
ARM GAS  /tmp/cc1K537S.s 			page 52


 1833              		.section	.text.HAL_UART_ErrorCallback,"ax",%progbits
 1834              		.align	1
 1835              		.global	HAL_UART_ErrorCallback
 1836              		.syntax unified
 1837              		.thumb
 1838              		.thumb_func
 1840              	HAL_UART_ErrorCallback:
 1841              	.LVL135:
 1842              	.LFB148:
 638:Core/Src/freertos.c **** 
 639:Core/Src/freertos.c **** /* ŽłĒŽ£®Ūą¨žä§ UART(USART1) žóźŽü¨ žĹúŽįĪ (ISR Ž¨łŽß•).
 640:Core/Src/freertos.c ****  * HALžĚÄ ORE(overrun)/FE(framing)/NE(noise) ŽįúžÉĚ žčú žąėžč†žĚĄ ž§ĎŽč®ŪēėÍ≥† state=READYŽ°ú ŽĎĒ Ž
 641:Core/Src/freertos.c ****  * žĚī žĹúŽįĪŽßĆ Ūėłž∂ú ‚Üí žó¨ÍłįžĄú žě¨Ž¨īžě•ŪēėžßÄ žēäžúľŽ©ī žąėžč†žĚī žėĀÍĶ¨ ž†ēžßÄ(Ž¶¨žÖč ž†ĄÍ
 642:Core/Src/freertos.c ****  * Ž™®ŪĄį ÍĶ¨ŽŹô ž†ĄŽ•ėŽ°ú žĚłŪēú 5V ŽłĆŽĚľžöīžēĄžõÉ/ŽĚľžĚł ŽÖłžĚīž¶ąŽ°ú ŽįĒžĚīŪäłÍįÄ ÍĻ®žßą ŽēĆÍįÄ
 643:Core/Src/freertos.c ****  * žóźŽü¨ ŪĒĆŽěėÍ∑ł ŪĀīŽ¶¨žĖī ŪõĄ 1ŽįĒžĚīŪäł ITŽ•ľ Žč§žčú Ž¨īžě•Ūēī žąėžč†žĚī žä§žä§Ž°ú Ž≥ĶÍĶ¨ŽźėÍ≤
 644:Core/Src/freertos.c ****  * (RxCpltCallbackžĚė "Ž¨īž°įÍĪī žě¨Ž¨īžě•" ŪĆ®ŪĄīÍ≥ľ žĚľÍīÄ). dbg.bt_err = SWD ÍīÄžįįžö© žĻīžöīŪĄį
 645:Core/Src/freertos.c **** void HAL_UART_ErrorCallback(UART_HandleTypeDef *huart)
 646:Core/Src/freertos.c **** {
 1843              		.loc 1 646 1 is_stmt 1 view -0
 1844              		.cfi_startproc
 1845              		@ args = 0, pretend = 0, frame = 16
 1846              		@ frame_needed = 0, uses_anonymous_args = 0
 647:Core/Src/freertos.c ****     if (huart->Instance == USART1)
 1847              		.loc 1 647 5 view .LVU534
 1848              		.loc 1 647 14 is_stmt 0 view .LVU535
 1849 0000 0268     		ldr	r2, [r0]
 1850              		.loc 1 647 8 view .LVU536
 1851 0002 164B     		ldr	r3, .L127
 1852 0004 9A42     		cmp	r2, r3
 1853 0006 00D0     		beq	.L126
 1854 0008 7047     		bx	lr
 1855              	.L126:
 646:Core/Src/freertos.c ****     if (huart->Instance == USART1)
 1856              		.loc 1 646 1 view .LVU537
 1857 000a 00B5     		push	{lr}
 1858              	.LCFI20:
 1859              		.cfi_def_cfa_offset 4
 1860              		.cfi_offset 14, -4
 1861 000c 85B0     		sub	sp, sp, #20
 1862              	.LCFI21:
 1863              		.cfi_def_cfa_offset 24
 648:Core/Src/freertos.c ****     {
 649:Core/Src/freertos.c ****         dbg.bt_err++;
 1864              		.loc 1 649 9 is_stmt 1 view .LVU538
 1865              		.loc 1 649 12 is_stmt 0 view .LVU539
 1866 000e 144A     		ldr	r2, .L127+4
 1867 0010 536D     		ldr	r3, [r2, #84]
 1868              		.loc 1 649 19 view .LVU540
 1869 0012 0133     		adds	r3, r3, #1
 1870 0014 5365     		str	r3, [r2, #84]
 650:Core/Src/freertos.c ****         __HAL_UART_CLEAR_OREFLAG(&huart1);   /* SR read + DR readŽ°ú ORE Ūēīž†ú */
 1871              		.loc 1 650 9 is_stmt 1 view .LVU541
 1872              	.LBB15:
 1873              		.loc 1 650 9 view .LVU542
 1874 0016 0022     		movs	r2, #0
 1875 0018 0092     		str	r2, [sp]
 1876              		.loc 1 650 9 view .LVU543
ARM GAS  /tmp/cc1K537S.s 			page 53


 1877 001a 1248     		ldr	r0, .L127+8
 1878              	.LVL136:
 1879              		.loc 1 650 9 is_stmt 0 view .LVU544
 1880 001c 0368     		ldr	r3, [r0]
 1881 001e 1968     		ldr	r1, [r3]
 1882 0020 0091     		str	r1, [sp]
 1883              		.loc 1 650 9 is_stmt 1 view .LVU545
 1884 0022 5968     		ldr	r1, [r3, #4]
 1885 0024 0091     		str	r1, [sp]
 1886              		.loc 1 650 9 view .LVU546
 1887 0026 0099     		ldr	r1, [sp]
 1888              	.LBE15:
 1889              		.loc 1 650 9 view .LVU547
 651:Core/Src/freertos.c ****         __HAL_UART_CLEAR_NEFLAG(&huart1);
 1890              		.loc 1 651 9 view .LVU548
 1891              	.LBB16:
 1892              		.loc 1 651 9 view .LVU549
 1893 0028 0192     		str	r2, [sp, #4]
 1894              		.loc 1 651 9 view .LVU550
 1895 002a 1968     		ldr	r1, [r3]
 1896 002c 0191     		str	r1, [sp, #4]
 1897              		.loc 1 651 9 view .LVU551
 1898 002e 5968     		ldr	r1, [r3, #4]
 1899 0030 0191     		str	r1, [sp, #4]
 1900              		.loc 1 651 9 view .LVU552
 1901 0032 0199     		ldr	r1, [sp, #4]
 1902              	.LBE16:
 1903              		.loc 1 651 9 view .LVU553
 652:Core/Src/freertos.c ****         __HAL_UART_CLEAR_FEFLAG(&huart1);
 1904              		.loc 1 652 9 view .LVU554
 1905              	.LBB17:
 1906              		.loc 1 652 9 view .LVU555
 1907 0034 0292     		str	r2, [sp, #8]
 1908              		.loc 1 652 9 view .LVU556
 1909 0036 1968     		ldr	r1, [r3]
 1910 0038 0291     		str	r1, [sp, #8]
 1911              		.loc 1 652 9 view .LVU557
 1912 003a 5968     		ldr	r1, [r3, #4]
 1913 003c 0291     		str	r1, [sp, #8]
 1914              		.loc 1 652 9 view .LVU558
 1915 003e 0299     		ldr	r1, [sp, #8]
 1916              	.LBE17:
 1917              		.loc 1 652 9 view .LVU559
 653:Core/Src/freertos.c ****         __HAL_UART_CLEAR_PEFLAG(&huart1);
 1918              		.loc 1 653 9 view .LVU560
 1919              	.LBB18:
 1920              		.loc 1 653 9 view .LVU561
 1921 0040 0392     		str	r2, [sp, #12]
 1922              		.loc 1 653 9 view .LVU562
 1923 0042 1968     		ldr	r1, [r3]
 1924 0044 0391     		str	r1, [sp, #12]
 1925              		.loc 1 653 9 view .LVU563
 1926 0046 5B68     		ldr	r3, [r3, #4]
 1927 0048 0393     		str	r3, [sp, #12]
 1928              		.loc 1 653 9 view .LVU564
 1929 004a 039B     		ldr	r3, [sp, #12]
 1930              	.LBE18:
ARM GAS  /tmp/cc1K537S.s 			page 54


 1931              		.loc 1 653 9 view .LVU565
 654:Core/Src/freertos.c ****         huart1.ErrorCode = HAL_UART_ERROR_NONE;
 1932              		.loc 1 654 9 view .LVU566
 1933              		.loc 1 654 26 is_stmt 0 view .LVU567
 1934 004c 4264     		str	r2, [r0, #68]
 655:Core/Src/freertos.c ****         HAL_UART_Receive_IT(&huart1, (uint8_t *)&bt_rx_byte, 1);
 1935              		.loc 1 655 9 is_stmt 1 view .LVU568
 1936 004e 0122     		movs	r2, #1
 1937 0050 0549     		ldr	r1, .L127+12
 1938 0052 FFF7FEFF 		bl	HAL_UART_Receive_IT
 1939              	.LVL137:
 656:Core/Src/freertos.c ****     }
 657:Core/Src/freertos.c **** }
 1940              		.loc 1 657 1 is_stmt 0 view .LVU569
 1941 0056 05B0     		add	sp, sp, #20
 1942              	.LCFI22:
 1943              		.cfi_def_cfa_offset 4
 1944              		@ sp needed
 1945 0058 5DF804FB 		ldr	pc, [sp], #4
 1946              	.L128:
 1947              		.align	2
 1948              	.L127:
 1949 005c 00100140 		.word	1073811456
 1950 0060 00000000 		.word	dbg
 1951 0064 00000000 		.word	huart1
 1952 0068 00000000 		.word	bt_rx_byte
 1953              		.cfi_endproc
 1954              	.LFE148:
 1956              		.section	.bss.t_calib.0,"aw",%nobits
 1957              		.align	2
 1960              	t_calib.0:
 1961 0000 00000000 		.space	4
 1962              		.section	.bss.t_imu_retry.1,"aw",%nobits
 1963              		.align	2
 1966              	t_imu_retry.1:
 1967 0000 00000000 		.space	4
 1968              		.section	.bss.imu_fail.2,"aw",%nobits
 1971              	imu_fail.2:
 1972 0000 00       		.space	1
 1973              		.section	.bss.tof_miss.3,"aw",%nobits
 1974              		.align	2
 1977              	tof_miss.3:
 1978 0000 0000     		.space	2
 1979              		.section	.bss.imu.4,"aw",%nobits
 1980              		.align	2
 1983              	imu.4:
 1984 0000 00000000 		.space	12
 1984      00000000 
 1984      00000000 
 1985              		.section	.bss.front_miss.5,"aw",%nobits
 1988              	front_miss.5:
 1989 0000 00       		.space	1
 1990              		.section	.bss.t_loop.6,"aw",%nobits
 1991              		.align	2
 1994              	t_loop.6:
 1995 0000 00000000 		.space	4
 1996              		.section	.bss.tof_fresh.7,"aw",%nobits
ARM GAS  /tmp/cc1K537S.s 			page 55


 1997              		.align	2
 2000              	tof_fresh.7:
 2001 0000 00000000 		.space	8
 2001      00000000 
 2002              		.section	.bss.imu_live.8,"aw",%nobits
 2005              	imu_live.8:
 2006 0000 00       		.space	1
 2007              		.section	.bss.hist_r.9,"aw",%nobits
 2008              		.align	2
 2011              	hist_r.9:
 2012 0000 00000000 		.space	6
 2012      0000
 2013              		.section	.bss.hist_l.10,"aw",%nobits
 2014              		.align	2
 2017              	hist_l.10:
 2018 0000 00000000 		.space	6
 2018      0000
 2019              		.section	.bss.hist_f.11,"aw",%nobits
 2020              		.align	2
 2023              	hist_f.11:
 2024 0000 00000000 		.space	6
 2024      0000
 2025              		.section	.bss.tof_right_ok,"aw",%nobits
 2028              	tof_right_ok:
 2029 0000 00       		.space	1
 2030              		.section	.bss.tof_left_ok,"aw",%nobits
 2033              	tof_left_ok:
 2034 0000 00       		.space	1
 2035              		.section	.data.tof_right,"aw"
 2036              		.align	2
 2039              	tof_right:
 2040 0000 00000000 		.word	hi2c1
 2041 0004 52       		.byte	82
 2042 0005 00       		.byte	0
 2043 0006 0000     		.space	2
 2044              		.section	.data.tof_left,"aw"
 2045              		.align	2
 2048              	tof_left:
 2049 0000 00000000 		.word	hi2c1
 2050 0004 52       		.byte	82
 2051 0005 00       		.byte	0
 2052 0006 0000     		.space	2
 2053              		.global	uartQ_attributes
 2054              		.section	.rodata.str1.4,"aMS",%progbits,1
 2055              		.align	2
 2056              	.LC0:
 2057 0000 75617274 		.ascii	"uartQ\000"
 2057      5100
 2058              		.section	.rodata.uartQ_attributes,"a"
 2059              		.align	2
 2062              	uartQ_attributes:
 2063 0000 00000000 		.word	.LC0
 2064 0004 00000000 		.space	20
 2064      00000000 
 2064      00000000 
 2064      00000000 
 2064      00000000 
ARM GAS  /tmp/cc1K537S.s 			page 56


 2065              		.global	uartQHandle
 2066              		.section	.bss.uartQHandle,"aw",%nobits
 2067              		.align	2
 2070              	uartQHandle:
 2071 0000 00000000 		.space	4
 2072              		.global	BluetoothTask_attributes
 2073              		.section	.rodata.str1.4
 2074 0006 0000     		.align	2
 2075              	.LC1:
 2076 0008 426C7565 		.ascii	"BluetoothTask\000"
 2076      746F6F74 
 2076      68546173 
 2076      6B00
 2077              		.section	.rodata.BluetoothTask_attributes,"a"
 2078              		.align	2
 2081              	BluetoothTask_attributes:
 2082 0000 08000000 		.word	.LC1
 2083 0004 00000000 		.space	16
 2083      00000000 
 2083      00000000 
 2083      00000000 
 2084 0014 00040000 		.word	1024
 2085 0018 08000000 		.word	8
 2086 001c 00000000 		.space	8
 2086      00000000 
 2087              		.global	BluetoothTaskHandle
 2088              		.section	.bss.BluetoothTaskHandle,"aw",%nobits
 2089              		.align	2
 2092              	BluetoothTaskHandle:
 2093 0000 00000000 		.space	4
 2094              		.global	SensorTask_attributes
 2095              		.section	.rodata.str1.4
 2096 0016 0000     		.align	2
 2097              	.LC2:
 2098 0018 53656E73 		.ascii	"SensorTask\000"
 2098      6F725461 
 2098      736B00
 2099              		.section	.rodata.SensorTask_attributes,"a"
 2100              		.align	2
 2103              	SensorTask_attributes:
 2104 0000 18000000 		.word	.LC2
 2105 0004 00000000 		.space	16
 2105      00000000 
 2105      00000000 
 2105      00000000 
 2106 0014 00040000 		.word	1024
 2107 0018 08000000 		.word	8
 2108 001c 00000000 		.space	8
 2108      00000000 
 2109              		.global	SensorTaskHandle
 2110              		.section	.bss.SensorTaskHandle,"aw",%nobits
 2111              		.align	2
 2114              	SensorTaskHandle:
 2115 0000 00000000 		.space	4
 2116              		.global	MotorTask_attributes
 2117              		.section	.rodata.str1.4
 2118 0023 00       		.align	2
ARM GAS  /tmp/cc1K537S.s 			page 57


 2119              	.LC3:
 2120 0024 4D6F746F 		.ascii	"MotorTask\000"
 2120      72546173 
 2120      6B00
 2121              		.section	.rodata.MotorTask_attributes,"a"
 2122              		.align	2
 2125              	MotorTask_attributes:
 2126 0000 24000000 		.word	.LC3
 2127 0004 00000000 		.space	16
 2127      00000000 
 2127      00000000 
 2127      00000000 
 2128 0014 00040000 		.word	1024
 2129 0018 18000000 		.word	24
 2130 001c 00000000 		.space	8
 2130      00000000 
 2131              		.global	MotorTaskHandle
 2132              		.section	.bss.MotorTaskHandle,"aw",%nobits
 2133              		.align	2
 2136              	MotorTaskHandle:
 2137 0000 00000000 		.space	4
 2138              		.global	wall_error
 2139              		.section	.bss.wall_error,"aw",%nobits
 2140              		.align	1
 2143              	wall_error:
 2144 0000 0000     		.space	2
 2145              		.global	dist_right
 2146              		.section	.data.dist_right,"aw"
 2147              		.align	1
 2150              	dist_right:
 2151 0000 E803     		.short	1000
 2152              		.global	dist_left
 2153              		.section	.data.dist_left,"aw"
 2154              		.align	1
 2157              	dist_left:
 2158 0000 E803     		.short	1000
 2159              		.global	bt_rx_byte
 2160              		.section	.bss.bt_rx_byte,"aw",%nobits
 2163              	bt_rx_byte:
 2164 0000 00       		.space	1
 2165              		.global	manual_right
 2166              		.section	.bss.manual_right,"aw",%nobits
 2169              	manual_right:
 2170 0000 00       		.space	1
 2171              		.global	manual_left
 2172              		.section	.bss.manual_left,"aw",%nobits
 2175              	manual_left:
 2176 0000 00       		.space	1
 2177              		.global	sys_mode
 2178              		.section	.bss.sys_mode,"aw",%nobits
 2181              	sys_mode:
 2182 0000 00       		.space	1
 2183              		.global	sys_power
 2184              		.section	.bss.sys_power,"aw",%nobits
 2187              	sys_power:
 2188 0000 00       		.space	1
 2189              		.section	.bss.driveQ,"aw",%nobits
ARM GAS  /tmp/cc1K537S.s 			page 58


 2190              		.align	2
 2193              	driveQ:
 2194 0000 00000000 		.space	4
 2195              		.text
 2196              	.Letext0:
 2197              		.file 2 "/usr/lib/gcc/arm-none-eabi/13.2.1/include/stdint.h"
 2198              		.file 3 "Middlewares/Third_Party/FreeRTOS/Source/portable/GCC/ARM_CM4F/portmacro.h"
 2199              		.file 4 "Middlewares/Third_Party/FreeRTOS/Source/include/task.h"
 2200              		.file 5 "Drivers/CMSIS/Device/ST/STM32F4xx/Include/stm32f411xe.h"
 2201              		.file 6 "Drivers/STM32F4xx_HAL_Driver/Inc/stm32f4xx_hal_def.h"
 2202              		.file 7 "Drivers/STM32F4xx_HAL_Driver/Inc/stm32f4xx_hal_gpio.h"
 2203              		.file 8 "Drivers/STM32F4xx_HAL_Driver/Inc/stm32f4xx_hal_dma.h"
 2204              		.file 9 "Drivers/STM32F4xx_HAL_Driver/Inc/stm32f4xx_hal_i2c.h"
 2205              		.file 10 "Drivers/STM32F4xx_HAL_Driver/Inc/stm32f4xx_hal_iwdg.h"
 2206              		.file 11 "Drivers/STM32F4xx_HAL_Driver/Inc/stm32f4xx_hal_uart.h"
 2207              		.file 12 "Core/Inc/main.h"
 2208              		.file 13 "Middlewares/Third_Party/FreeRTOS/Source/CMSIS_RTOS_V2/cmsis_os2.h"
 2209              		.file 14 "Core/Inc/iwdg.h"
 2210              		.file 15 "Core/Inc/drive.h"
 2211              		.file 16 "Core/Inc/debug.h"
 2212              		.file 17 "Core/Inc/bno055.h"
 2213              		.file 18 "Core/Inc/vl53l0x.h"
 2214              		.file 19 "Core/Inc/i2c.h"
 2215              		.file 20 "Core/Inc/usart.h"
 2216              		.file 21 "Core/Inc/ultra.h"
 2217              		.file 22 "Drivers/STM32F4xx_HAL_Driver/Inc/stm32f4xx_hal.h"
 2218              		.file 23 "Core/Inc/motor.h"
ARM GAS  /tmp/cc1K537S.s 			page 59

