ARM GAS  C:\Users\user\AppData\Local\Temp\ccMRLpF1.s 			page 1


   1              		.cpu cortex-m4
   2              		.arch armv7e-m
   3              		.fpu fpv4-sp-d16
   4              		.eabi_attribute 27, 1
   5              		.eabi_attribute 28, 1
   6              		.eabi_attribute 20, 1
   7              		.eabi_attribute 21, 1
   8              		.eabi_attribute 23, 3
   9              		.eabi_attribute 24, 1
  10              		.eabi_attribute 25, 1
  11              		.eabi_attribute 26, 1
  12              		.eabi_attribute 30, 1
  13              		.eabi_attribute 34, 1
  14              		.eabi_attribute 18, 4
  15              		.file	"gpio.c"
  16              		.text
  17              	.Ltext0:
  18              		.cfi_sections	.debug_frame
  19              		.file 1 "Core/Src/gpio.c"
  20              		.section	.text.MX_GPIO_Init,"ax",%progbits
  21              		.align	1
  22              		.global	MX_GPIO_Init
  23              		.syntax unified
  24              		.thumb
  25              		.thumb_func
  27              	MX_GPIO_Init:
  28              	.LFB134:
   1:Core/Src/gpio.c **** /* USER CODE BEGIN Header */
   2:Core/Src/gpio.c **** /**
   3:Core/Src/gpio.c ****   ******************************************************************************
   4:Core/Src/gpio.c ****   * @file    gpio.c
   5:Core/Src/gpio.c ****   * @brief   This file provides code for the configuration
   6:Core/Src/gpio.c ****   *          of all used GPIO pins.
   7:Core/Src/gpio.c ****   ******************************************************************************
   8:Core/Src/gpio.c ****   * @attention
   9:Core/Src/gpio.c ****   *
  10:Core/Src/gpio.c ****   * Copyright (c) 2026 STMicroelectronics.
  11:Core/Src/gpio.c ****   * All rights reserved.
  12:Core/Src/gpio.c ****   *
  13:Core/Src/gpio.c ****   * This software is licensed under terms that can be found in the LICENSE file
  14:Core/Src/gpio.c ****   * in the root directory of this software component.
  15:Core/Src/gpio.c ****   * If no LICENSE file comes with this software, it is provided AS-IS.
  16:Core/Src/gpio.c ****   *
  17:Core/Src/gpio.c ****   ******************************************************************************
  18:Core/Src/gpio.c ****   */
  19:Core/Src/gpio.c **** /* USER CODE END Header */
  20:Core/Src/gpio.c **** 
  21:Core/Src/gpio.c **** /* Includes ------------------------------------------------------------------*/
  22:Core/Src/gpio.c **** #include "gpio.h"
  23:Core/Src/gpio.c **** 
  24:Core/Src/gpio.c **** /* USER CODE BEGIN 0 */
  25:Core/Src/gpio.c **** 
  26:Core/Src/gpio.c **** /* USER CODE END 0 */
  27:Core/Src/gpio.c **** 
  28:Core/Src/gpio.c **** /*----------------------------------------------------------------------------*/
  29:Core/Src/gpio.c **** /* Configure GPIO                                                             */
  30:Core/Src/gpio.c **** /*----------------------------------------------------------------------------*/
ARM GAS  C:\Users\user\AppData\Local\Temp\ccMRLpF1.s 			page 2


  31:Core/Src/gpio.c **** /* USER CODE BEGIN 1 */
  32:Core/Src/gpio.c **** 
  33:Core/Src/gpio.c **** /* USER CODE END 1 */
  34:Core/Src/gpio.c **** 
  35:Core/Src/gpio.c **** /** Configure pins as
  36:Core/Src/gpio.c ****         * Analog
  37:Core/Src/gpio.c ****         * Input
  38:Core/Src/gpio.c ****         * Output
  39:Core/Src/gpio.c ****         * EVENT_OUT
  40:Core/Src/gpio.c ****         * EXTI
  41:Core/Src/gpio.c **** */
  42:Core/Src/gpio.c **** void MX_GPIO_Init(void)
  43:Core/Src/gpio.c **** {
  29              		.loc 1 43 1 view -0
  30              		.cfi_startproc
  31              		@ args = 0, pretend = 0, frame = 32
  32              		@ frame_needed = 0, uses_anonymous_args = 0
  33 0000 2DE9F041 		push	{r4, r5, r6, r7, r8, lr}
  34              	.LCFI0:
  35              		.cfi_def_cfa_offset 24
  36              		.cfi_offset 4, -24
  37              		.cfi_offset 5, -20
  38              		.cfi_offset 6, -16
  39              		.cfi_offset 7, -12
  40              		.cfi_offset 8, -8
  41              		.cfi_offset 14, -4
  42 0004 88B0     		sub	sp, sp, #32
  43              	.LCFI1:
  44              		.cfi_def_cfa_offset 56
  44:Core/Src/gpio.c **** 
  45:Core/Src/gpio.c ****   GPIO_InitTypeDef GPIO_InitStruct = {0};
  45              		.loc 1 45 3 view .LVU1
  46              		.loc 1 45 20 is_stmt 0 view .LVU2
  47 0006 03AD     		add	r5, sp, #12
  48 0008 0024     		movs	r4, #0
  49 000a 0394     		str	r4, [sp, #12]
  50 000c 0494     		str	r4, [sp, #16]
  51 000e 0594     		str	r4, [sp, #20]
  52 0010 0694     		str	r4, [sp, #24]
  53 0012 0794     		str	r4, [sp, #28]
  46:Core/Src/gpio.c **** 
  47:Core/Src/gpio.c ****   /* GPIO Ports Clock Enable */
  48:Core/Src/gpio.c ****   __HAL_RCC_GPIOH_CLK_ENABLE();
  54              		.loc 1 48 3 is_stmt 1 view .LVU3
  55              	.LBB2:
  56              		.loc 1 48 3 view .LVU4
  57 0014 0094     		str	r4, [sp]
  58              		.loc 1 48 3 view .LVU5
  59 0016 2D4B     		ldr	r3, .L3
  60 0018 1A6B     		ldr	r2, [r3, #48]
  61 001a 42F08002 		orr	r2, r2, #128
  62 001e 1A63     		str	r2, [r3, #48]
  63              		.loc 1 48 3 view .LVU6
  64 0020 1A6B     		ldr	r2, [r3, #48]
  65 0022 02F08002 		and	r2, r2, #128
  66 0026 0092     		str	r2, [sp]
  67              		.loc 1 48 3 view .LVU7
ARM GAS  C:\Users\user\AppData\Local\Temp\ccMRLpF1.s 			page 3


  68 0028 009A     		ldr	r2, [sp]
  69              	.LBE2:
  70              		.loc 1 48 3 view .LVU8
  49:Core/Src/gpio.c ****   __HAL_RCC_GPIOA_CLK_ENABLE();
  71              		.loc 1 49 3 view .LVU9
  72              	.LBB3:
  73              		.loc 1 49 3 view .LVU10
  74 002a 0194     		str	r4, [sp, #4]
  75              		.loc 1 49 3 view .LVU11
  76 002c 1A6B     		ldr	r2, [r3, #48]
  77 002e 42F00102 		orr	r2, r2, #1
  78 0032 1A63     		str	r2, [r3, #48]
  79              		.loc 1 49 3 view .LVU12
  80 0034 1A6B     		ldr	r2, [r3, #48]
  81 0036 02F00102 		and	r2, r2, #1
  82 003a 0192     		str	r2, [sp, #4]
  83              		.loc 1 49 3 view .LVU13
  84 003c 019A     		ldr	r2, [sp, #4]
  85              	.LBE3:
  86              		.loc 1 49 3 view .LVU14
  50:Core/Src/gpio.c ****   __HAL_RCC_GPIOB_CLK_ENABLE();
  87              		.loc 1 50 3 view .LVU15
  88              	.LBB4:
  89              		.loc 1 50 3 view .LVU16
  90 003e 0294     		str	r4, [sp, #8]
  91              		.loc 1 50 3 view .LVU17
  92 0040 1A6B     		ldr	r2, [r3, #48]
  93 0042 42F00202 		orr	r2, r2, #2
  94 0046 1A63     		str	r2, [r3, #48]
  95              		.loc 1 50 3 view .LVU18
  96 0048 1B6B     		ldr	r3, [r3, #48]
  97 004a 03F00203 		and	r3, r3, #2
  98 004e 0293     		str	r3, [sp, #8]
  99              		.loc 1 50 3 view .LVU19
 100 0050 029B     		ldr	r3, [sp, #8]
 101              	.LBE4:
 102              		.loc 1 50 3 view .LVU20
  51:Core/Src/gpio.c **** 
  52:Core/Src/gpio.c ****   /*Configure GPIO pin Output Level */
  53:Core/Src/gpio.c ****   HAL_GPIO_WritePin(GPIOA, TRIG_RIGHT_Pin|TRIG_LEFT_Pin|TRIG_FRONT_Pin, GPIO_PIN_RESET);
 103              		.loc 1 53 3 view .LVU21
 104 0052 DFF88080 		ldr	r8, .L3+8
 105 0056 2246     		mov	r2, r4
 106 0058 3821     		movs	r1, #56
 107 005a 4046     		mov	r0, r8
 108 005c FFF7FEFF 		bl	HAL_GPIO_WritePin
 109              	.LVL0:
  54:Core/Src/gpio.c **** 
  55:Core/Src/gpio.c ****   /*Configure GPIO pin Output Level */
  56:Core/Src/gpio.c ****   HAL_GPIO_WritePin(IMU_RST_GPIO_Port, IMU_RST_Pin, GPIO_PIN_SET);
 110              		.loc 1 56 3 view .LVU22
 111 0060 1B4E     		ldr	r6, .L3+4
 112 0062 0122     		movs	r2, #1
 113 0064 0221     		movs	r1, #2
 114 0066 3046     		mov	r0, r6
 115 0068 FFF7FEFF 		bl	HAL_GPIO_WritePin
 116              	.LVL1:
ARM GAS  C:\Users\user\AppData\Local\Temp\ccMRLpF1.s 			page 4


  57:Core/Src/gpio.c **** 
  58:Core/Src/gpio.c ****   /*Configure GPIO pin Output Level */
  59:Core/Src/gpio.c ****   HAL_GPIO_WritePin(GPIOB, Input1_Pin|Input2_Pin|Input3_Pin|Input4_Pin, GPIO_PIN_RESET);
 117              		.loc 1 59 3 view .LVU23
 118 006c 2246     		mov	r2, r4
 119 006e 4FF47041 		mov	r1, #61440
 120 0072 3046     		mov	r0, r6
 121 0074 FFF7FEFF 		bl	HAL_GPIO_WritePin
 122              	.LVL2:
  60:Core/Src/gpio.c **** 
  61:Core/Src/gpio.c ****   /*Configure GPIO pin : IMU_INT_Pin */
  62:Core/Src/gpio.c ****   GPIO_InitStruct.Pin = IMU_INT_Pin;
 123              		.loc 1 62 3 view .LVU24
 124              		.loc 1 62 23 is_stmt 0 view .LVU25
 125 0078 0127     		movs	r7, #1
 126 007a 0397     		str	r7, [sp, #12]
  63:Core/Src/gpio.c ****   GPIO_InitStruct.Mode = GPIO_MODE_IT_RISING;
 127              		.loc 1 63 3 is_stmt 1 view .LVU26
 128              		.loc 1 63 24 is_stmt 0 view .LVU27
 129 007c 4FF48813 		mov	r3, #1114112
 130 0080 0493     		str	r3, [sp, #16]
  64:Core/Src/gpio.c ****   GPIO_InitStruct.Pull = GPIO_PULLDOWN;
 131              		.loc 1 64 3 is_stmt 1 view .LVU28
 132              		.loc 1 64 24 is_stmt 0 view .LVU29
 133 0082 0223     		movs	r3, #2
 134 0084 0593     		str	r3, [sp, #20]
  65:Core/Src/gpio.c ****   HAL_GPIO_Init(IMU_INT_GPIO_Port, &GPIO_InitStruct);
 135              		.loc 1 65 3 is_stmt 1 view .LVU30
 136 0086 2946     		mov	r1, r5
 137 0088 4046     		mov	r0, r8
 138 008a FFF7FEFF 		bl	HAL_GPIO_Init
 139              	.LVL3:
  66:Core/Src/gpio.c **** 
  67:Core/Src/gpio.c ****   /*Configure GPIO pins : TRIG_RIGHT_Pin TRIG_LEFT_Pin TRIG_FRONT_Pin */
  68:Core/Src/gpio.c ****   GPIO_InitStruct.Pin = TRIG_RIGHT_Pin|TRIG_LEFT_Pin|TRIG_FRONT_Pin;
 140              		.loc 1 68 3 view .LVU31
 141              		.loc 1 68 23 is_stmt 0 view .LVU32
 142 008e 3823     		movs	r3, #56
 143 0090 0393     		str	r3, [sp, #12]
  69:Core/Src/gpio.c ****   GPIO_InitStruct.Mode = GPIO_MODE_OUTPUT_PP;
 144              		.loc 1 69 3 is_stmt 1 view .LVU33
 145              		.loc 1 69 24 is_stmt 0 view .LVU34
 146 0092 0497     		str	r7, [sp, #16]
  70:Core/Src/gpio.c ****   GPIO_InitStruct.Pull = GPIO_NOPULL;
 147              		.loc 1 70 3 is_stmt 1 view .LVU35
 148              		.loc 1 70 24 is_stmt 0 view .LVU36
 149 0094 0594     		str	r4, [sp, #20]
  71:Core/Src/gpio.c ****   GPIO_InitStruct.Speed = GPIO_SPEED_FREQ_LOW;
 150              		.loc 1 71 3 is_stmt 1 view .LVU37
 151              		.loc 1 71 25 is_stmt 0 view .LVU38
 152 0096 0694     		str	r4, [sp, #24]
  72:Core/Src/gpio.c ****   HAL_GPIO_Init(GPIOA, &GPIO_InitStruct);
 153              		.loc 1 72 3 is_stmt 1 view .LVU39
 154 0098 2946     		mov	r1, r5
 155 009a 4046     		mov	r0, r8
 156 009c FFF7FEFF 		bl	HAL_GPIO_Init
 157              	.LVL4:
ARM GAS  C:\Users\user\AppData\Local\Temp\ccMRLpF1.s 			page 5


  73:Core/Src/gpio.c **** 
  74:Core/Src/gpio.c ****   /*Configure GPIO pins : IMU_RST_Pin Input1_Pin Input2_Pin Input3_Pin
  75:Core/Src/gpio.c ****                            Input4_Pin */
  76:Core/Src/gpio.c ****   GPIO_InitStruct.Pin = IMU_RST_Pin|Input1_Pin|Input2_Pin|Input3_Pin
 158              		.loc 1 76 3 view .LVU40
 159              		.loc 1 76 23 is_stmt 0 view .LVU41
 160 00a0 4FF20203 		movw	r3, #61442
 161 00a4 0393     		str	r3, [sp, #12]
  77:Core/Src/gpio.c ****                           |Input4_Pin;
  78:Core/Src/gpio.c ****   GPIO_InitStruct.Mode = GPIO_MODE_OUTPUT_PP;
 162              		.loc 1 78 3 is_stmt 1 view .LVU42
 163              		.loc 1 78 24 is_stmt 0 view .LVU43
 164 00a6 0497     		str	r7, [sp, #16]
  79:Core/Src/gpio.c ****   GPIO_InitStruct.Pull = GPIO_NOPULL;
 165              		.loc 1 79 3 is_stmt 1 view .LVU44
 166              		.loc 1 79 24 is_stmt 0 view .LVU45
 167 00a8 0594     		str	r4, [sp, #20]
  80:Core/Src/gpio.c ****   GPIO_InitStruct.Speed = GPIO_SPEED_FREQ_LOW;
 168              		.loc 1 80 3 is_stmt 1 view .LVU46
 169              		.loc 1 80 25 is_stmt 0 view .LVU47
 170 00aa 0694     		str	r4, [sp, #24]
  81:Core/Src/gpio.c ****   HAL_GPIO_Init(GPIOB, &GPIO_InitStruct);
 171              		.loc 1 81 3 is_stmt 1 view .LVU48
 172 00ac 2946     		mov	r1, r5
 173 00ae 3046     		mov	r0, r6
 174 00b0 FFF7FEFF 		bl	HAL_GPIO_Init
 175              	.LVL5:
  82:Core/Src/gpio.c **** 
  83:Core/Src/gpio.c ****   /* EXTI interrupt init*/
  84:Core/Src/gpio.c ****   HAL_NVIC_SetPriority(EXTI0_IRQn, 5, 0);
 176              		.loc 1 84 3 view .LVU49
 177 00b4 2246     		mov	r2, r4
 178 00b6 0521     		movs	r1, #5
 179 00b8 0620     		movs	r0, #6
 180 00ba FFF7FEFF 		bl	HAL_NVIC_SetPriority
 181              	.LVL6:
  85:Core/Src/gpio.c ****   HAL_NVIC_EnableIRQ(EXTI0_IRQn);
 182              		.loc 1 85 3 view .LVU50
 183 00be 0620     		movs	r0, #6
 184 00c0 FFF7FEFF 		bl	HAL_NVIC_EnableIRQ
 185              	.LVL7:
  86:Core/Src/gpio.c **** 
  87:Core/Src/gpio.c **** }
 186              		.loc 1 87 1 is_stmt 0 view .LVU51
 187 00c4 08B0     		add	sp, sp, #32
 188              	.LCFI2:
 189              		.cfi_def_cfa_offset 24
 190              		@ sp needed
 191 00c6 BDE8F081 		pop	{r4, r5, r6, r7, r8, pc}
 192              	.L4:
 193 00ca 00BF     		.align	2
 194              	.L3:
 195 00cc 00380240 		.word	1073887232
 196 00d0 00040240 		.word	1073873920
 197 00d4 00000240 		.word	1073872896
 198              		.cfi_endproc
 199              	.LFE134:
ARM GAS  C:\Users\user\AppData\Local\Temp\ccMRLpF1.s 			page 6


 201              		.text
 202              	.Letext0:
 203              		.file 2 "Drivers/CMSIS/Device/ST/STM32F4xx/Include/stm32f411xe.h"
 204              		.file 3 "C:\\ST\\STM32CubeIDE_2.1.0\\STM32CubeIDE\\plugins\\com.st.stm32cube.ide.mcu.externaltools
 205              		.file 4 "C:\\ST\\STM32CubeIDE_2.1.0\\STM32CubeIDE\\plugins\\com.st.stm32cube.ide.mcu.externaltools
 206              		.file 5 "Drivers/STM32F4xx_HAL_Driver/Inc/stm32f4xx_hal_gpio.h"
 207              		.file 6 "Drivers/STM32F4xx_HAL_Driver/Inc/stm32f4xx_hal_cortex.h"
ARM GAS  C:\Users\user\AppData\Local\Temp\ccMRLpF1.s 			page 7

