ARM GAS  /tmp/ccD3RMtA.s 			page 1


   1              		.cpu cortex-m4
   2              		.arch armv7e-m
   3              		.fpu fpv4-sp-d16
   4              		.eabi_attribute 27, 1
   5              		.eabi_attribute 28, 1
   6              		.eabi_attribute 20, 1
   7              		.eabi_attribute 21, 1
   8              		.eabi_attribute 23, 3
   9              		.eabi_attribute 24, 1
  10              		.eabi_attribute 25, 1
  11              		.eabi_attribute 26, 1
  12              		.eabi_attribute 30, 1
  13              		.eabi_attribute 34, 1
  14              		.eabi_attribute 18, 4
  15              		.file	"tim.c"
  16              		.text
  17              	.Ltext0:
  18              		.cfi_sections	.debug_frame
  19              		.file 1 "Core/Src/tim.c"
  20              		.section	.text.MX_TIM3_Init,"ax",%progbits
  21              		.align	1
  22              		.global	MX_TIM3_Init
  23              		.syntax unified
  24              		.thumb
  25              		.thumb_func
  27              	MX_TIM3_Init:
  28              	.LFB134:
   1:Core/Src/tim.c **** /* USER CODE BEGIN Header */
   2:Core/Src/tim.c **** /**
   3:Core/Src/tim.c ****   ******************************************************************************
   4:Core/Src/tim.c ****   * @file    tim.c
   5:Core/Src/tim.c ****   * @brief   This file provides code for the configuration
   6:Core/Src/tim.c ****   *          of the TIM instances.
   7:Core/Src/tim.c ****   ******************************************************************************
   8:Core/Src/tim.c ****   * @attention
   9:Core/Src/tim.c ****   *
  10:Core/Src/tim.c ****   * Copyright (c) 2026 STMicroelectronics.
  11:Core/Src/tim.c ****   * All rights reserved.
  12:Core/Src/tim.c ****   *
  13:Core/Src/tim.c ****   * This software is licensed under terms that can be found in the LICENSE file
  14:Core/Src/tim.c ****   * in the root directory of this software component.
  15:Core/Src/tim.c ****   * If no LICENSE file comes with this software, it is provided AS-IS.
  16:Core/Src/tim.c ****   *
  17:Core/Src/tim.c ****   ******************************************************************************
  18:Core/Src/tim.c ****   */
  19:Core/Src/tim.c **** /* USER CODE END Header */
  20:Core/Src/tim.c **** /* Includes ------------------------------------------------------------------*/
  21:Core/Src/tim.c **** #include "tim.h"
  22:Core/Src/tim.c **** 
  23:Core/Src/tim.c **** /* USER CODE BEGIN 0 */
  24:Core/Src/tim.c **** 
  25:Core/Src/tim.c **** /* USER CODE END 0 */
  26:Core/Src/tim.c **** 
  27:Core/Src/tim.c **** TIM_HandleTypeDef htim3;
  28:Core/Src/tim.c **** TIM_HandleTypeDef htim4;
  29:Core/Src/tim.c **** TIM_HandleTypeDef htim11;
  30:Core/Src/tim.c **** 
ARM GAS  /tmp/ccD3RMtA.s 			page 2


  31:Core/Src/tim.c **** /* TIM3 init function */
  32:Core/Src/tim.c **** void MX_TIM3_Init(void)
  33:Core/Src/tim.c **** {
  29              		.loc 1 33 1 view -0
  30              		.cfi_startproc
  31              		@ args = 0, pretend = 0, frame = 40
  32              		@ frame_needed = 0, uses_anonymous_args = 0
  33 0000 00B5     		push	{lr}
  34              	.LCFI0:
  35              		.cfi_def_cfa_offset 4
  36              		.cfi_offset 14, -4
  37 0002 8BB0     		sub	sp, sp, #44
  38              	.LCFI1:
  39              		.cfi_def_cfa_offset 48
  34:Core/Src/tim.c **** 
  35:Core/Src/tim.c ****   /* USER CODE BEGIN TIM3_Init 0 */
  36:Core/Src/tim.c **** 
  37:Core/Src/tim.c ****   /* USER CODE END TIM3_Init 0 */
  38:Core/Src/tim.c **** 
  39:Core/Src/tim.c ****   TIM_ClockConfigTypeDef sClockSourceConfig = {0};
  40              		.loc 1 39 3 view .LVU1
  41              		.loc 1 39 26 is_stmt 0 view .LVU2
  42 0004 0023     		movs	r3, #0
  43 0006 0693     		str	r3, [sp, #24]
  44 0008 0793     		str	r3, [sp, #28]
  45 000a 0893     		str	r3, [sp, #32]
  46 000c 0993     		str	r3, [sp, #36]
  40:Core/Src/tim.c ****   TIM_MasterConfigTypeDef sMasterConfig = {0};
  47              		.loc 1 40 3 is_stmt 1 view .LVU3
  48              		.loc 1 40 27 is_stmt 0 view .LVU4
  49 000e 0493     		str	r3, [sp, #16]
  50 0010 0593     		str	r3, [sp, #20]
  41:Core/Src/tim.c ****   TIM_IC_InitTypeDef sConfigIC = {0};
  51              		.loc 1 41 3 is_stmt 1 view .LVU5
  52              		.loc 1 41 22 is_stmt 0 view .LVU6
  53 0012 0093     		str	r3, [sp]
  54 0014 0193     		str	r3, [sp, #4]
  55 0016 0293     		str	r3, [sp, #8]
  56 0018 0393     		str	r3, [sp, #12]
  42:Core/Src/tim.c **** 
  43:Core/Src/tim.c ****   /* USER CODE BEGIN TIM3_Init 1 */
  44:Core/Src/tim.c **** 
  45:Core/Src/tim.c ****   /* USER CODE END TIM3_Init 1 */
  46:Core/Src/tim.c ****   htim3.Instance = TIM3;
  57              		.loc 1 46 3 is_stmt 1 view .LVU7
  58              		.loc 1 46 18 is_stmt 0 view .LVU8
  59 001a 1F48     		ldr	r0, .L13
  60 001c 1F4A     		ldr	r2, .L13+4
  61 001e 0260     		str	r2, [r0]
  47:Core/Src/tim.c ****   htim3.Init.Prescaler = 100-1;
  62              		.loc 1 47 3 is_stmt 1 view .LVU9
  63              		.loc 1 47 24 is_stmt 0 view .LVU10
  64 0020 6322     		movs	r2, #99
  65 0022 4260     		str	r2, [r0, #4]
  48:Core/Src/tim.c ****   htim3.Init.CounterMode = TIM_COUNTERMODE_UP;
  66              		.loc 1 48 3 is_stmt 1 view .LVU11
  67              		.loc 1 48 26 is_stmt 0 view .LVU12
ARM GAS  /tmp/ccD3RMtA.s 			page 3


  68 0024 8360     		str	r3, [r0, #8]
  49:Core/Src/tim.c ****   htim3.Init.Period = 65535;
  69              		.loc 1 49 3 is_stmt 1 view .LVU13
  70              		.loc 1 49 21 is_stmt 0 view .LVU14
  71 0026 4FF6FF72 		movw	r2, #65535
  72 002a C260     		str	r2, [r0, #12]
  50:Core/Src/tim.c ****   htim3.Init.ClockDivision = TIM_CLOCKDIVISION_DIV1;
  73              		.loc 1 50 3 is_stmt 1 view .LVU15
  74              		.loc 1 50 28 is_stmt 0 view .LVU16
  75 002c 0361     		str	r3, [r0, #16]
  51:Core/Src/tim.c ****   htim3.Init.AutoReloadPreload = TIM_AUTORELOAD_PRELOAD_DISABLE;
  76              		.loc 1 51 3 is_stmt 1 view .LVU17
  77              		.loc 1 51 32 is_stmt 0 view .LVU18
  78 002e 8361     		str	r3, [r0, #24]
  52:Core/Src/tim.c ****   if (HAL_TIM_Base_Init(&htim3) != HAL_OK)
  79              		.loc 1 52 3 is_stmt 1 view .LVU19
  80              		.loc 1 52 7 is_stmt 0 view .LVU20
  81 0030 FFF7FEFF 		bl	HAL_TIM_Base_Init
  82              	.LVL0:
  83              		.loc 1 52 6 discriminator 1 view .LVU21
  84 0034 08BB     		cbnz	r0, .L8
  85              	.L2:
  53:Core/Src/tim.c ****   {
  54:Core/Src/tim.c ****     Error_Handler();
  55:Core/Src/tim.c ****   }
  56:Core/Src/tim.c ****   sClockSourceConfig.ClockSource = TIM_CLOCKSOURCE_INTERNAL;
  86              		.loc 1 56 3 is_stmt 1 view .LVU22
  87              		.loc 1 56 34 is_stmt 0 view .LVU23
  88 0036 4FF48053 		mov	r3, #4096
  89 003a 0693     		str	r3, [sp, #24]
  57:Core/Src/tim.c ****   if (HAL_TIM_ConfigClockSource(&htim3, &sClockSourceConfig) != HAL_OK)
  90              		.loc 1 57 3 is_stmt 1 view .LVU24
  91              		.loc 1 57 7 is_stmt 0 view .LVU25
  92 003c 06A9     		add	r1, sp, #24
  93 003e 1648     		ldr	r0, .L13
  94 0040 FFF7FEFF 		bl	HAL_TIM_ConfigClockSource
  95              	.LVL1:
  96              		.loc 1 57 6 discriminator 1 view .LVU26
  97 0044 E0B9     		cbnz	r0, .L9
  98              	.L3:
  58:Core/Src/tim.c ****   {
  59:Core/Src/tim.c ****     Error_Handler();
  60:Core/Src/tim.c ****   }
  61:Core/Src/tim.c ****   if (HAL_TIM_IC_Init(&htim3) != HAL_OK)
  99              		.loc 1 61 3 is_stmt 1 view .LVU27
 100              		.loc 1 61 7 is_stmt 0 view .LVU28
 101 0046 1448     		ldr	r0, .L13
 102 0048 FFF7FEFF 		bl	HAL_TIM_IC_Init
 103              	.LVL2:
 104              		.loc 1 61 6 discriminator 1 view .LVU29
 105 004c D8B9     		cbnz	r0, .L10
 106              	.L4:
  62:Core/Src/tim.c ****   {
  63:Core/Src/tim.c ****     Error_Handler();
  64:Core/Src/tim.c ****   }
  65:Core/Src/tim.c ****   sMasterConfig.MasterOutputTrigger = TIM_TRGO_RESET;
 107              		.loc 1 65 3 is_stmt 1 view .LVU30
ARM GAS  /tmp/ccD3RMtA.s 			page 4


 108              		.loc 1 65 37 is_stmt 0 view .LVU31
 109 004e 0023     		movs	r3, #0
 110 0050 0493     		str	r3, [sp, #16]
  66:Core/Src/tim.c ****   sMasterConfig.MasterSlaveMode = TIM_MASTERSLAVEMODE_DISABLE;
 111              		.loc 1 66 3 is_stmt 1 view .LVU32
 112              		.loc 1 66 33 is_stmt 0 view .LVU33
 113 0052 0593     		str	r3, [sp, #20]
  67:Core/Src/tim.c ****   if (HAL_TIMEx_MasterConfigSynchronization(&htim3, &sMasterConfig) != HAL_OK)
 114              		.loc 1 67 3 is_stmt 1 view .LVU34
 115              		.loc 1 67 7 is_stmt 0 view .LVU35
 116 0054 04A9     		add	r1, sp, #16
 117 0056 1048     		ldr	r0, .L13
 118 0058 FFF7FEFF 		bl	HAL_TIMEx_MasterConfigSynchronization
 119              	.LVL3:
 120              		.loc 1 67 6 discriminator 1 view .LVU36
 121 005c B0B9     		cbnz	r0, .L11
 122              	.L5:
  68:Core/Src/tim.c ****   {
  69:Core/Src/tim.c ****     Error_Handler();
  70:Core/Src/tim.c ****   }
  71:Core/Src/tim.c ****   sConfigIC.ICPolarity = TIM_INPUTCHANNELPOLARITY_RISING;
 123              		.loc 1 71 3 is_stmt 1 view .LVU37
 124              		.loc 1 71 24 is_stmt 0 view .LVU38
 125 005e 0022     		movs	r2, #0
 126 0060 0092     		str	r2, [sp]
  72:Core/Src/tim.c ****   sConfigIC.ICSelection = TIM_ICSELECTION_DIRECTTI;
 127              		.loc 1 72 3 is_stmt 1 view .LVU39
 128              		.loc 1 72 25 is_stmt 0 view .LVU40
 129 0062 0123     		movs	r3, #1
 130 0064 0193     		str	r3, [sp, #4]
  73:Core/Src/tim.c ****   sConfigIC.ICPrescaler = TIM_ICPSC_DIV1;
 131              		.loc 1 73 3 is_stmt 1 view .LVU41
 132              		.loc 1 73 25 is_stmt 0 view .LVU42
 133 0066 0292     		str	r2, [sp, #8]
  74:Core/Src/tim.c ****   sConfigIC.ICFilter = 0;
 134              		.loc 1 74 3 is_stmt 1 view .LVU43
 135              		.loc 1 74 22 is_stmt 0 view .LVU44
 136 0068 0392     		str	r2, [sp, #12]
  75:Core/Src/tim.c ****   if (HAL_TIM_IC_ConfigChannel(&htim3, &sConfigIC, TIM_CHANNEL_1) != HAL_OK)
 137              		.loc 1 75 3 is_stmt 1 view .LVU45
 138              		.loc 1 75 7 is_stmt 0 view .LVU46
 139 006a 6946     		mov	r1, sp
 140 006c 0A48     		ldr	r0, .L13
 141 006e FFF7FEFF 		bl	HAL_TIM_IC_ConfigChannel
 142              	.LVL4:
 143              		.loc 1 75 6 discriminator 1 view .LVU47
 144 0072 70B9     		cbnz	r0, .L12
 145              	.L1:
  76:Core/Src/tim.c ****   {
  77:Core/Src/tim.c ****     Error_Handler();
  78:Core/Src/tim.c ****   }
  79:Core/Src/tim.c ****   /* USER CODE BEGIN TIM3_Init 2 */
  80:Core/Src/tim.c **** 
  81:Core/Src/tim.c ****   /* USER CODE END TIM3_Init 2 */
  82:Core/Src/tim.c **** 
  83:Core/Src/tim.c **** }
 146              		.loc 1 83 1 view .LVU48
ARM GAS  /tmp/ccD3RMtA.s 			page 5


 147 0074 0BB0     		add	sp, sp, #44
 148              	.LCFI2:
 149              		.cfi_remember_state
 150              		.cfi_def_cfa_offset 4
 151              		@ sp needed
 152 0076 5DF804FB 		ldr	pc, [sp], #4
 153              	.L8:
 154              	.LCFI3:
 155              		.cfi_restore_state
  54:Core/Src/tim.c ****   }
 156              		.loc 1 54 5 is_stmt 1 view .LVU49
 157 007a FFF7FEFF 		bl	Error_Handler
 158              	.LVL5:
 159 007e DAE7     		b	.L2
 160              	.L9:
  59:Core/Src/tim.c ****   }
 161              		.loc 1 59 5 view .LVU50
 162 0080 FFF7FEFF 		bl	Error_Handler
 163              	.LVL6:
 164 0084 DFE7     		b	.L3
 165              	.L10:
  63:Core/Src/tim.c ****   }
 166              		.loc 1 63 5 view .LVU51
 167 0086 FFF7FEFF 		bl	Error_Handler
 168              	.LVL7:
 169 008a E0E7     		b	.L4
 170              	.L11:
  69:Core/Src/tim.c ****   }
 171              		.loc 1 69 5 view .LVU52
 172 008c FFF7FEFF 		bl	Error_Handler
 173              	.LVL8:
 174 0090 E5E7     		b	.L5
 175              	.L12:
  77:Core/Src/tim.c ****   }
 176              		.loc 1 77 5 view .LVU53
 177 0092 FFF7FEFF 		bl	Error_Handler
 178              	.LVL9:
 179              		.loc 1 83 1 is_stmt 0 view .LVU54
 180 0096 EDE7     		b	.L1
 181              	.L14:
 182              		.align	2
 183              	.L13:
 184 0098 00000000 		.word	htim3
 185 009c 00040040 		.word	1073742848
 186              		.cfi_endproc
 187              	.LFE134:
 189              		.section	.text.MX_TIM11_Init,"ax",%progbits
 190              		.align	1
 191              		.global	MX_TIM11_Init
 192              		.syntax unified
 193              		.thumb
 194              		.thumb_func
 196              	MX_TIM11_Init:
 197              	.LFB136:
  84:Core/Src/tim.c **** /* TIM4 init function */
  85:Core/Src/tim.c **** void MX_TIM4_Init(void)
  86:Core/Src/tim.c **** {
ARM GAS  /tmp/ccD3RMtA.s 			page 6


  87:Core/Src/tim.c **** 
  88:Core/Src/tim.c ****   /* USER CODE BEGIN TIM4_Init 0 */
  89:Core/Src/tim.c **** 
  90:Core/Src/tim.c ****   /* USER CODE END TIM4_Init 0 */
  91:Core/Src/tim.c **** 
  92:Core/Src/tim.c ****   TIM_ClockConfigTypeDef sClockSourceConfig = {0};
  93:Core/Src/tim.c ****   TIM_MasterConfigTypeDef sMasterConfig = {0};
  94:Core/Src/tim.c ****   TIM_OC_InitTypeDef sConfigOC = {0};
  95:Core/Src/tim.c **** 
  96:Core/Src/tim.c ****   /* USER CODE BEGIN TIM4_Init 1 */
  97:Core/Src/tim.c **** 
  98:Core/Src/tim.c ****   /* USER CODE END TIM4_Init 1 */
  99:Core/Src/tim.c ****   htim4.Instance = TIM4;
 100:Core/Src/tim.c ****   htim4.Init.Prescaler = 100-1;
 101:Core/Src/tim.c ****   htim4.Init.CounterMode = TIM_COUNTERMODE_UP;
 102:Core/Src/tim.c ****   htim4.Init.Period = 1000-1;
 103:Core/Src/tim.c ****   htim4.Init.ClockDivision = TIM_CLOCKDIVISION_DIV1;
 104:Core/Src/tim.c ****   htim4.Init.AutoReloadPreload = TIM_AUTORELOAD_PRELOAD_ENABLE;
 105:Core/Src/tim.c ****   if (HAL_TIM_Base_Init(&htim4) != HAL_OK)
 106:Core/Src/tim.c ****   {
 107:Core/Src/tim.c ****     Error_Handler();
 108:Core/Src/tim.c ****   }
 109:Core/Src/tim.c ****   sClockSourceConfig.ClockSource = TIM_CLOCKSOURCE_INTERNAL;
 110:Core/Src/tim.c ****   if (HAL_TIM_ConfigClockSource(&htim4, &sClockSourceConfig) != HAL_OK)
 111:Core/Src/tim.c ****   {
 112:Core/Src/tim.c ****     Error_Handler();
 113:Core/Src/tim.c ****   }
 114:Core/Src/tim.c ****   if (HAL_TIM_PWM_Init(&htim4) != HAL_OK)
 115:Core/Src/tim.c ****   {
 116:Core/Src/tim.c ****     Error_Handler();
 117:Core/Src/tim.c ****   }
 118:Core/Src/tim.c ****   sMasterConfig.MasterOutputTrigger = TIM_TRGO_RESET;
 119:Core/Src/tim.c ****   sMasterConfig.MasterSlaveMode = TIM_MASTERSLAVEMODE_DISABLE;
 120:Core/Src/tim.c ****   if (HAL_TIMEx_MasterConfigSynchronization(&htim4, &sMasterConfig) != HAL_OK)
 121:Core/Src/tim.c ****   {
 122:Core/Src/tim.c ****     Error_Handler();
 123:Core/Src/tim.c ****   }
 124:Core/Src/tim.c ****   sConfigOC.OCMode = TIM_OCMODE_PWM1;
 125:Core/Src/tim.c ****   sConfigOC.Pulse = 0;
 126:Core/Src/tim.c ****   sConfigOC.OCPolarity = TIM_OCPOLARITY_HIGH;
 127:Core/Src/tim.c ****   sConfigOC.OCFastMode = TIM_OCFAST_DISABLE;
 128:Core/Src/tim.c ****   if (HAL_TIM_PWM_ConfigChannel(&htim4, &sConfigOC, TIM_CHANNEL_1) != HAL_OK)
 129:Core/Src/tim.c ****   {
 130:Core/Src/tim.c ****     Error_Handler();
 131:Core/Src/tim.c ****   }
 132:Core/Src/tim.c ****   if (HAL_TIM_PWM_ConfigChannel(&htim4, &sConfigOC, TIM_CHANNEL_2) != HAL_OK)
 133:Core/Src/tim.c ****   {
 134:Core/Src/tim.c ****     Error_Handler();
 135:Core/Src/tim.c ****   }
 136:Core/Src/tim.c ****   /* USER CODE BEGIN TIM4_Init 2 */
 137:Core/Src/tim.c **** 
 138:Core/Src/tim.c ****   /* USER CODE END TIM4_Init 2 */
 139:Core/Src/tim.c ****   HAL_TIM_MspPostInit(&htim4);
 140:Core/Src/tim.c **** 
 141:Core/Src/tim.c **** }
 142:Core/Src/tim.c **** /* TIM11 init function */
 143:Core/Src/tim.c **** void MX_TIM11_Init(void)
ARM GAS  /tmp/ccD3RMtA.s 			page 7


 144:Core/Src/tim.c **** {
 198              		.loc 1 144 1 is_stmt 1 view -0
 199              		.cfi_startproc
 200              		@ args = 0, pretend = 0, frame = 0
 201              		@ frame_needed = 0, uses_anonymous_args = 0
 202 0000 08B5     		push	{r3, lr}
 203              	.LCFI4:
 204              		.cfi_def_cfa_offset 8
 205              		.cfi_offset 3, -8
 206              		.cfi_offset 14, -4
 145:Core/Src/tim.c **** 
 146:Core/Src/tim.c ****   /* USER CODE BEGIN TIM11_Init 0 */
 147:Core/Src/tim.c **** 
 148:Core/Src/tim.c ****   /* USER CODE END TIM11_Init 0 */
 149:Core/Src/tim.c **** 
 150:Core/Src/tim.c ****   /* USER CODE BEGIN TIM11_Init 1 */
 151:Core/Src/tim.c **** 
 152:Core/Src/tim.c ****   /* USER CODE END TIM11_Init 1 */
 153:Core/Src/tim.c ****   htim11.Instance = TIM11;
 207              		.loc 1 153 3 view .LVU56
 208              		.loc 1 153 19 is_stmt 0 view .LVU57
 209 0002 0948     		ldr	r0, .L19
 210 0004 094B     		ldr	r3, .L19+4
 211 0006 0360     		str	r3, [r0]
 154:Core/Src/tim.c ****   htim11.Init.Prescaler = 100-1;
 212              		.loc 1 154 3 is_stmt 1 view .LVU58
 213              		.loc 1 154 25 is_stmt 0 view .LVU59
 214 0008 6323     		movs	r3, #99
 215 000a 4360     		str	r3, [r0, #4]
 155:Core/Src/tim.c ****   htim11.Init.CounterMode = TIM_COUNTERMODE_UP;
 216              		.loc 1 155 3 is_stmt 1 view .LVU60
 217              		.loc 1 155 27 is_stmt 0 view .LVU61
 218 000c 0023     		movs	r3, #0
 219 000e 8360     		str	r3, [r0, #8]
 156:Core/Src/tim.c ****   htim11.Init.Period = 65535;
 220              		.loc 1 156 3 is_stmt 1 view .LVU62
 221              		.loc 1 156 22 is_stmt 0 view .LVU63
 222 0010 4FF6FF72 		movw	r2, #65535
 223 0014 C260     		str	r2, [r0, #12]
 157:Core/Src/tim.c ****   htim11.Init.ClockDivision = TIM_CLOCKDIVISION_DIV1;
 224              		.loc 1 157 3 is_stmt 1 view .LVU64
 225              		.loc 1 157 29 is_stmt 0 view .LVU65
 226 0016 0361     		str	r3, [r0, #16]
 158:Core/Src/tim.c ****   htim11.Init.AutoReloadPreload = TIM_AUTORELOAD_PRELOAD_DISABLE;
 227              		.loc 1 158 3 is_stmt 1 view .LVU66
 228              		.loc 1 158 33 is_stmt 0 view .LVU67
 229 0018 8361     		str	r3, [r0, #24]
 159:Core/Src/tim.c ****   if (HAL_TIM_Base_Init(&htim11) != HAL_OK)
 230              		.loc 1 159 3 is_stmt 1 view .LVU68
 231              		.loc 1 159 7 is_stmt 0 view .LVU69
 232 001a FFF7FEFF 		bl	HAL_TIM_Base_Init
 233              	.LVL10:
 234              		.loc 1 159 6 discriminator 1 view .LVU70
 235 001e 00B9     		cbnz	r0, .L18
 236              	.L15:
 160:Core/Src/tim.c ****   {
 161:Core/Src/tim.c ****     Error_Handler();
ARM GAS  /tmp/ccD3RMtA.s 			page 8


 162:Core/Src/tim.c ****   }
 163:Core/Src/tim.c ****   /* USER CODE BEGIN TIM11_Init 2 */
 164:Core/Src/tim.c **** 
 165:Core/Src/tim.c ****   /* USER CODE END TIM11_Init 2 */
 166:Core/Src/tim.c **** 
 167:Core/Src/tim.c **** }
 237              		.loc 1 167 1 view .LVU71
 238 0020 08BD     		pop	{r3, pc}
 239              	.L18:
 161:Core/Src/tim.c ****   }
 240              		.loc 1 161 5 is_stmt 1 view .LVU72
 241 0022 FFF7FEFF 		bl	Error_Handler
 242              	.LVL11:
 243              		.loc 1 167 1 is_stmt 0 view .LVU73
 244 0026 FBE7     		b	.L15
 245              	.L20:
 246              		.align	2
 247              	.L19:
 248 0028 00000000 		.word	htim11
 249 002c 00480140 		.word	1073825792
 250              		.cfi_endproc
 251              	.LFE136:
 253              		.section	.text.HAL_TIM_Base_MspInit,"ax",%progbits
 254              		.align	1
 255              		.global	HAL_TIM_Base_MspInit
 256              		.syntax unified
 257              		.thumb
 258              		.thumb_func
 260              	HAL_TIM_Base_MspInit:
 261              	.LVL12:
 262              	.LFB137:
 168:Core/Src/tim.c **** 
 169:Core/Src/tim.c **** void HAL_TIM_Base_MspInit(TIM_HandleTypeDef* tim_baseHandle)
 170:Core/Src/tim.c **** {
 263              		.loc 1 170 1 is_stmt 1 view -0
 264              		.cfi_startproc
 265              		@ args = 0, pretend = 0, frame = 40
 266              		@ frame_needed = 0, uses_anonymous_args = 0
 267              		.loc 1 170 1 is_stmt 0 view .LVU75
 268 0000 10B5     		push	{r4, lr}
 269              	.LCFI5:
 270              		.cfi_def_cfa_offset 8
 271              		.cfi_offset 4, -8
 272              		.cfi_offset 14, -4
 273 0002 8AB0     		sub	sp, sp, #40
 274              	.LCFI6:
 275              		.cfi_def_cfa_offset 48
 171:Core/Src/tim.c **** 
 172:Core/Src/tim.c ****   GPIO_InitTypeDef GPIO_InitStruct = {0};
 276              		.loc 1 172 3 is_stmt 1 view .LVU76
 277              		.loc 1 172 20 is_stmt 0 view .LVU77
 278 0004 0023     		movs	r3, #0
 279 0006 0593     		str	r3, [sp, #20]
 280 0008 0693     		str	r3, [sp, #24]
 281 000a 0793     		str	r3, [sp, #28]
 282 000c 0893     		str	r3, [sp, #32]
 283 000e 0993     		str	r3, [sp, #36]
ARM GAS  /tmp/ccD3RMtA.s 			page 9


 173:Core/Src/tim.c ****   if(tim_baseHandle->Instance==TIM3)
 284              		.loc 1 173 3 is_stmt 1 view .LVU78
 285              		.loc 1 173 20 is_stmt 0 view .LVU79
 286 0010 0368     		ldr	r3, [r0]
 287              		.loc 1 173 5 view .LVU80
 288 0012 264A     		ldr	r2, .L29
 289 0014 9342     		cmp	r3, r2
 290 0016 07D0     		beq	.L26
 174:Core/Src/tim.c ****   {
 175:Core/Src/tim.c ****   /* USER CODE BEGIN TIM3_MspInit 0 */
 176:Core/Src/tim.c **** 
 177:Core/Src/tim.c ****   /* USER CODE END TIM3_MspInit 0 */
 178:Core/Src/tim.c ****     /* TIM3 clock enable */
 179:Core/Src/tim.c ****     __HAL_RCC_TIM3_CLK_ENABLE();
 180:Core/Src/tim.c **** 
 181:Core/Src/tim.c ****     __HAL_RCC_GPIOA_CLK_ENABLE();
 182:Core/Src/tim.c ****     /**TIM3 GPIO Configuration
 183:Core/Src/tim.c ****     PA6     ------> TIM3_CH1
 184:Core/Src/tim.c ****     */
 185:Core/Src/tim.c ****     GPIO_InitStruct.Pin = ECHO_TIM3_CH1_Pin;
 186:Core/Src/tim.c ****     GPIO_InitStruct.Mode = GPIO_MODE_AF_PP;
 187:Core/Src/tim.c ****     GPIO_InitStruct.Pull = GPIO_NOPULL;
 188:Core/Src/tim.c ****     GPIO_InitStruct.Speed = GPIO_SPEED_FREQ_LOW;
 189:Core/Src/tim.c ****     GPIO_InitStruct.Alternate = GPIO_AF2_TIM3;
 190:Core/Src/tim.c ****     HAL_GPIO_Init(ECHO_TIM3_CH1_GPIO_Port, &GPIO_InitStruct);
 191:Core/Src/tim.c **** 
 192:Core/Src/tim.c ****     /* TIM3 interrupt Init */
 193:Core/Src/tim.c ****     HAL_NVIC_SetPriority(TIM3_IRQn, 5, 0);
 194:Core/Src/tim.c ****     HAL_NVIC_EnableIRQ(TIM3_IRQn);
 195:Core/Src/tim.c ****   /* USER CODE BEGIN TIM3_MspInit 1 */
 196:Core/Src/tim.c **** 
 197:Core/Src/tim.c ****   /* USER CODE END TIM3_MspInit 1 */
 198:Core/Src/tim.c ****   }
 199:Core/Src/tim.c ****   else if(tim_baseHandle->Instance==TIM4)
 291              		.loc 1 199 8 is_stmt 1 view .LVU81
 292              		.loc 1 199 10 is_stmt 0 view .LVU82
 293 0018 254A     		ldr	r2, .L29+4
 294 001a 9342     		cmp	r3, r2
 295 001c 2CD0     		beq	.L27
 200:Core/Src/tim.c ****   {
 201:Core/Src/tim.c ****   /* USER CODE BEGIN TIM4_MspInit 0 */
 202:Core/Src/tim.c **** 
 203:Core/Src/tim.c ****   /* USER CODE END TIM4_MspInit 0 */
 204:Core/Src/tim.c ****     /* TIM4 clock enable */
 205:Core/Src/tim.c ****     __HAL_RCC_TIM4_CLK_ENABLE();
 206:Core/Src/tim.c ****   /* USER CODE BEGIN TIM4_MspInit 1 */
 207:Core/Src/tim.c **** 
 208:Core/Src/tim.c ****   /* USER CODE END TIM4_MspInit 1 */
 209:Core/Src/tim.c ****   }
 210:Core/Src/tim.c ****   else if(tim_baseHandle->Instance==TIM11)
 296              		.loc 1 210 8 is_stmt 1 view .LVU83
 297              		.loc 1 210 10 is_stmt 0 view .LVU84
 298 001e 254A     		ldr	r2, .L29+8
 299 0020 9342     		cmp	r3, r2
 300 0022 36D0     		beq	.L28
 301              	.LVL13:
 302              	.L21:
ARM GAS  /tmp/ccD3RMtA.s 			page 10


 211:Core/Src/tim.c ****   {
 212:Core/Src/tim.c ****   /* USER CODE BEGIN TIM11_MspInit 0 */
 213:Core/Src/tim.c **** 
 214:Core/Src/tim.c ****   /* USER CODE END TIM11_MspInit 0 */
 215:Core/Src/tim.c ****     /* TIM11 clock enable */
 216:Core/Src/tim.c ****     __HAL_RCC_TIM11_CLK_ENABLE();
 217:Core/Src/tim.c ****   /* USER CODE BEGIN TIM11_MspInit 1 */
 218:Core/Src/tim.c **** 
 219:Core/Src/tim.c ****   /* USER CODE END TIM11_MspInit 1 */
 220:Core/Src/tim.c ****   }
 221:Core/Src/tim.c **** }
 303              		.loc 1 221 1 view .LVU85
 304 0024 0AB0     		add	sp, sp, #40
 305              	.LCFI7:
 306              		.cfi_remember_state
 307              		.cfi_def_cfa_offset 8
 308              		@ sp needed
 309 0026 10BD     		pop	{r4, pc}
 310              	.LVL14:
 311              	.L26:
 312              	.LCFI8:
 313              		.cfi_restore_state
 179:Core/Src/tim.c **** 
 314              		.loc 1 179 5 is_stmt 1 view .LVU86
 315              	.LBB2:
 179:Core/Src/tim.c **** 
 316              		.loc 1 179 5 view .LVU87
 317 0028 0024     		movs	r4, #0
 318 002a 0194     		str	r4, [sp, #4]
 179:Core/Src/tim.c **** 
 319              		.loc 1 179 5 view .LVU88
 320 002c 224B     		ldr	r3, .L29+12
 321 002e 1A6C     		ldr	r2, [r3, #64]
 322 0030 42F00202 		orr	r2, r2, #2
 323 0034 1A64     		str	r2, [r3, #64]
 179:Core/Src/tim.c **** 
 324              		.loc 1 179 5 view .LVU89
 325 0036 1A6C     		ldr	r2, [r3, #64]
 326 0038 02F00202 		and	r2, r2, #2
 327 003c 0192     		str	r2, [sp, #4]
 179:Core/Src/tim.c **** 
 328              		.loc 1 179 5 view .LVU90
 329 003e 019A     		ldr	r2, [sp, #4]
 330              	.LBE2:
 179:Core/Src/tim.c **** 
 331              		.loc 1 179 5 view .LVU91
 181:Core/Src/tim.c ****     /**TIM3 GPIO Configuration
 332              		.loc 1 181 5 view .LVU92
 333              	.LBB3:
 181:Core/Src/tim.c ****     /**TIM3 GPIO Configuration
 334              		.loc 1 181 5 view .LVU93
 335 0040 0294     		str	r4, [sp, #8]
 181:Core/Src/tim.c ****     /**TIM3 GPIO Configuration
 336              		.loc 1 181 5 view .LVU94
 337 0042 1A6B     		ldr	r2, [r3, #48]
 338 0044 42F00102 		orr	r2, r2, #1
 339 0048 1A63     		str	r2, [r3, #48]
ARM GAS  /tmp/ccD3RMtA.s 			page 11


 181:Core/Src/tim.c ****     /**TIM3 GPIO Configuration
 340              		.loc 1 181 5 view .LVU95
 341 004a 1B6B     		ldr	r3, [r3, #48]
 342 004c 03F00103 		and	r3, r3, #1
 343 0050 0293     		str	r3, [sp, #8]
 181:Core/Src/tim.c ****     /**TIM3 GPIO Configuration
 344              		.loc 1 181 5 view .LVU96
 345 0052 029B     		ldr	r3, [sp, #8]
 346              	.LBE3:
 181:Core/Src/tim.c ****     /**TIM3 GPIO Configuration
 347              		.loc 1 181 5 view .LVU97
 185:Core/Src/tim.c ****     GPIO_InitStruct.Mode = GPIO_MODE_AF_PP;
 348              		.loc 1 185 5 view .LVU98
 185:Core/Src/tim.c ****     GPIO_InitStruct.Mode = GPIO_MODE_AF_PP;
 349              		.loc 1 185 25 is_stmt 0 view .LVU99
 350 0054 4023     		movs	r3, #64
 351 0056 0593     		str	r3, [sp, #20]
 186:Core/Src/tim.c ****     GPIO_InitStruct.Pull = GPIO_NOPULL;
 352              		.loc 1 186 5 is_stmt 1 view .LVU100
 186:Core/Src/tim.c ****     GPIO_InitStruct.Pull = GPIO_NOPULL;
 353              		.loc 1 186 26 is_stmt 0 view .LVU101
 354 0058 0223     		movs	r3, #2
 355 005a 0693     		str	r3, [sp, #24]
 187:Core/Src/tim.c ****     GPIO_InitStruct.Speed = GPIO_SPEED_FREQ_LOW;
 356              		.loc 1 187 5 is_stmt 1 view .LVU102
 188:Core/Src/tim.c ****     GPIO_InitStruct.Alternate = GPIO_AF2_TIM3;
 357              		.loc 1 188 5 view .LVU103
 189:Core/Src/tim.c ****     HAL_GPIO_Init(ECHO_TIM3_CH1_GPIO_Port, &GPIO_InitStruct);
 358              		.loc 1 189 5 view .LVU104
 189:Core/Src/tim.c ****     HAL_GPIO_Init(ECHO_TIM3_CH1_GPIO_Port, &GPIO_InitStruct);
 359              		.loc 1 189 31 is_stmt 0 view .LVU105
 360 005c 0993     		str	r3, [sp, #36]
 190:Core/Src/tim.c **** 
 361              		.loc 1 190 5 is_stmt 1 view .LVU106
 362 005e 05A9     		add	r1, sp, #20
 363 0060 1648     		ldr	r0, .L29+16
 364              	.LVL15:
 190:Core/Src/tim.c **** 
 365              		.loc 1 190 5 is_stmt 0 view .LVU107
 366 0062 FFF7FEFF 		bl	HAL_GPIO_Init
 367              	.LVL16:
 193:Core/Src/tim.c ****     HAL_NVIC_EnableIRQ(TIM3_IRQn);
 368              		.loc 1 193 5 is_stmt 1 view .LVU108
 369 0066 2246     		mov	r2, r4
 370 0068 0521     		movs	r1, #5
 371 006a 1D20     		movs	r0, #29
 372 006c FFF7FEFF 		bl	HAL_NVIC_SetPriority
 373              	.LVL17:
 194:Core/Src/tim.c ****   /* USER CODE BEGIN TIM3_MspInit 1 */
 374              		.loc 1 194 5 view .LVU109
 375 0070 1D20     		movs	r0, #29
 376 0072 FFF7FEFF 		bl	HAL_NVIC_EnableIRQ
 377              	.LVL18:
 378 0076 D5E7     		b	.L21
 379              	.LVL19:
 380              	.L27:
 205:Core/Src/tim.c ****   /* USER CODE BEGIN TIM4_MspInit 1 */
ARM GAS  /tmp/ccD3RMtA.s 			page 12


 381              		.loc 1 205 5 view .LVU110
 382              	.LBB4:
 205:Core/Src/tim.c ****   /* USER CODE BEGIN TIM4_MspInit 1 */
 383              		.loc 1 205 5 view .LVU111
 384 0078 0023     		movs	r3, #0
 385 007a 0393     		str	r3, [sp, #12]
 205:Core/Src/tim.c ****   /* USER CODE BEGIN TIM4_MspInit 1 */
 386              		.loc 1 205 5 view .LVU112
 387 007c 0E4B     		ldr	r3, .L29+12
 388 007e 1A6C     		ldr	r2, [r3, #64]
 389 0080 42F00402 		orr	r2, r2, #4
 390 0084 1A64     		str	r2, [r3, #64]
 205:Core/Src/tim.c ****   /* USER CODE BEGIN TIM4_MspInit 1 */
 391              		.loc 1 205 5 view .LVU113
 392 0086 1B6C     		ldr	r3, [r3, #64]
 393 0088 03F00403 		and	r3, r3, #4
 394 008c 0393     		str	r3, [sp, #12]
 205:Core/Src/tim.c ****   /* USER CODE BEGIN TIM4_MspInit 1 */
 395              		.loc 1 205 5 view .LVU114
 396 008e 039B     		ldr	r3, [sp, #12]
 397              	.LBE4:
 205:Core/Src/tim.c ****   /* USER CODE BEGIN TIM4_MspInit 1 */
 398              		.loc 1 205 5 view .LVU115
 399 0090 C8E7     		b	.L21
 400              	.L28:
 216:Core/Src/tim.c ****   /* USER CODE BEGIN TIM11_MspInit 1 */
 401              		.loc 1 216 5 view .LVU116
 402              	.LBB5:
 216:Core/Src/tim.c ****   /* USER CODE BEGIN TIM11_MspInit 1 */
 403              		.loc 1 216 5 view .LVU117
 404 0092 0023     		movs	r3, #0
 405 0094 0493     		str	r3, [sp, #16]
 216:Core/Src/tim.c ****   /* USER CODE BEGIN TIM11_MspInit 1 */
 406              		.loc 1 216 5 view .LVU118
 407 0096 084B     		ldr	r3, .L29+12
 408 0098 5A6C     		ldr	r2, [r3, #68]
 409 009a 42F48022 		orr	r2, r2, #262144
 410 009e 5A64     		str	r2, [r3, #68]
 216:Core/Src/tim.c ****   /* USER CODE BEGIN TIM11_MspInit 1 */
 411              		.loc 1 216 5 view .LVU119
 412 00a0 5B6C     		ldr	r3, [r3, #68]
 413 00a2 03F48023 		and	r3, r3, #262144
 414 00a6 0493     		str	r3, [sp, #16]
 216:Core/Src/tim.c ****   /* USER CODE BEGIN TIM11_MspInit 1 */
 415              		.loc 1 216 5 view .LVU120
 416 00a8 049B     		ldr	r3, [sp, #16]
 417              	.LBE5:
 216:Core/Src/tim.c ****   /* USER CODE BEGIN TIM11_MspInit 1 */
 418              		.loc 1 216 5 discriminator 1 view .LVU121
 419              		.loc 1 221 1 is_stmt 0 view .LVU122
 420 00aa BBE7     		b	.L21
 421              	.L30:
 422              		.align	2
 423              	.L29:
 424 00ac 00040040 		.word	1073742848
 425 00b0 00080040 		.word	1073743872
 426 00b4 00480140 		.word	1073825792
ARM GAS  /tmp/ccD3RMtA.s 			page 13


 427 00b8 00380240 		.word	1073887232
 428 00bc 00000240 		.word	1073872896
 429              		.cfi_endproc
 430              	.LFE137:
 432              		.section	.text.HAL_TIM_MspPostInit,"ax",%progbits
 433              		.align	1
 434              		.global	HAL_TIM_MspPostInit
 435              		.syntax unified
 436              		.thumb
 437              		.thumb_func
 439              	HAL_TIM_MspPostInit:
 440              	.LVL20:
 441              	.LFB138:
 222:Core/Src/tim.c **** void HAL_TIM_MspPostInit(TIM_HandleTypeDef* timHandle)
 223:Core/Src/tim.c **** {
 442              		.loc 1 223 1 is_stmt 1 view -0
 443              		.cfi_startproc
 444              		@ args = 0, pretend = 0, frame = 24
 445              		@ frame_needed = 0, uses_anonymous_args = 0
 446              		.loc 1 223 1 is_stmt 0 view .LVU124
 447 0000 00B5     		push	{lr}
 448              	.LCFI9:
 449              		.cfi_def_cfa_offset 4
 450              		.cfi_offset 14, -4
 451 0002 87B0     		sub	sp, sp, #28
 452              	.LCFI10:
 453              		.cfi_def_cfa_offset 32
 224:Core/Src/tim.c **** 
 225:Core/Src/tim.c ****   GPIO_InitTypeDef GPIO_InitStruct = {0};
 454              		.loc 1 225 3 is_stmt 1 view .LVU125
 455              		.loc 1 225 20 is_stmt 0 view .LVU126
 456 0004 0023     		movs	r3, #0
 457 0006 0193     		str	r3, [sp, #4]
 458 0008 0293     		str	r3, [sp, #8]
 459 000a 0393     		str	r3, [sp, #12]
 460 000c 0493     		str	r3, [sp, #16]
 461 000e 0593     		str	r3, [sp, #20]
 226:Core/Src/tim.c ****   if(timHandle->Instance==TIM4)
 462              		.loc 1 226 3 is_stmt 1 view .LVU127
 463              		.loc 1 226 15 is_stmt 0 view .LVU128
 464 0010 0268     		ldr	r2, [r0]
 465              		.loc 1 226 5 view .LVU129
 466 0012 0E4B     		ldr	r3, .L35
 467 0014 9A42     		cmp	r2, r3
 468 0016 02D0     		beq	.L34
 469              	.LVL21:
 470              	.L31:
 227:Core/Src/tim.c ****   {
 228:Core/Src/tim.c ****   /* USER CODE BEGIN TIM4_MspPostInit 0 */
 229:Core/Src/tim.c **** 
 230:Core/Src/tim.c ****   /* USER CODE END TIM4_MspPostInit 0 */
 231:Core/Src/tim.c **** 
 232:Core/Src/tim.c ****     __HAL_RCC_GPIOB_CLK_ENABLE();
 233:Core/Src/tim.c ****     /**TIM4 GPIO Configuration
 234:Core/Src/tim.c ****     PB6     ------> TIM4_CH1
 235:Core/Src/tim.c ****     PB7     ------> TIM4_CH2
 236:Core/Src/tim.c ****     */
ARM GAS  /tmp/ccD3RMtA.s 			page 14


 237:Core/Src/tim.c ****     GPIO_InitStruct.Pin = PWM_A_Pin|PWM_B_Pin;
 238:Core/Src/tim.c ****     GPIO_InitStruct.Mode = GPIO_MODE_AF_PP;
 239:Core/Src/tim.c ****     GPIO_InitStruct.Pull = GPIO_NOPULL;
 240:Core/Src/tim.c ****     GPIO_InitStruct.Speed = GPIO_SPEED_FREQ_LOW;
 241:Core/Src/tim.c ****     GPIO_InitStruct.Alternate = GPIO_AF2_TIM4;
 242:Core/Src/tim.c ****     HAL_GPIO_Init(GPIOB, &GPIO_InitStruct);
 243:Core/Src/tim.c **** 
 244:Core/Src/tim.c ****   /* USER CODE BEGIN TIM4_MspPostInit 1 */
 245:Core/Src/tim.c **** 
 246:Core/Src/tim.c ****   /* USER CODE END TIM4_MspPostInit 1 */
 247:Core/Src/tim.c ****   }
 248:Core/Src/tim.c **** 
 249:Core/Src/tim.c **** }
 471              		.loc 1 249 1 view .LVU130
 472 0018 07B0     		add	sp, sp, #28
 473              	.LCFI11:
 474              		.cfi_remember_state
 475              		.cfi_def_cfa_offset 4
 476              		@ sp needed
 477 001a 5DF804FB 		ldr	pc, [sp], #4
 478              	.LVL22:
 479              	.L34:
 480              	.LCFI12:
 481              		.cfi_restore_state
 232:Core/Src/tim.c ****     /**TIM4 GPIO Configuration
 482              		.loc 1 232 5 is_stmt 1 view .LVU131
 483              	.LBB6:
 232:Core/Src/tim.c ****     /**TIM4 GPIO Configuration
 484              		.loc 1 232 5 view .LVU132
 485 001e 0023     		movs	r3, #0
 486 0020 0093     		str	r3, [sp]
 232:Core/Src/tim.c ****     /**TIM4 GPIO Configuration
 487              		.loc 1 232 5 view .LVU133
 488 0022 0B4B     		ldr	r3, .L35+4
 489 0024 1A6B     		ldr	r2, [r3, #48]
 490 0026 42F00202 		orr	r2, r2, #2
 491 002a 1A63     		str	r2, [r3, #48]
 232:Core/Src/tim.c ****     /**TIM4 GPIO Configuration
 492              		.loc 1 232 5 view .LVU134
 493 002c 1B6B     		ldr	r3, [r3, #48]
 494 002e 03F00203 		and	r3, r3, #2
 495 0032 0093     		str	r3, [sp]
 232:Core/Src/tim.c ****     /**TIM4 GPIO Configuration
 496              		.loc 1 232 5 view .LVU135
 497 0034 009B     		ldr	r3, [sp]
 498              	.LBE6:
 232:Core/Src/tim.c ****     /**TIM4 GPIO Configuration
 499              		.loc 1 232 5 view .LVU136
 237:Core/Src/tim.c ****     GPIO_InitStruct.Mode = GPIO_MODE_AF_PP;
 500              		.loc 1 237 5 view .LVU137
 237:Core/Src/tim.c ****     GPIO_InitStruct.Mode = GPIO_MODE_AF_PP;
 501              		.loc 1 237 25 is_stmt 0 view .LVU138
 502 0036 C023     		movs	r3, #192
 503 0038 0193     		str	r3, [sp, #4]
 238:Core/Src/tim.c ****     GPIO_InitStruct.Pull = GPIO_NOPULL;
 504              		.loc 1 238 5 is_stmt 1 view .LVU139
 238:Core/Src/tim.c ****     GPIO_InitStruct.Pull = GPIO_NOPULL;
ARM GAS  /tmp/ccD3RMtA.s 			page 15


 505              		.loc 1 238 26 is_stmt 0 view .LVU140
 506 003a 0223     		movs	r3, #2
 507 003c 0293     		str	r3, [sp, #8]
 239:Core/Src/tim.c ****     GPIO_InitStruct.Speed = GPIO_SPEED_FREQ_LOW;
 508              		.loc 1 239 5 is_stmt 1 view .LVU141
 240:Core/Src/tim.c ****     GPIO_InitStruct.Alternate = GPIO_AF2_TIM4;
 509              		.loc 1 240 5 view .LVU142
 241:Core/Src/tim.c ****     HAL_GPIO_Init(GPIOB, &GPIO_InitStruct);
 510              		.loc 1 241 5 view .LVU143
 241:Core/Src/tim.c ****     HAL_GPIO_Init(GPIOB, &GPIO_InitStruct);
 511              		.loc 1 241 31 is_stmt 0 view .LVU144
 512 003e 0593     		str	r3, [sp, #20]
 242:Core/Src/tim.c **** 
 513              		.loc 1 242 5 is_stmt 1 view .LVU145
 514 0040 01A9     		add	r1, sp, #4
 515 0042 0448     		ldr	r0, .L35+8
 516              	.LVL23:
 242:Core/Src/tim.c **** 
 517              		.loc 1 242 5 is_stmt 0 view .LVU146
 518 0044 FFF7FEFF 		bl	HAL_GPIO_Init
 519              	.LVL24:
 520              		.loc 1 249 1 view .LVU147
 521 0048 E6E7     		b	.L31
 522              	.L36:
 523 004a 00BF     		.align	2
 524              	.L35:
 525 004c 00080040 		.word	1073743872
 526 0050 00380240 		.word	1073887232
 527 0054 00040240 		.word	1073873920
 528              		.cfi_endproc
 529              	.LFE138:
 531              		.section	.text.MX_TIM4_Init,"ax",%progbits
 532              		.align	1
 533              		.global	MX_TIM4_Init
 534              		.syntax unified
 535              		.thumb
 536              		.thumb_func
 538              	MX_TIM4_Init:
 539              	.LFB135:
  86:Core/Src/tim.c **** 
 540              		.loc 1 86 1 is_stmt 1 view -0
 541              		.cfi_startproc
 542              		@ args = 0, pretend = 0, frame = 56
 543              		@ frame_needed = 0, uses_anonymous_args = 0
 544 0000 00B5     		push	{lr}
 545              	.LCFI13:
 546              		.cfi_def_cfa_offset 4
 547              		.cfi_offset 14, -4
 548 0002 8FB0     		sub	sp, sp, #60
 549              	.LCFI14:
 550              		.cfi_def_cfa_offset 64
  92:Core/Src/tim.c ****   TIM_MasterConfigTypeDef sMasterConfig = {0};
 551              		.loc 1 92 3 view .LVU149
  92:Core/Src/tim.c ****   TIM_MasterConfigTypeDef sMasterConfig = {0};
 552              		.loc 1 92 26 is_stmt 0 view .LVU150
 553 0004 0023     		movs	r3, #0
 554 0006 0A93     		str	r3, [sp, #40]
ARM GAS  /tmp/ccD3RMtA.s 			page 16


 555 0008 0B93     		str	r3, [sp, #44]
 556 000a 0C93     		str	r3, [sp, #48]
 557 000c 0D93     		str	r3, [sp, #52]
  93:Core/Src/tim.c ****   TIM_OC_InitTypeDef sConfigOC = {0};
 558              		.loc 1 93 3 is_stmt 1 view .LVU151
  93:Core/Src/tim.c ****   TIM_OC_InitTypeDef sConfigOC = {0};
 559              		.loc 1 93 27 is_stmt 0 view .LVU152
 560 000e 0893     		str	r3, [sp, #32]
 561 0010 0993     		str	r3, [sp, #36]
  94:Core/Src/tim.c **** 
 562              		.loc 1 94 3 is_stmt 1 view .LVU153
  94:Core/Src/tim.c **** 
 563              		.loc 1 94 22 is_stmt 0 view .LVU154
 564 0012 0193     		str	r3, [sp, #4]
 565 0014 0293     		str	r3, [sp, #8]
 566 0016 0393     		str	r3, [sp, #12]
 567 0018 0493     		str	r3, [sp, #16]
 568 001a 0593     		str	r3, [sp, #20]
 569 001c 0693     		str	r3, [sp, #24]
 570 001e 0793     		str	r3, [sp, #28]
  99:Core/Src/tim.c ****   htim4.Init.Prescaler = 100-1;
 571              		.loc 1 99 3 is_stmt 1 view .LVU155
  99:Core/Src/tim.c ****   htim4.Init.Prescaler = 100-1;
 572              		.loc 1 99 18 is_stmt 0 view .LVU156
 573 0020 2648     		ldr	r0, .L51
 574 0022 274A     		ldr	r2, .L51+4
 575 0024 0260     		str	r2, [r0]
 100:Core/Src/tim.c ****   htim4.Init.CounterMode = TIM_COUNTERMODE_UP;
 576              		.loc 1 100 3 is_stmt 1 view .LVU157
 100:Core/Src/tim.c ****   htim4.Init.CounterMode = TIM_COUNTERMODE_UP;
 577              		.loc 1 100 24 is_stmt 0 view .LVU158
 578 0026 6322     		movs	r2, #99
 579 0028 4260     		str	r2, [r0, #4]
 101:Core/Src/tim.c ****   htim4.Init.Period = 1000-1;
 580              		.loc 1 101 3 is_stmt 1 view .LVU159
 101:Core/Src/tim.c ****   htim4.Init.Period = 1000-1;
 581              		.loc 1 101 26 is_stmt 0 view .LVU160
 582 002a 8360     		str	r3, [r0, #8]
 102:Core/Src/tim.c ****   htim4.Init.ClockDivision = TIM_CLOCKDIVISION_DIV1;
 583              		.loc 1 102 3 is_stmt 1 view .LVU161
 102:Core/Src/tim.c ****   htim4.Init.ClockDivision = TIM_CLOCKDIVISION_DIV1;
 584              		.loc 1 102 21 is_stmt 0 view .LVU162
 585 002c 40F2E732 		movw	r2, #999
 586 0030 C260     		str	r2, [r0, #12]
 103:Core/Src/tim.c ****   htim4.Init.AutoReloadPreload = TIM_AUTORELOAD_PRELOAD_ENABLE;
 587              		.loc 1 103 3 is_stmt 1 view .LVU163
 103:Core/Src/tim.c ****   htim4.Init.AutoReloadPreload = TIM_AUTORELOAD_PRELOAD_ENABLE;
 588              		.loc 1 103 28 is_stmt 0 view .LVU164
 589 0032 0361     		str	r3, [r0, #16]
 104:Core/Src/tim.c ****   if (HAL_TIM_Base_Init(&htim4) != HAL_OK)
 590              		.loc 1 104 3 is_stmt 1 view .LVU165
 104:Core/Src/tim.c ****   if (HAL_TIM_Base_Init(&htim4) != HAL_OK)
 591              		.loc 1 104 32 is_stmt 0 view .LVU166
 592 0034 8023     		movs	r3, #128
 593 0036 8361     		str	r3, [r0, #24]
 105:Core/Src/tim.c ****   {
 594              		.loc 1 105 3 is_stmt 1 view .LVU167
ARM GAS  /tmp/ccD3RMtA.s 			page 17


 105:Core/Src/tim.c ****   {
 595              		.loc 1 105 7 is_stmt 0 view .LVU168
 596 0038 FFF7FEFF 		bl	HAL_TIM_Base_Init
 597              	.LVL25:
 105:Core/Src/tim.c ****   {
 598              		.loc 1 105 6 discriminator 1 view .LVU169
 599 003c 58BB     		cbnz	r0, .L45
 600              	.L38:
 109:Core/Src/tim.c ****   if (HAL_TIM_ConfigClockSource(&htim4, &sClockSourceConfig) != HAL_OK)
 601              		.loc 1 109 3 is_stmt 1 view .LVU170
 109:Core/Src/tim.c ****   if (HAL_TIM_ConfigClockSource(&htim4, &sClockSourceConfig) != HAL_OK)
 602              		.loc 1 109 34 is_stmt 0 view .LVU171
 603 003e 4FF48053 		mov	r3, #4096
 604 0042 0A93     		str	r3, [sp, #40]
 110:Core/Src/tim.c ****   {
 605              		.loc 1 110 3 is_stmt 1 view .LVU172
 110:Core/Src/tim.c ****   {
 606              		.loc 1 110 7 is_stmt 0 view .LVU173
 607 0044 0AA9     		add	r1, sp, #40
 608 0046 1D48     		ldr	r0, .L51
 609 0048 FFF7FEFF 		bl	HAL_TIM_ConfigClockSource
 610              	.LVL26:
 110:Core/Src/tim.c ****   {
 611              		.loc 1 110 6 discriminator 1 view .LVU174
 612 004c 30BB     		cbnz	r0, .L46
 613              	.L39:
 114:Core/Src/tim.c ****   {
 614              		.loc 1 114 3 is_stmt 1 view .LVU175
 114:Core/Src/tim.c ****   {
 615              		.loc 1 114 7 is_stmt 0 view .LVU176
 616 004e 1B48     		ldr	r0, .L51
 617 0050 FFF7FEFF 		bl	HAL_TIM_PWM_Init
 618              	.LVL27:
 114:Core/Src/tim.c ****   {
 619              		.loc 1 114 6 discriminator 1 view .LVU177
 620 0054 28BB     		cbnz	r0, .L47
 621              	.L40:
 118:Core/Src/tim.c ****   sMasterConfig.MasterSlaveMode = TIM_MASTERSLAVEMODE_DISABLE;
 622              		.loc 1 118 3 is_stmt 1 view .LVU178
 118:Core/Src/tim.c ****   sMasterConfig.MasterSlaveMode = TIM_MASTERSLAVEMODE_DISABLE;
 623              		.loc 1 118 37 is_stmt 0 view .LVU179
 624 0056 0023     		movs	r3, #0
 625 0058 0893     		str	r3, [sp, #32]
 119:Core/Src/tim.c ****   if (HAL_TIMEx_MasterConfigSynchronization(&htim4, &sMasterConfig) != HAL_OK)
 626              		.loc 1 119 3 is_stmt 1 view .LVU180
 119:Core/Src/tim.c ****   if (HAL_TIMEx_MasterConfigSynchronization(&htim4, &sMasterConfig) != HAL_OK)
 627              		.loc 1 119 33 is_stmt 0 view .LVU181
 628 005a 0993     		str	r3, [sp, #36]
 120:Core/Src/tim.c ****   {
 629              		.loc 1 120 3 is_stmt 1 view .LVU182
 120:Core/Src/tim.c ****   {
 630              		.loc 1 120 7 is_stmt 0 view .LVU183
 631 005c 08A9     		add	r1, sp, #32
 632 005e 1748     		ldr	r0, .L51
 633 0060 FFF7FEFF 		bl	HAL_TIMEx_MasterConfigSynchronization
 634              	.LVL28:
 120:Core/Src/tim.c ****   {
ARM GAS  /tmp/ccD3RMtA.s 			page 18


 635              		.loc 1 120 6 discriminator 1 view .LVU184
 636 0064 00BB     		cbnz	r0, .L48
 637              	.L41:
 124:Core/Src/tim.c ****   sConfigOC.Pulse = 0;
 638              		.loc 1 124 3 is_stmt 1 view .LVU185
 124:Core/Src/tim.c ****   sConfigOC.Pulse = 0;
 639              		.loc 1 124 20 is_stmt 0 view .LVU186
 640 0066 6023     		movs	r3, #96
 641 0068 0193     		str	r3, [sp, #4]
 125:Core/Src/tim.c ****   sConfigOC.OCPolarity = TIM_OCPOLARITY_HIGH;
 642              		.loc 1 125 3 is_stmt 1 view .LVU187
 125:Core/Src/tim.c ****   sConfigOC.OCPolarity = TIM_OCPOLARITY_HIGH;
 643              		.loc 1 125 19 is_stmt 0 view .LVU188
 644 006a 0022     		movs	r2, #0
 645 006c 0292     		str	r2, [sp, #8]
 126:Core/Src/tim.c ****   sConfigOC.OCFastMode = TIM_OCFAST_DISABLE;
 646              		.loc 1 126 3 is_stmt 1 view .LVU189
 126:Core/Src/tim.c ****   sConfigOC.OCFastMode = TIM_OCFAST_DISABLE;
 647              		.loc 1 126 24 is_stmt 0 view .LVU190
 648 006e 0392     		str	r2, [sp, #12]
 127:Core/Src/tim.c ****   if (HAL_TIM_PWM_ConfigChannel(&htim4, &sConfigOC, TIM_CHANNEL_1) != HAL_OK)
 649              		.loc 1 127 3 is_stmt 1 view .LVU191
 127:Core/Src/tim.c ****   if (HAL_TIM_PWM_ConfigChannel(&htim4, &sConfigOC, TIM_CHANNEL_1) != HAL_OK)
 650              		.loc 1 127 24 is_stmt 0 view .LVU192
 651 0070 0592     		str	r2, [sp, #20]
 128:Core/Src/tim.c ****   {
 652              		.loc 1 128 3 is_stmt 1 view .LVU193
 128:Core/Src/tim.c ****   {
 653              		.loc 1 128 7 is_stmt 0 view .LVU194
 654 0072 01A9     		add	r1, sp, #4
 655 0074 1148     		ldr	r0, .L51
 656 0076 FFF7FEFF 		bl	HAL_TIM_PWM_ConfigChannel
 657              	.LVL29:
 128:Core/Src/tim.c ****   {
 658              		.loc 1 128 6 discriminator 1 view .LVU195
 659 007a C0B9     		cbnz	r0, .L49
 660              	.L42:
 132:Core/Src/tim.c ****   {
 661              		.loc 1 132 3 is_stmt 1 view .LVU196
 132:Core/Src/tim.c ****   {
 662              		.loc 1 132 7 is_stmt 0 view .LVU197
 663 007c 0422     		movs	r2, #4
 664 007e 0DEB0201 		add	r1, sp, r2
 665 0082 0E48     		ldr	r0, .L51
 666 0084 FFF7FEFF 		bl	HAL_TIM_PWM_ConfigChannel
 667              	.LVL30:
 132:Core/Src/tim.c ****   {
 668              		.loc 1 132 6 discriminator 1 view .LVU198
 669 0088 A0B9     		cbnz	r0, .L50
 670              	.L43:
 139:Core/Src/tim.c **** 
 671              		.loc 1 139 3 is_stmt 1 view .LVU199
 672 008a 0C48     		ldr	r0, .L51
 673 008c FFF7FEFF 		bl	HAL_TIM_MspPostInit
 674              	.LVL31:
 141:Core/Src/tim.c **** /* TIM11 init function */
 675              		.loc 1 141 1 is_stmt 0 view .LVU200
ARM GAS  /tmp/ccD3RMtA.s 			page 19


 676 0090 0FB0     		add	sp, sp, #60
 677              	.LCFI15:
 678              		.cfi_remember_state
 679              		.cfi_def_cfa_offset 4
 680              		@ sp needed
 681 0092 5DF804FB 		ldr	pc, [sp], #4
 682              	.L45:
 683              	.LCFI16:
 684              		.cfi_restore_state
 107:Core/Src/tim.c ****   }
 685              		.loc 1 107 5 is_stmt 1 view .LVU201
 686 0096 FFF7FEFF 		bl	Error_Handler
 687              	.LVL32:
 688 009a D0E7     		b	.L38
 689              	.L46:
 112:Core/Src/tim.c ****   }
 690              		.loc 1 112 5 view .LVU202
 691 009c FFF7FEFF 		bl	Error_Handler
 692              	.LVL33:
 693 00a0 D5E7     		b	.L39
 694              	.L47:
 116:Core/Src/tim.c ****   }
 695              		.loc 1 116 5 view .LVU203
 696 00a2 FFF7FEFF 		bl	Error_Handler
 697              	.LVL34:
 698 00a6 D6E7     		b	.L40
 699              	.L48:
 122:Core/Src/tim.c ****   }
 700              		.loc 1 122 5 view .LVU204
 701 00a8 FFF7FEFF 		bl	Error_Handler
 702              	.LVL35:
 703 00ac DBE7     		b	.L41
 704              	.L49:
 130:Core/Src/tim.c ****   }
 705              		.loc 1 130 5 view .LVU205
 706 00ae FFF7FEFF 		bl	Error_Handler
 707              	.LVL36:
 708 00b2 E3E7     		b	.L42
 709              	.L50:
 134:Core/Src/tim.c ****   }
 710              		.loc 1 134 5 view .LVU206
 711 00b4 FFF7FEFF 		bl	Error_Handler
 712              	.LVL37:
 713 00b8 E7E7     		b	.L43
 714              	.L52:
 715 00ba 00BF     		.align	2
 716              	.L51:
 717 00bc 00000000 		.word	htim4
 718 00c0 00080040 		.word	1073743872
 719              		.cfi_endproc
 720              	.LFE135:
 722              		.section	.text.HAL_TIM_Base_MspDeInit,"ax",%progbits
 723              		.align	1
 724              		.global	HAL_TIM_Base_MspDeInit
 725              		.syntax unified
 726              		.thumb
 727              		.thumb_func
ARM GAS  /tmp/ccD3RMtA.s 			page 20


 729              	HAL_TIM_Base_MspDeInit:
 730              	.LVL38:
 731              	.LFB139:
 250:Core/Src/tim.c **** 
 251:Core/Src/tim.c **** void HAL_TIM_Base_MspDeInit(TIM_HandleTypeDef* tim_baseHandle)
 252:Core/Src/tim.c **** {
 732              		.loc 1 252 1 view -0
 733              		.cfi_startproc
 734              		@ args = 0, pretend = 0, frame = 0
 735              		@ frame_needed = 0, uses_anonymous_args = 0
 736              		.loc 1 252 1 is_stmt 0 view .LVU208
 737 0000 08B5     		push	{r3, lr}
 738              	.LCFI17:
 739              		.cfi_def_cfa_offset 8
 740              		.cfi_offset 3, -8
 741              		.cfi_offset 14, -4
 253:Core/Src/tim.c **** 
 254:Core/Src/tim.c ****   if(tim_baseHandle->Instance==TIM3)
 742              		.loc 1 254 3 is_stmt 1 view .LVU209
 743              		.loc 1 254 20 is_stmt 0 view .LVU210
 744 0002 0368     		ldr	r3, [r0]
 745              		.loc 1 254 5 view .LVU211
 746 0004 124A     		ldr	r2, .L61
 747 0006 9342     		cmp	r3, r2
 748 0008 06D0     		beq	.L58
 255:Core/Src/tim.c ****   {
 256:Core/Src/tim.c ****   /* USER CODE BEGIN TIM3_MspDeInit 0 */
 257:Core/Src/tim.c **** 
 258:Core/Src/tim.c ****   /* USER CODE END TIM3_MspDeInit 0 */
 259:Core/Src/tim.c ****     /* Peripheral clock disable */
 260:Core/Src/tim.c ****     __HAL_RCC_TIM3_CLK_DISABLE();
 261:Core/Src/tim.c **** 
 262:Core/Src/tim.c ****     /**TIM3 GPIO Configuration
 263:Core/Src/tim.c ****     PA6     ------> TIM3_CH1
 264:Core/Src/tim.c ****     */
 265:Core/Src/tim.c ****     HAL_GPIO_DeInit(ECHO_TIM3_CH1_GPIO_Port, ECHO_TIM3_CH1_Pin);
 266:Core/Src/tim.c **** 
 267:Core/Src/tim.c ****     /* TIM3 interrupt Deinit */
 268:Core/Src/tim.c ****     HAL_NVIC_DisableIRQ(TIM3_IRQn);
 269:Core/Src/tim.c ****   /* USER CODE BEGIN TIM3_MspDeInit 1 */
 270:Core/Src/tim.c **** 
 271:Core/Src/tim.c ****   /* USER CODE END TIM3_MspDeInit 1 */
 272:Core/Src/tim.c ****   }
 273:Core/Src/tim.c ****   else if(tim_baseHandle->Instance==TIM4)
 749              		.loc 1 273 8 is_stmt 1 view .LVU212
 750              		.loc 1 273 10 is_stmt 0 view .LVU213
 751 000a 124A     		ldr	r2, .L61+4
 752 000c 9342     		cmp	r3, r2
 753 000e 11D0     		beq	.L59
 274:Core/Src/tim.c ****   {
 275:Core/Src/tim.c ****   /* USER CODE BEGIN TIM4_MspDeInit 0 */
 276:Core/Src/tim.c **** 
 277:Core/Src/tim.c ****   /* USER CODE END TIM4_MspDeInit 0 */
 278:Core/Src/tim.c ****     /* Peripheral clock disable */
 279:Core/Src/tim.c ****     __HAL_RCC_TIM4_CLK_DISABLE();
 280:Core/Src/tim.c ****   /* USER CODE BEGIN TIM4_MspDeInit 1 */
 281:Core/Src/tim.c **** 
ARM GAS  /tmp/ccD3RMtA.s 			page 21


 282:Core/Src/tim.c ****   /* USER CODE END TIM4_MspDeInit 1 */
 283:Core/Src/tim.c ****   }
 284:Core/Src/tim.c ****   else if(tim_baseHandle->Instance==TIM11)
 754              		.loc 1 284 8 is_stmt 1 view .LVU214
 755              		.loc 1 284 10 is_stmt 0 view .LVU215
 756 0010 114A     		ldr	r2, .L61+8
 757 0012 9342     		cmp	r3, r2
 758 0014 15D0     		beq	.L60
 759              	.LVL39:
 760              	.L53:
 285:Core/Src/tim.c ****   {
 286:Core/Src/tim.c ****   /* USER CODE BEGIN TIM11_MspDeInit 0 */
 287:Core/Src/tim.c **** 
 288:Core/Src/tim.c ****   /* USER CODE END TIM11_MspDeInit 0 */
 289:Core/Src/tim.c ****     /* Peripheral clock disable */
 290:Core/Src/tim.c ****     __HAL_RCC_TIM11_CLK_DISABLE();
 291:Core/Src/tim.c ****   /* USER CODE BEGIN TIM11_MspDeInit 1 */
 292:Core/Src/tim.c **** 
 293:Core/Src/tim.c ****   /* USER CODE END TIM11_MspDeInit 1 */
 294:Core/Src/tim.c ****   }
 295:Core/Src/tim.c **** }
 761              		.loc 1 295 1 view .LVU216
 762 0016 08BD     		pop	{r3, pc}
 763              	.LVL40:
 764              	.L58:
 260:Core/Src/tim.c **** 
 765              		.loc 1 260 5 is_stmt 1 view .LVU217
 766 0018 02F50D32 		add	r2, r2, #144384
 767 001c 136C     		ldr	r3, [r2, #64]
 768 001e 23F00203 		bic	r3, r3, #2
 769 0022 1364     		str	r3, [r2, #64]
 265:Core/Src/tim.c **** 
 770              		.loc 1 265 5 view .LVU218
 771 0024 4021     		movs	r1, #64
 772 0026 0D48     		ldr	r0, .L61+12
 773              	.LVL41:
 265:Core/Src/tim.c **** 
 774              		.loc 1 265 5 is_stmt 0 view .LVU219
 775 0028 FFF7FEFF 		bl	HAL_GPIO_DeInit
 776              	.LVL42:
 268:Core/Src/tim.c ****   /* USER CODE BEGIN TIM3_MspDeInit 1 */
 777              		.loc 1 268 5 is_stmt 1 view .LVU220
 778 002c 1D20     		movs	r0, #29
 779 002e FFF7FEFF 		bl	HAL_NVIC_DisableIRQ
 780              	.LVL43:
 781 0032 F0E7     		b	.L53
 782              	.LVL44:
 783              	.L59:
 279:Core/Src/tim.c ****   /* USER CODE BEGIN TIM4_MspDeInit 1 */
 784              		.loc 1 279 5 view .LVU221
 785 0034 02F50C32 		add	r2, r2, #143360
 786 0038 136C     		ldr	r3, [r2, #64]
 787 003a 23F00403 		bic	r3, r3, #4
 788 003e 1364     		str	r3, [r2, #64]
 789 0040 E9E7     		b	.L53
 790              	.L60:
 290:Core/Src/tim.c ****   /* USER CODE BEGIN TIM11_MspDeInit 1 */
ARM GAS  /tmp/ccD3RMtA.s 			page 22


 791              		.loc 1 290 5 view .LVU222
 792 0042 02F57042 		add	r2, r2, #61440
 793 0046 536C     		ldr	r3, [r2, #68]
 794 0048 23F48023 		bic	r3, r3, #262144
 795 004c 5364     		str	r3, [r2, #68]
 796              		.loc 1 295 1 is_stmt 0 view .LVU223
 797 004e E2E7     		b	.L53
 798              	.L62:
 799              		.align	2
 800              	.L61:
 801 0050 00040040 		.word	1073742848
 802 0054 00080040 		.word	1073743872
 803 0058 00480140 		.word	1073825792
 804 005c 00000240 		.word	1073872896
 805              		.cfi_endproc
 806              	.LFE139:
 808              		.global	htim11
 809              		.section	.bss.htim11,"aw",%nobits
 810              		.align	2
 813              	htim11:
 814 0000 00000000 		.space	72
 814      00000000 
 814      00000000 
 814      00000000 
 814      00000000 
 815              		.global	htim4
 816              		.section	.bss.htim4,"aw",%nobits
 817              		.align	2
 820              	htim4:
 821 0000 00000000 		.space	72
 821      00000000 
 821      00000000 
 821      00000000 
 821      00000000 
 822              		.global	htim3
 823              		.section	.bss.htim3,"aw",%nobits
 824              		.align	2
 827              	htim3:
 828 0000 00000000 		.space	72
 828      00000000 
 828      00000000 
 828      00000000 
 828      00000000 
 829              		.text
 830              	.Letext0:
 831              		.file 2 "Drivers/CMSIS/Device/ST/STM32F4xx/Include/stm32f411xe.h"
 832              		.file 3 "/usr/lib/gcc/arm-none-eabi/13.2.1/include/stdint.h"
 833              		.file 4 "Drivers/STM32F4xx_HAL_Driver/Inc/stm32f4xx_hal_def.h"
 834              		.file 5 "Drivers/STM32F4xx_HAL_Driver/Inc/stm32f4xx_hal_gpio.h"
 835              		.file 6 "Drivers/STM32F4xx_HAL_Driver/Inc/stm32f4xx_hal_dma.h"
 836              		.file 7 "Drivers/STM32F4xx_HAL_Driver/Inc/stm32f4xx_hal_tim.h"
 837              		.file 8 "Core/Inc/tim.h"
 838              		.file 9 "Drivers/STM32F4xx_HAL_Driver/Inc/stm32f4xx_hal_cortex.h"
 839              		.file 10 "Drivers/STM32F4xx_HAL_Driver/Inc/stm32f4xx_hal_tim_ex.h"
 840              		.file 11 "Core/Inc/main.h"
ARM GAS  /tmp/ccD3RMtA.s 			page 23

