ARM GAS  /tmp/ccYjTY1a.s 			page 1


   1              		.cpu cortex-m4
   2              		.arch armv7e-m
   3              		.fpu fpv4-sp-d16
   4              		.eabi_attribute 27, 1
   5              		.eabi_attribute 28, 1
   6              		.eabi_attribute 20, 1
   7              		.eabi_attribute 21, 1
   8              		.eabi_attribute 23, 3
   9              		.eabi_attribute 24, 1
  10              		.eabi_attribute 25, 1
  11              		.eabi_attribute 26, 1
  12              		.eabi_attribute 30, 1
  13              		.eabi_attribute 34, 1
  14              		.eabi_attribute 18, 4
  15              		.file	"ultra.c"
  16              		.text
  17              	.Ltext0:
  18              		.cfi_sections	.debug_frame
  19              		.file 1 "Core/Src/ultra.c"
  20              		.section	.text.HAL_TIM_IC_CaptureCallback,"ax",%progbits
  21              		.align	1
  22              		.global	HAL_TIM_IC_CaptureCallback
  23              		.syntax unified
  24              		.thumb
  25              		.thumb_func
  27              	HAL_TIM_IC_CaptureCallback:
  28              	.LVL0:
  29              	.LFB138:
   1:Core/Src/ultra.c **** /* USER CODE BEGIN Header */
   2:Core/Src/ultra.c **** /**
   3:Core/Src/ultra.c ****   ******************************************************************************
   4:Core/Src/ultra.c ****   * @file    ultra.c
   5:Core/Src/ultra.c ****   * @brief   HC-SR04 Ваёв░Е 1В▒ёвёљ ВИАВаЋ Жхгьўё Рђћ TIM3 CH1 ВъЁваЦВ║АВ▓ў ISR + RTOS flag вїђЖИ░
   6:Core/Src/ultra.c ****   *          (ВИАвЕ┤ Вбї/Вџ░ В┤ѕВЮїьїї(Жхг CH2/CH3)віћ VL53L0X ToFвАю ВЮ┤Ж┤ђ Рђћ vl53l0x.c.
   7:Core/Src/ultra.c ****   *           В▒ёвёљ ьЁїВЮ┤вИћ/ВѕюВ░ев░юВѓг вАюВДЂВЮђ Ваёв░Е вІеВЮ╝ьЎћвАю ВаюЖ▒░)
   8:Core/Src/ultra.c ****   ******************************************************************************
   9:Core/Src/ultra.c ****   */
  10:Core/Src/ultra.c **** /* USER CODE END Header */
  11:Core/Src/ultra.c **** 
  12:Core/Src/ultra.c **** #include "ultra.h"
  13:Core/Src/ultra.c **** #include "main.h"   /* TRIG/ECHO ьЋђ вДцьЂгвАю (CubeMX ВЃЮВё▒) */
  14:Core/Src/ultra.c **** #include "tim.h"    /* htim3 */
  15:Core/Src/ultra.c **** #include "delay.h"  /* delay_us Рђћ TRIG 10┬хs ьјёВіц (TIM11, mainВЌљВёю startвље) */
  16:Core/Src/ultra.c **** #include "drive.h"  /* ULTRA_MAX_CM */
  17:Core/Src/ultra.c **** #include "FreeRTOS.h"
  18:Core/Src/ultra.c **** #include "task.h"   /* taskENTER/EXIT_CRITICAL */
  19:Core/Src/ultra.c **** 
  20:Core/Src/ultra.c **** /* ISR(HAL_TIM_IC_CaptureCallback)Ж│╝ SensorTaskЖ░ђ Ж│хВюа Рєњ volatile ьЋёВѕў (В╗┤ьїїВЮ╝вЪг В║љВІ▒
  21:Core/Src/ultra.c **** static volatile uint16_t IC_Value1   = 0;
  22:Core/Src/ultra.c **** static volatile uint16_t IC_Value2   = 0;
  23:Core/Src/ultra.c **** static volatile uint16_t echoTime    = 0;
  24:Core/Src/ultra.c **** static volatile uint8_t  captureFlag = 0;
  25:Core/Src/ultra.c **** static volatile uint16_t distance    = 0;
  26:Core/Src/ultra.c **** static volatile uint8_t  meas_valid  = 0;   /* ISRВЮ┤ ВЎёВаёьЋю ВЌљВйћ(ВЃЂВі╣+ьЋўЖ░Ћ) ВИАВаЋ ВЎёвБї
  27:Core/Src/ultra.c **** 
  28:Core/Src/ultra.c **** /* Вюаьџе ВИАВаЋ ВЎёвБї ьєхВДђ вїђВЃЂ(SensorTask). NULLВЮ┤вЕ┤ ьєхВДђ ВЃЮвъх Рђћ ьЃюВіцьЂг ЖИ░вЈЎ Ва
  29:Core/Src/ultra.c **** static osThreadId_t s_waiter = NULL;
ARM GAS  /tmp/ccYjTY1a.s 			page 2


  30:Core/Src/ultra.c **** 
  31:Core/Src/ultra.c **** #define ULTRA_FLAG_FRONT (1UL << 0)
  32:Core/Src/ultra.c **** 
  33:Core/Src/ultra.c **** void HAL_TIM_IC_CaptureCallback(TIM_HandleTypeDef *htim)
  34:Core/Src/ultra.c **** {
  30              		.loc 1 34 1 view -0
  31              		.cfi_startproc
  32              		@ args = 0, pretend = 0, frame = 0
  33              		@ frame_needed = 0, uses_anonymous_args = 0
  35:Core/Src/ultra.c ****     if (htim->Instance != TIM3) return;   /* IC Вйюв░▒ВЮђ Ваё ьЃђВЮ┤веИ Ж│хВџЕ Рђћ ВХћьЏё ьЃђВЮ┤веИ
  34              		.loc 1 35 5 view .LVU1
  35              		.loc 1 35 13 is_stmt 0 view .LVU2
  36 0000 0268     		ldr	r2, [r0]
  37              		.loc 1 35 8 view .LVU3
  38 0002 2E4B     		ldr	r3, .L12
  39 0004 9A42     		cmp	r2, r3
  40 0006 00D0     		beq	.L9
  41              	.L6:
  42 0008 7047     		bx	lr
  43              	.L9:
  36:Core/Src/ultra.c ****     if (htim->Channel != HAL_TIM_ACTIVE_CHANNEL_1) return;
  44              		.loc 1 36 5 is_stmt 1 view .LVU4
  45              		.loc 1 36 13 is_stmt 0 view .LVU5
  46 000a 037F     		ldrb	r3, [r0, #28]	@ zero_extendqisi2
  47              		.loc 1 36 8 view .LVU6
  48 000c 012B     		cmp	r3, #1
  49 000e FBD1     		bne	.L6
  34:Core/Src/ultra.c ****     if (htim->Instance != TIM3) return;   /* IC Вйюв░▒ВЮђ Ваё ьЃђВЮ┤веИ Ж│хВџЕ Рђћ ВХћьЏё ьЃђВЮ┤веИ
  50              		.loc 1 34 1 view .LVU7
  51 0010 10B5     		push	{r4, lr}
  52              	.LCFI0:
  53              		.cfi_def_cfa_offset 8
  54              		.cfi_offset 4, -8
  55              		.cfi_offset 14, -4
  37:Core/Src/ultra.c **** 
  38:Core/Src/ultra.c ****     if (captureFlag == 0)
  56              		.loc 1 38 5 is_stmt 1 view .LVU8
  57              		.loc 1 38 21 is_stmt 0 view .LVU9
  58 0012 2B4B     		ldr	r3, .L12+4
  59 0014 1B78     		ldrb	r3, [r3]	@ zero_extendqisi2
  60              		.loc 1 38 8 view .LVU10
  61 0016 2BB1     		cbz	r3, .L10
  39:Core/Src/ultra.c ****     {
  40:Core/Src/ultra.c ****         IC_Value1 = HAL_TIM_ReadCapturedValue(&htim3, TIM_CHANNEL_1);
  41:Core/Src/ultra.c ****         captureFlag = 1;
  42:Core/Src/ultra.c ****         __HAL_TIM_SET_CAPTUREPOLARITY(&htim3, TIM_CHANNEL_1, TIM_INPUTCHANNELPOLARITY_FALLING);
  43:Core/Src/ultra.c ****     }
  44:Core/Src/ultra.c ****     else if (captureFlag == 1)
  62              		.loc 1 44 10 is_stmt 1 view .LVU11
  63              		.loc 1 44 26 is_stmt 0 view .LVU12
  64 0018 294B     		ldr	r3, .L12+4
  65 001a 1B78     		ldrb	r3, [r3]	@ zero_extendqisi2
  66 001c DBB2     		uxtb	r3, r3
  67              		.loc 1 44 13 view .LVU13
  68 001e 012B     		cmp	r3, #1
  69 0020 15D0     		beq	.L11
  70              	.LVL1:
ARM GAS  /tmp/ccYjTY1a.s 			page 3


  71              	.L1:
  45:Core/Src/ultra.c ****     {
  46:Core/Src/ultra.c ****         IC_Value2 = HAL_TIM_ReadCapturedValue(&htim3, TIM_CHANNEL_1);
  47:Core/Src/ultra.c **** 
  48:Core/Src/ultra.c ****         /* 16-bit вг┤вХђьўИ в║ёВЁѕ: ьЃђВЮ┤веИ wrap(65535Рєњ0)ВЮё mod-65536Вю╝вАю ВъљвЈЎ в│┤ВаЋ. */
  49:Core/Src/ultra.c ****         echoTime = (uint16_t)(IC_Value2 - IC_Value1);
  50:Core/Src/ultra.c **** 
  51:Core/Src/ultra.c ****         /* d==0(<58┬хs)ВЮђ вг╝вдг вХѕЖ░ђ(HC-SR04 ВхюВєї 2cm=116┬хs) = ЖИђвдгВ╣ў ВЌљВДђ Рєњ invalid 
  52:Core/Src/ultra.c ****          * 'вЕђвІц(MAX)'вАю вЉљвЕ┤ histвЦ╝ fail-open ВўцВЌ╝ Рђћ meas_valid в»ИВёцВаЋВю╝вАю front_mi
  53:Core/Src/ultra.c ****         uint16_t d0 = echoTime / 58;
  54:Core/Src/ultra.c ****         if (d0 != 0U)
  55:Core/Src/ultra.c ****         {
  56:Core/Src/ultra.c ****             distance = (d0 > ULTRA_MAX_CM) ? ULTRA_MAX_CM : d0;
  57:Core/Src/ultra.c ****             meas_valid = 1;
  58:Core/Src/ultra.c ****             if (s_waiter != NULL) osThreadFlagsSet(s_waiter, ULTRA_FLAG_FRONT);   /* вїђЖИ░ ьЃюВіць
  59:Core/Src/ultra.c ****         }
  60:Core/Src/ultra.c ****         captureFlag = 0;
  61:Core/Src/ultra.c ****         __HAL_TIM_SET_CAPTUREPOLARITY(&htim3, TIM_CHANNEL_1, TIM_INPUTCHANNELPOLARITY_RISING);
  62:Core/Src/ultra.c ****         __HAL_TIM_DISABLE_IT(&htim3, TIM_IT_CC1);
  63:Core/Src/ultra.c ****     }
  64:Core/Src/ultra.c **** }
  72              		.loc 1 64 1 view .LVU14
  73 0022 10BD     		pop	{r4, pc}
  74              	.LVL2:
  75              	.L10:
  40:Core/Src/ultra.c ****         captureFlag = 1;
  76              		.loc 1 40 9 is_stmt 1 view .LVU15
  40:Core/Src/ultra.c ****         captureFlag = 1;
  77              		.loc 1 40 21 is_stmt 0 view .LVU16
  78 0024 274C     		ldr	r4, .L12+8
  79 0026 0021     		movs	r1, #0
  80 0028 2046     		mov	r0, r4
  81              	.LVL3:
  40:Core/Src/ultra.c ****         captureFlag = 1;
  82              		.loc 1 40 21 view .LVU17
  83 002a FFF7FEFF 		bl	HAL_TIM_ReadCapturedValue
  84              	.LVL4:
  40:Core/Src/ultra.c ****         captureFlag = 1;
  85              		.loc 1 40 19 discriminator 1 view .LVU18
  86 002e 80B2     		uxth	r0, r0
  87 0030 254B     		ldr	r3, .L12+12
  88 0032 1880     		strh	r0, [r3]	@ movhi
  41:Core/Src/ultra.c ****         __HAL_TIM_SET_CAPTUREPOLARITY(&htim3, TIM_CHANNEL_1, TIM_INPUTCHANNELPOLARITY_FALLING);
  89              		.loc 1 41 9 is_stmt 1 view .LVU19
  41:Core/Src/ultra.c ****         __HAL_TIM_SET_CAPTUREPOLARITY(&htim3, TIM_CHANNEL_1, TIM_INPUTCHANNELPOLARITY_FALLING);
  90              		.loc 1 41 21 is_stmt 0 view .LVU20
  91 0034 224B     		ldr	r3, .L12+4
  92 0036 0122     		movs	r2, #1
  93 0038 1A70     		strb	r2, [r3]
  42:Core/Src/ultra.c ****     }
  94              		.loc 1 42 9 is_stmt 1 view .LVU21
  42:Core/Src/ultra.c ****     }
  95              		.loc 1 42 9 view .LVU22
  96 003a 2368     		ldr	r3, [r4]
  97 003c 1A6A     		ldr	r2, [r3, #32]
  98 003e 22F00A02 		bic	r2, r2, #10
  99 0042 1A62     		str	r2, [r3, #32]
ARM GAS  /tmp/ccYjTY1a.s 			page 4


  42:Core/Src/ultra.c ****     }
 100              		.loc 1 42 9 view .LVU23
 101 0044 1A6A     		ldr	r2, [r3, #32]
 102 0046 42F00202 		orr	r2, r2, #2
 103 004a 1A62     		str	r2, [r3, #32]
  42:Core/Src/ultra.c ****     }
 104              		.loc 1 42 9 view .LVU24
 105 004c E9E7     		b	.L1
 106              	.LVL5:
 107              	.L11:
 108              	.LBB2:
  46:Core/Src/ultra.c **** 
 109              		.loc 1 46 9 view .LVU25
  46:Core/Src/ultra.c **** 
 110              		.loc 1 46 21 is_stmt 0 view .LVU26
 111 004e 0021     		movs	r1, #0
 112 0050 1C48     		ldr	r0, .L12+8
 113              	.LVL6:
  46:Core/Src/ultra.c **** 
 114              		.loc 1 46 21 view .LVU27
 115 0052 FFF7FEFF 		bl	HAL_TIM_ReadCapturedValue
 116              	.LVL7:
  46:Core/Src/ultra.c **** 
 117              		.loc 1 46 19 discriminator 1 view .LVU28
 118 0056 80B2     		uxth	r0, r0
 119 0058 1C4B     		ldr	r3, .L12+16
 120 005a 1880     		strh	r0, [r3]	@ movhi
  49:Core/Src/ultra.c **** 
 121              		.loc 1 49 9 is_stmt 1 view .LVU29
  49:Core/Src/ultra.c **** 
 122              		.loc 1 49 20 is_stmt 0 view .LVU30
 123 005c 1B88     		ldrh	r3, [r3]
 124 005e 9BB2     		uxth	r3, r3
 125 0060 194A     		ldr	r2, .L12+12
 126 0062 1288     		ldrh	r2, [r2]
 127 0064 92B2     		uxth	r2, r2
 128 0066 9B1A     		subs	r3, r3, r2
 129 0068 9BB2     		uxth	r3, r3
  49:Core/Src/ultra.c **** 
 130              		.loc 1 49 18 view .LVU31
 131 006a 194A     		ldr	r2, .L12+20
 132 006c 1380     		strh	r3, [r2]	@ movhi
  53:Core/Src/ultra.c ****         if (d0 != 0U)
 133              		.loc 1 53 9 is_stmt 1 view .LVU32
  53:Core/Src/ultra.c ****         if (d0 != 0U)
 134              		.loc 1 53 18 is_stmt 0 view .LVU33
 135 006e 1288     		ldrh	r2, [r2]
 136 0070 92B2     		uxth	r2, r2
 137 0072 184B     		ldr	r3, .L12+24
 138 0074 A3FB0213 		umull	r1, r3, r3, r2
 139 0078 5B09     		lsrs	r3, r3, #5
 140              	.LVL8:
  54:Core/Src/ultra.c ****         {
 141              		.loc 1 54 9 is_stmt 1 view .LVU34
  54:Core/Src/ultra.c ****         {
 142              		.loc 1 54 12 is_stmt 0 view .LVU35
 143 007a 392A     		cmp	r2, #57
ARM GAS  /tmp/ccYjTY1a.s 			page 5


 144 007c 0DD9     		bls	.L4
  56:Core/Src/ultra.c ****             meas_valid = 1;
 145              		.loc 1 56 13 is_stmt 1 view .LVU36
  56:Core/Src/ultra.c ****             meas_valid = 1;
 146              		.loc 1 56 59 is_stmt 0 view .LVU37
 147 007e 502B     		cmp	r3, #80
 148 0080 28BF     		it	cs
 149 0082 5023     		movcs	r3, #80
 150              	.LVL9:
  56:Core/Src/ultra.c ****             meas_valid = 1;
 151              		.loc 1 56 22 view .LVU38
 152 0084 144A     		ldr	r2, .L12+28
 153              	.LVL10:
  56:Core/Src/ultra.c ****             meas_valid = 1;
 154              		.loc 1 56 22 view .LVU39
 155 0086 1380     		strh	r3, [r2]	@ movhi
  57:Core/Src/ultra.c ****             if (s_waiter != NULL) osThreadFlagsSet(s_waiter, ULTRA_FLAG_FRONT);   /* вїђЖИ░ ьЃюВіць
 156              		.loc 1 57 13 is_stmt 1 view .LVU40
  57:Core/Src/ultra.c ****             if (s_waiter != NULL) osThreadFlagsSet(s_waiter, ULTRA_FLAG_FRONT);   /* вїђЖИ░ ьЃюВіць
 157              		.loc 1 57 24 is_stmt 0 view .LVU41
 158 0088 144B     		ldr	r3, .L12+32
 159 008a 0122     		movs	r2, #1
 160 008c 1A70     		strb	r2, [r3]
  58:Core/Src/ultra.c ****         }
 161              		.loc 1 58 13 is_stmt 1 view .LVU42
  58:Core/Src/ultra.c ****         }
 162              		.loc 1 58 26 is_stmt 0 view .LVU43
 163 008e 144B     		ldr	r3, .L12+36
 164 0090 1868     		ldr	r0, [r3]
  58:Core/Src/ultra.c ****         }
 165              		.loc 1 58 16 view .LVU44
 166 0092 10B1     		cbz	r0, .L4
  58:Core/Src/ultra.c ****         }
 167              		.loc 1 58 35 is_stmt 1 discriminator 1 view .LVU45
 168 0094 1146     		mov	r1, r2
 169 0096 FFF7FEFF 		bl	osThreadFlagsSet
 170              	.LVL11:
 171              	.L4:
  60:Core/Src/ultra.c ****         __HAL_TIM_SET_CAPTUREPOLARITY(&htim3, TIM_CHANNEL_1, TIM_INPUTCHANNELPOLARITY_RISING);
 172              		.loc 1 60 9 view .LVU46
  60:Core/Src/ultra.c ****         __HAL_TIM_SET_CAPTUREPOLARITY(&htim3, TIM_CHANNEL_1, TIM_INPUTCHANNELPOLARITY_RISING);
 173              		.loc 1 60 21 is_stmt 0 view .LVU47
 174 009a 094B     		ldr	r3, .L12+4
 175 009c 0022     		movs	r2, #0
 176 009e 1A70     		strb	r2, [r3]
  61:Core/Src/ultra.c ****         __HAL_TIM_DISABLE_IT(&htim3, TIM_IT_CC1);
 177              		.loc 1 61 9 is_stmt 1 view .LVU48
  61:Core/Src/ultra.c ****         __HAL_TIM_DISABLE_IT(&htim3, TIM_IT_CC1);
 178              		.loc 1 61 9 view .LVU49
 179 00a0 084B     		ldr	r3, .L12+8
 180 00a2 1B68     		ldr	r3, [r3]
 181 00a4 1A6A     		ldr	r2, [r3, #32]
 182 00a6 22F00A02 		bic	r2, r2, #10
 183 00aa 1A62     		str	r2, [r3, #32]
  61:Core/Src/ultra.c ****         __HAL_TIM_DISABLE_IT(&htim3, TIM_IT_CC1);
 184              		.loc 1 61 9 view .LVU50
 185 00ac 1A6A     		ldr	r2, [r3, #32]
ARM GAS  /tmp/ccYjTY1a.s 			page 6


 186 00ae 1A62     		str	r2, [r3, #32]
  61:Core/Src/ultra.c ****         __HAL_TIM_DISABLE_IT(&htim3, TIM_IT_CC1);
 187              		.loc 1 61 9 view .LVU51
  62:Core/Src/ultra.c ****     }
 188              		.loc 1 62 9 view .LVU52
 189 00b0 DA68     		ldr	r2, [r3, #12]
 190 00b2 22F00202 		bic	r2, r2, #2
 191 00b6 DA60     		str	r2, [r3, #12]
 192 00b8 B3E7     		b	.L1
 193              	.L13:
 194 00ba 00BF     		.align	2
 195              	.L12:
 196 00bc 00040040 		.word	1073742848
 197 00c0 00000000 		.word	captureFlag
 198 00c4 00000000 		.word	htim3
 199 00c8 00000000 		.word	IC_Value1
 200 00cc 00000000 		.word	IC_Value2
 201 00d0 00000000 		.word	echoTime
 202 00d4 09CB3D8D 		.word	-1925330167
 203 00d8 00000000 		.word	distance
 204 00dc 00000000 		.word	meas_valid
 205 00e0 00000000 		.word	s_waiter
 206              	.LBE2:
 207              		.cfi_endproc
 208              	.LFE138:
 210              		.section	.text.Ultra_Init,"ax",%progbits
 211              		.align	1
 212              		.global	Ultra_Init
 213              		.syntax unified
 214              		.thumb
 215              		.thumb_func
 217              	Ultra_Init:
 218              	.LVL12:
 219              	.LFB139:
  65:Core/Src/ultra.c **** 
  66:Core/Src/ultra.c **** void Ultra_Init(osThreadId_t waiter)
  67:Core/Src/ultra.c **** {
 220              		.loc 1 67 1 view -0
 221              		.cfi_startproc
 222              		@ args = 0, pretend = 0, frame = 0
 223              		@ frame_needed = 0, uses_anonymous_args = 0
 224              		.loc 1 67 1 is_stmt 0 view .LVU54
 225 0000 08B5     		push	{r3, lr}
 226              	.LCFI1:
 227              		.cfi_def_cfa_offset 8
 228              		.cfi_offset 3, -8
 229              		.cfi_offset 14, -4
  68:Core/Src/ultra.c ****     s_waiter = waiter;
 230              		.loc 1 68 5 is_stmt 1 view .LVU55
 231              		.loc 1 68 14 is_stmt 0 view .LVU56
 232 0002 034B     		ldr	r3, .L16
 233 0004 1860     		str	r0, [r3]
  69:Core/Src/ultra.c ****     HAL_TIM_IC_Start_IT(&htim3, TIM_CHANNEL_1);
 234              		.loc 1 69 5 is_stmt 1 view .LVU57
 235 0006 0021     		movs	r1, #0
 236 0008 0248     		ldr	r0, .L16+4
 237              	.LVL13:
ARM GAS  /tmp/ccYjTY1a.s 			page 7


 238              		.loc 1 69 5 is_stmt 0 view .LVU58
 239 000a FFF7FEFF 		bl	HAL_TIM_IC_Start_IT
 240              	.LVL14:
  70:Core/Src/ultra.c **** }
 241              		.loc 1 70 1 view .LVU59
 242 000e 08BD     		pop	{r3, pc}
 243              	.L17:
 244              		.align	2
 245              	.L16:
 246 0010 00000000 		.word	s_waiter
 247 0014 00000000 		.word	htim3
 248              		.cfi_endproc
 249              	.LFE139:
 251              		.section	.text.Ultra_Measure,"ax",%progbits
 252              		.align	1
 253              		.global	Ultra_Measure
 254              		.syntax unified
 255              		.thumb
 256              		.thumb_func
 258              	Ultra_Measure:
 259              	.LVL15:
 260              	.LFB140:
  71:Core/Src/ultra.c **** 
  72:Core/Src/ultra.c **** /* Ваёв░Е ВИАВаЋ: ВъћВЌгВЃЂьЃю ВаЋвдг Рєњ TRIG 10us ьјёВіц Рєњ ВЌљВйћ ьџїВІаЖ╣їВДђ osThreadFlagsWai
  73:Core/Src/ultra.c ****  * ВЌљВйћ ВўцвЕ┤ ISR flagвАю ВдЅВІю wake(Жи╝ВаЉ=Вѕўms), вг┤ВЌљВйћ/ЖИђвдгВ╣ўвДї wait_ms ВЃЂьЋюЖ╣їВДђ
  74:Core/Src/ultra.c **** uint8_t Ultra_Measure(uint32_t wait_ms, uint16_t *out_cm)
  75:Core/Src/ultra.c **** {
 261              		.loc 1 75 1 is_stmt 1 view -0
 262              		.cfi_startproc
 263              		@ args = 0, pretend = 0, frame = 0
 264              		@ frame_needed = 0, uses_anonymous_args = 0
 265              		.loc 1 75 1 is_stmt 0 view .LVU61
 266 0000 2DE9F041 		push	{r4, r5, r6, r7, r8, lr}
 267              	.LCFI2:
 268              		.cfi_def_cfa_offset 24
 269              		.cfi_offset 4, -24
 270              		.cfi_offset 5, -20
 271              		.cfi_offset 6, -16
 272              		.cfi_offset 7, -12
 273              		.cfi_offset 8, -8
 274              		.cfi_offset 14, -4
 275 0004 0546     		mov	r5, r0
 276 0006 0C46     		mov	r4, r1
  76:Core/Src/ultra.c ****     distance   = ULTRA_MAX_CM;   /* ЖИ░в│И вЕђвІц (ВЌљВйћ ВўцвЕ┤ ISRВЮ┤ ВІцВаюЖ░њВю╝вАю вЇ«ВЮї) */
 277              		.loc 1 76 5 is_stmt 1 view .LVU62
 278              		.loc 1 76 16 is_stmt 0 view .LVU63
 279 0008 254B     		ldr	r3, .L23
 280 000a 5022     		movs	r2, #80
 281 000c 1A80     		strh	r2, [r3]	@ movhi
  77:Core/Src/ultra.c ****     meas_valid = 0;
 282              		.loc 1 77 5 is_stmt 1 view .LVU64
 283              		.loc 1 77 16 is_stmt 0 view .LVU65
 284 000e 254B     		ldr	r3, .L23+4
 285 0010 0022     		movs	r2, #0
 286 0012 1A70     		strb	r2, [r3]
  78:Core/Src/ultra.c **** 
  79:Core/Src/ultra.c ****     /* HC-SR04 вг┤ВЌљВйћ ВъћвЦў Ж░ђвЊю: ВДЂВаё ВѓгВЮ┤ьЂ┤ВЮ┤ вг┤ВЌљВйћВўђвІцвЕ┤ ECHOЖ░ђ ВЋёВДЂ high(
ARM GAS  /tmp/ccYjTY1a.s 			page 8


  80:Core/Src/ultra.c ****      * ЖиИ вЈЎВЋѕВЮў TRIGвіћ вг┤ВІювље Рєњ wait_ms ьЌЏвїђЖИ░ вїђВІа ВЮ┤в▓ѕ ВѓгВЮ┤ьЂ┤ ВдЅВІю skip(вг
  81:Core/Src/ultra.c ****     if (HAL_GPIO_ReadPin(ECHO_TIM3_CH1_GPIO_Port, ECHO_TIM3_CH1_Pin) == GPIO_PIN_SET)
 287              		.loc 1 81 5 is_stmt 1 view .LVU66
 288              		.loc 1 81 9 is_stmt 0 view .LVU67
 289 0014 4021     		movs	r1, #64
 290              	.LVL16:
 291              		.loc 1 81 9 view .LVU68
 292 0016 2448     		ldr	r0, .L23+8
 293              	.LVL17:
 294              		.loc 1 81 9 view .LVU69
 295 0018 FFF7FEFF 		bl	HAL_GPIO_ReadPin
 296              	.LVL18:
 297              		.loc 1 81 8 discriminator 1 view .LVU70
 298 001c 0128     		cmp	r0, #1
 299 001e 3AD0     		beq	.L22
  82:Core/Src/ultra.c ****     {
  83:Core/Src/ultra.c ****         *out_cm = ULTRA_MAX_CM;
  84:Core/Src/ultra.c ****         return 0;
  85:Core/Src/ultra.c ****     }
  86:Core/Src/ultra.c **** 
  87:Core/Src/ultra.c ****     /* ВъћВЌг В║АВ▓ў ВЃЂьЃю ВаЋвдг (IT off Рєњ ьћївъўЖиИ/Жи╣Вё▒ вдгВЁІ Рєњ CC1IF/CC1OF ьЂ┤вдгВќ┤)
  88:Core/Src/ultra.c ****      * + ВДЂВаё ВѓгВЮ┤ьЂ┤ відВЮђ ВЌљВйћЖ░ђ вѓеЖИ┤ stale thread flag ВаюЖ▒░ (IT off ьЏёвЮ╝ Ж▓йВЪЂ ВЌ
  89:Core/Src/ultra.c ****     __HAL_TIM_DISABLE_IT(&htim3, TIM_IT_CC1);
 300              		.loc 1 89 5 is_stmt 1 view .LVU71
 301 0020 224F     		ldr	r7, .L23+12
 302 0022 3B68     		ldr	r3, [r7]
 303 0024 DA68     		ldr	r2, [r3, #12]
 304 0026 22F00202 		bic	r2, r2, #2
 305 002a DA60     		str	r2, [r3, #12]
  90:Core/Src/ultra.c ****     captureFlag = 0;
 306              		.loc 1 90 5 view .LVU72
 307              		.loc 1 90 17 is_stmt 0 view .LVU73
 308 002c 0026     		movs	r6, #0
 309 002e 204A     		ldr	r2, .L23+16
 310 0030 1670     		strb	r6, [r2]
  91:Core/Src/ultra.c ****     __HAL_TIM_SET_CAPTUREPOLARITY(&htim3, TIM_CHANNEL_1, TIM_INPUTCHANNELPOLARITY_RISING);
 311              		.loc 1 91 5 is_stmt 1 view .LVU74
 312              		.loc 1 91 5 view .LVU75
 313 0032 1A6A     		ldr	r2, [r3, #32]
 314 0034 22F00A02 		bic	r2, r2, #10
 315 0038 1A62     		str	r2, [r3, #32]
 316              		.loc 1 91 5 view .LVU76
 317 003a 1A6A     		ldr	r2, [r3, #32]
 318 003c 1A62     		str	r2, [r3, #32]
 319              		.loc 1 91 5 view .LVU77
  92:Core/Src/ultra.c ****     __HAL_TIM_CLEAR_FLAG(&htim3, TIM_FLAG_CC1 | TIM_FLAG_CC1OF);
 320              		.loc 1 92 5 view .LVU78
 321 003e 1D4A     		ldr	r2, .L23+20
 322 0040 1A61     		str	r2, [r3, #16]
  93:Core/Src/ultra.c ****     osThreadFlagsClear(ULTRA_FLAG_FRONT);
 323              		.loc 1 93 5 view .LVU79
 324 0042 0120     		movs	r0, #1
 325 0044 FFF7FEFF 		bl	osThreadFlagsClear
 326              	.LVL19:
  94:Core/Src/ultra.c **** 
  95:Core/Src/ultra.c ****     /* TRIG 10us ьјёВіц + В║АВ▓ў IT ьЎюВё▒ */
  96:Core/Src/ultra.c ****     HAL_GPIO_WritePin(TRIG_FRONT_GPIO_Port, TRIG_FRONT_Pin, GPIO_PIN_SET);
ARM GAS  /tmp/ccYjTY1a.s 			page 9


 327              		.loc 1 96 5 view .LVU80
 328 0048 DFF85C80 		ldr	r8, .L23+8
 329 004c 0122     		movs	r2, #1
 330 004e 2021     		movs	r1, #32
 331 0050 4046     		mov	r0, r8
 332 0052 FFF7FEFF 		bl	HAL_GPIO_WritePin
 333              	.LVL20:
  97:Core/Src/ultra.c ****     delay_us(10);
 334              		.loc 1 97 5 view .LVU81
 335 0056 0A20     		movs	r0, #10
 336 0058 FFF7FEFF 		bl	delay_us
 337              	.LVL21:
  98:Core/Src/ultra.c ****     HAL_GPIO_WritePin(TRIG_FRONT_GPIO_Port, TRIG_FRONT_Pin, GPIO_PIN_RESET);
 338              		.loc 1 98 5 view .LVU82
 339 005c 3246     		mov	r2, r6
 340 005e 2021     		movs	r1, #32
 341 0060 4046     		mov	r0, r8
 342 0062 FFF7FEFF 		bl	HAL_GPIO_WritePin
 343              	.LVL22:
  99:Core/Src/ultra.c ****     __HAL_TIM_ENABLE_IT(&htim3, TIM_IT_CC1);
 344              		.loc 1 99 5 view .LVU83
 345 0066 3A68     		ldr	r2, [r7]
 346 0068 D368     		ldr	r3, [r2, #12]
 347 006a 43F00203 		orr	r3, r3, #2
 348 006e D360     		str	r3, [r2, #12]
 100:Core/Src/ultra.c **** 
 101:Core/Src/ultra.c ****     /* ВаЂВЮЉьўЋ вїђЖИ░: Вюаьџе ВИАВаЋ ВЎёвБї ВІю ISR flag Рєњ ВдЅВІю в│хЖиђ, вг┤ВЌљВйћ/ЖИђвдгВ╣ў Р
 102:Core/Src/ultra.c ****     (void)osThreadFlagsWait(ULTRA_FLAG_FRONT, osFlagsWaitAny, wait_ms);
 349              		.loc 1 102 5 view .LVU84
 350              		.loc 1 102 11 is_stmt 0 view .LVU85
 351 0070 2A46     		mov	r2, r5
 352 0072 3146     		mov	r1, r6
 353 0074 0120     		movs	r0, #1
 354 0076 FFF7FEFF 		bl	osThreadFlagsWait
 355              	.LVL23:
 103:Core/Src/ultra.c **** 
 104:Core/Src/ultra.c ****     /* ISR Ж│хВюаЖ░њ ВЏљВъљВаЂ ВіцвЃЁВЃи (timeout ВДЂьЏё відВЮђ ВЌљВйћ edgeвАювХђьё░ ВЮ╝Ж┤ђВё▒ в│┤ь
 105:Core/Src/ultra.c ****      * taskENTER_CRITICAL = BASEPRIвЦ╝ syscall Ж▓йЖ│ё(5)вАю Рєњ TIM3(prio 5) вДѕВіцьѓ╣ */
 106:Core/Src/ultra.c ****     uint8_t  v;
 356              		.loc 1 106 5 is_stmt 1 view .LVU86
 107:Core/Src/ultra.c ****     uint16_t d;
 357              		.loc 1 107 5 view .LVU87
 108:Core/Src/ultra.c ****     taskENTER_CRITICAL();
 358              		.loc 1 108 5 view .LVU88
 359 007a FFF7FEFF 		bl	vPortEnterCritical
 360              	.LVL24:
 109:Core/Src/ultra.c ****     v = meas_valid;
 361              		.loc 1 109 5 view .LVU89
 362              		.loc 1 109 7 is_stmt 0 view .LVU90
 363 007e 094B     		ldr	r3, .L23+4
 364 0080 1D78     		ldrb	r5, [r3]	@ zero_extendqisi2
 365              	.LVL25:
 366              		.loc 1 109 7 view .LVU91
 367 0082 EDB2     		uxtb	r5, r5
 368              	.LVL26:
 110:Core/Src/ultra.c ****     d = distance;
 369              		.loc 1 110 5 is_stmt 1 view .LVU92
ARM GAS  /tmp/ccYjTY1a.s 			page 10


 370              		.loc 1 110 7 is_stmt 0 view .LVU93
 371 0084 064B     		ldr	r3, .L23
 372 0086 1E88     		ldrh	r6, [r3]
 373 0088 B6B2     		uxth	r6, r6
 374              	.LVL27:
 111:Core/Src/ultra.c ****     taskEXIT_CRITICAL();
 375              		.loc 1 111 5 is_stmt 1 view .LVU94
 376 008a FFF7FEFF 		bl	vPortExitCritical
 377              	.LVL28:
 112:Core/Src/ultra.c **** 
 113:Core/Src/ultra.c ****     *out_cm = d;
 378              		.loc 1 113 5 view .LVU95
 379              		.loc 1 113 13 is_stmt 0 view .LVU96
 380 008e 2680     		strh	r6, [r4]	@ movhi
 114:Core/Src/ultra.c ****     return v;
 381              		.loc 1 114 5 is_stmt 1 view .LVU97
 382              	.LVL29:
 383              	.L20:
 115:Core/Src/ultra.c **** }
 384              		.loc 1 115 1 is_stmt 0 view .LVU98
 385 0090 2846     		mov	r0, r5
 386 0092 BDE8F081 		pop	{r4, r5, r6, r7, r8, pc}
 387              	.LVL30:
 388              	.L22:
  83:Core/Src/ultra.c ****         return 0;
 389              		.loc 1 83 9 is_stmt 1 view .LVU99
  83:Core/Src/ultra.c ****         return 0;
 390              		.loc 1 83 17 is_stmt 0 view .LVU100
 391 0096 5023     		movs	r3, #80
 392 0098 2380     		strh	r3, [r4]	@ movhi
  84:Core/Src/ultra.c ****     }
 393              		.loc 1 84 9 is_stmt 1 view .LVU101
  84:Core/Src/ultra.c ****     }
 394              		.loc 1 84 16 is_stmt 0 view .LVU102
 395 009a 0025     		movs	r5, #0
 396              	.LVL31:
  84:Core/Src/ultra.c ****     }
 397              		.loc 1 84 16 view .LVU103
 398 009c F8E7     		b	.L20
 399              	.L24:
 400 009e 00BF     		.align	2
 401              	.L23:
 402 00a0 00000000 		.word	distance
 403 00a4 00000000 		.word	meas_valid
 404 00a8 00000240 		.word	1073872896
 405 00ac 00000000 		.word	htim3
 406 00b0 00000000 		.word	captureFlag
 407 00b4 FDFDFFFF 		.word	-515
 408              		.cfi_endproc
 409              	.LFE140:
 411              		.section	.text.median_n,"ax",%progbits
 412              		.align	1
 413              		.global	median_n
 414              		.syntax unified
 415              		.thumb
 416              		.thumb_func
 418              	median_n:
ARM GAS  /tmp/ccYjTY1a.s 			page 11


 419              	.LVL32:
 420              	.LFB141:
 116:Core/Src/ultra.c **** 
 117:Core/Src/ultra.c **** /* N-ВЃўьћї ВцЉВЋЎЖ░њ (ВіцьїїВЮ┤ьЂг ВаюЖ▒░). nЖ░ю ВцЉ (n-1)/2Ж░юЖ╣їВДђ ьіђВќ┤вЈё Ж▒░вдё Рђћ ВюѕвЈё 
 118:Core/Src/ultra.c ****  * ВѓйВъЁВаЋваг ьЏё ВцЉВЋЎ ВЮИвЇ▒Віц в░ўьЎў. nВЮђ ВъЉВЮї(3~7)ВЮ┤вЮ╝ ВаЋваг в╣ёВџЕ вг┤ВІю Ж░ђвіЦ. */
 119:Core/Src/ultra.c **** uint16_t median_n(const uint16_t *a, uint8_t n)
 120:Core/Src/ultra.c **** {
 421              		.loc 1 120 1 is_stmt 1 view -0
 422              		.cfi_startproc
 423              		@ args = 0, pretend = 0, frame = 32
 424              		@ frame_needed = 0, uses_anonymous_args = 0
 425              		.loc 1 120 1 is_stmt 0 view .LVU105
 426 0000 10B5     		push	{r4, lr}
 427              	.LCFI3:
 428              		.cfi_def_cfa_offset 8
 429              		.cfi_offset 4, -8
 430              		.cfi_offset 14, -4
 431 0002 88B0     		sub	sp, sp, #32
 432              	.LCFI4:
 433              		.cfi_def_cfa_offset 40
 121:Core/Src/ultra.c ****     uint16_t b[16];
 434              		.loc 1 121 5 is_stmt 1 view .LVU106
 122:Core/Src/ultra.c ****     if (n > 16) n = 16;
 435              		.loc 1 122 5 view .LVU107
 436              		.loc 1 122 8 is_stmt 0 view .LVU108
 437 0004 1029     		cmp	r1, #16
 438 0006 00D9     		bls	.L26
 439              		.loc 1 122 19 discriminator 1 view .LVU109
 440 0008 1021     		movs	r1, #16
 441              	.LVL33:
 442              	.L26:
 123:Core/Src/ultra.c ****     for (uint8_t i = 0; i < n; i++) b[i] = a[i];
 443              		.loc 1 123 5 is_stmt 1 view .LVU110
 444              	.LBB3:
 445              		.loc 1 123 10 view .LVU111
 446              		.loc 1 123 18 is_stmt 0 view .LVU112
 447 000a 0023     		movs	r3, #0
 448              		.loc 1 123 5 view .LVU113
 449 000c 08E0     		b	.L27
 450              	.LVL34:
 451              	.L28:
 452              		.loc 1 123 37 is_stmt 1 discriminator 3 view .LVU114
 453              		.loc 1 123 45 is_stmt 0 discriminator 3 view .LVU115
 454 000e 30F813C0 		ldrh	ip, [r0, r3, lsl #1]
 455              		.loc 1 123 42 discriminator 3 view .LVU116
 456 0012 08AA     		add	r2, sp, #32
 457 0014 02EB4302 		add	r2, r2, r3, lsl #1
 458 0018 22F820CC 		strh	ip, [r2, #-32]	@ movhi
 459              		.loc 1 123 33 is_stmt 1 discriminator 3 view .LVU117
 460 001c 0133     		adds	r3, r3, #1
 461              	.LVL35:
 462              		.loc 1 123 33 is_stmt 0 discriminator 3 view .LVU118
 463 001e DBB2     		uxtb	r3, r3
 464              	.LVL36:
 465              	.L27:
 466              		.loc 1 123 27 is_stmt 1 discriminator 1 view .LVU119
 467 0020 9942     		cmp	r1, r3
ARM GAS  /tmp/ccYjTY1a.s 			page 12


 468 0022 F4D8     		bhi	.L28
 469              	.LBE3:
 470              	.LBB4:
 124:Core/Src/ultra.c ****     for (uint8_t i = 1; i < n; i++)
 471              		.loc 1 124 18 is_stmt 0 view .LVU120
 472 0024 4FF0010E 		mov	lr, #1
 473 0028 1AE0     		b	.L29
 474              	.LVL37:
 475              	.L32:
 476              	.LBB5:
 125:Core/Src/ultra.c ****     {
 126:Core/Src/ultra.c ****         uint16_t k = b[i];
 127:Core/Src/ultra.c ****         int8_t j = (int8_t)i - 1;
 128:Core/Src/ultra.c ****         while (j >= 0 && b[j] > k) { b[j + 1] = b[j]; j--; }
 477              		.loc 1 128 38 is_stmt 1 discriminator 3 view .LVU121
 478              		.loc 1 128 42 is_stmt 0 discriminator 3 view .LVU122
 479 002a 5A1C     		adds	r2, r3, #1
 480              		.loc 1 128 47 discriminator 3 view .LVU123
 481 002c 08AC     		add	r4, sp, #32
 482 002e 04EB4202 		add	r2, r4, r2, lsl #1
 483 0032 22F8200C 		strh	r0, [r2, #-32]	@ movhi
 484              		.loc 1 128 55 is_stmt 1 discriminator 3 view .LVU124
 485              		.loc 1 128 56 is_stmt 0 discriminator 3 view .LVU125
 486 0036 013B     		subs	r3, r3, #1
 487              	.LVL38:
 488              		.loc 1 128 56 discriminator 3 view .LVU126
 489 0038 5BB2     		sxtb	r3, r3
 490              	.LVL39:
 491              	.L30:
 492              		.loc 1 128 23 is_stmt 1 discriminator 1 view .LVU127
 493 003a 002B     		cmp	r3, #0
 494 003c 06DB     		blt	.L31
 495              		.loc 1 128 27 is_stmt 0 discriminator 2 view .LVU128
 496 003e 08AA     		add	r2, sp, #32
 497 0040 02EB4302 		add	r2, r2, r3, lsl #1
 498 0044 32F8200C 		ldrh	r0, [r2, #-32]
 499              		.loc 1 128 23 discriminator 2 view .LVU129
 500 0048 6045     		cmp	r0, ip
 501 004a EED8     		bhi	.L32
 502              	.L31:
 129:Core/Src/ultra.c ****         b[j + 1] = k;
 503              		.loc 1 129 9 is_stmt 1 view .LVU130
 504              		.loc 1 129 13 is_stmt 0 view .LVU131
 505 004c 0133     		adds	r3, r3, #1
 506              	.LVL40:
 507              		.loc 1 129 18 view .LVU132
 508 004e 08AA     		add	r2, sp, #32
 509 0050 02EB4303 		add	r3, r2, r3, lsl #1
 510              	.LVL41:
 511              		.loc 1 129 18 view .LVU133
 512 0054 23F820CC 		strh	ip, [r3, #-32]	@ movhi
 513              	.LBE5:
 124:Core/Src/ultra.c ****     for (uint8_t i = 1; i < n; i++)
 514              		.loc 1 124 33 is_stmt 1 discriminator 2 view .LVU134
 515 0058 0EF1010E 		add	lr, lr, #1
 516              	.LVL42:
 124:Core/Src/ultra.c ****     for (uint8_t i = 1; i < n; i++)
ARM GAS  /tmp/ccYjTY1a.s 			page 13


 517              		.loc 1 124 33 is_stmt 0 discriminator 2 view .LVU135
 518 005c 5FFA8EFE 		uxtb	lr, lr
 519              	.LVL43:
 520              	.L29:
 124:Core/Src/ultra.c ****     for (uint8_t i = 1; i < n; i++)
 521              		.loc 1 124 27 is_stmt 1 discriminator 1 view .LVU136
 522 0060 7145     		cmp	r1, lr
 523 0062 08D9     		bls	.L36
 524              	.LBB6:
 126:Core/Src/ultra.c ****         int8_t j = (int8_t)i - 1;
 525              		.loc 1 126 9 view .LVU137
 126:Core/Src/ultra.c ****         int8_t j = (int8_t)i - 1;
 526              		.loc 1 126 18 is_stmt 0 view .LVU138
 527 0064 08AB     		add	r3, sp, #32
 528 0066 03EB4E03 		add	r3, r3, lr, lsl #1
 529 006a 33F820CC 		ldrh	ip, [r3, #-32]
 530              	.LVL44:
 127:Core/Src/ultra.c ****         while (j >= 0 && b[j] > k) { b[j + 1] = b[j]; j--; }
 531              		.loc 1 127 9 is_stmt 1 view .LVU139
 127:Core/Src/ultra.c ****         while (j >= 0 && b[j] > k) { b[j + 1] = b[j]; j--; }
 532              		.loc 1 127 30 is_stmt 0 view .LVU140
 533 006e 0EF1FF33 		add	r3, lr, #-1
 127:Core/Src/ultra.c ****         while (j >= 0 && b[j] > k) { b[j + 1] = b[j]; j--; }
 534              		.loc 1 127 16 view .LVU141
 535 0072 5BB2     		sxtb	r3, r3
 536              	.LVL45:
 128:Core/Src/ultra.c ****         b[j + 1] = k;
 537              		.loc 1 128 9 is_stmt 1 view .LVU142
 128:Core/Src/ultra.c ****         b[j + 1] = k;
 538              		.loc 1 128 15 is_stmt 0 view .LVU143
 539 0074 E1E7     		b	.L30
 540              	.LVL46:
 541              	.L36:
 128:Core/Src/ultra.c ****         b[j + 1] = k;
 542              		.loc 1 128 15 view .LVU144
 543              	.LBE6:
 544              	.LBE4:
 130:Core/Src/ultra.c ****     }
 131:Core/Src/ultra.c ****     return b[n / 2];
 545              		.loc 1 131 5 is_stmt 1 view .LVU145
 546              		.loc 1 131 13 is_stmt 0 view .LVU146
 547 0076 01F0FE03 		and	r3, r1, #254
 548 007a 2033     		adds	r3, r3, #32
 549 007c 6B44     		add	r3, sp, r3
 132:Core/Src/ultra.c **** }
 550              		.loc 1 132 1 view .LVU147
 551 007e 33F8200C 		ldrh	r0, [r3, #-32]
 552 0082 08B0     		add	sp, sp, #32
 553              	.LCFI5:
 554              		.cfi_def_cfa_offset 8
 555              		@ sp needed
 556 0084 10BD     		pop	{r4, pc}
 557              		.cfi_endproc
 558              	.LFE141:
 560              		.section	.text.min_n,"ax",%progbits
 561              		.align	1
 562              		.global	min_n
ARM GAS  /tmp/ccYjTY1a.s 			page 14


 563              		.syntax unified
 564              		.thumb
 565              		.thumb_func
 567              	min_n:
 568              	.LVL47:
 569              	.LFB142:
 133:Core/Src/ultra.c **** 
 134:Core/Src/ultra.c **** /* N-ВЃўьћї ВхюВєїЖ░њ (Ж░ђВъЦ Ж░ђЖ╣їВџ┤ ВхюЖи╝Ж░њ). ВаЋвЕ┤ ВаЋВДђ ьїљВаЋВџЕ Рђћ medianЖ│╝ вІгвдг ВД
 135:Core/Src/ultra.c **** uint16_t min_n(const uint16_t *a, uint8_t n)
 136:Core/Src/ultra.c **** {
 570              		.loc 1 136 1 is_stmt 1 view -0
 571              		.cfi_startproc
 572              		@ args = 0, pretend = 0, frame = 0
 573              		@ frame_needed = 0, uses_anonymous_args = 0
 574              		@ link register save eliminated.
 575              		.loc 1 136 1 is_stmt 0 view .LVU149
 576 0000 8446     		mov	ip, r0
 137:Core/Src/ultra.c ****     uint16_t m = a[0];
 577              		.loc 1 137 5 is_stmt 1 view .LVU150
 578              		.loc 1 137 14 is_stmt 0 view .LVU151
 579 0002 0088     		ldrh	r0, [r0]
 580              	.LVL48:
 138:Core/Src/ultra.c ****     for (uint8_t i = 1; i < n; i++) if (a[i] < m) m = a[i];
 581              		.loc 1 138 5 is_stmt 1 view .LVU152
 582              	.LBB7:
 583              		.loc 1 138 10 view .LVU153
 584              		.loc 1 138 18 is_stmt 0 view .LVU154
 585 0004 0123     		movs	r3, #1
 586              		.loc 1 138 5 view .LVU155
 587 0006 01E0     		b	.L38
 588              	.LVL49:
 589              	.L39:
 590              		.loc 1 138 33 is_stmt 1 discriminator 4 view .LVU156
 591 0008 0133     		adds	r3, r3, #1
 592              	.LVL50:
 593              		.loc 1 138 33 is_stmt 0 discriminator 4 view .LVU157
 594 000a DBB2     		uxtb	r3, r3
 595              	.LVL51:
 596              	.L38:
 597              		.loc 1 138 27 is_stmt 1 discriminator 5 view .LVU158
 598 000c 8B42     		cmp	r3, r1
 599 000e 05D2     		bcs	.L42
 600              		.loc 1 138 37 discriminator 6 view .LVU159
 601              		.loc 1 138 42 is_stmt 0 discriminator 6 view .LVU160
 602 0010 3CF81320 		ldrh	r2, [ip, r3, lsl #1]
 603              		.loc 1 138 40 discriminator 6 view .LVU161
 604 0014 8242     		cmp	r2, r0
 605 0016 F7D2     		bcs	.L39
 606              		.loc 1 138 53 discriminator 2 view .LVU162
 607 0018 1046     		mov	r0, r2
 608              	.LVL52:
 609              		.loc 1 138 53 discriminator 2 view .LVU163
 610 001a F5E7     		b	.L39
 611              	.LVL53:
 612              	.L42:
 613              		.loc 1 138 53 discriminator 2 view .LVU164
 614              	.LBE7:
ARM GAS  /tmp/ccYjTY1a.s 			page 15


 139:Core/Src/ultra.c ****     return m;
 615              		.loc 1 139 5 is_stmt 1 view .LVU165
 140:Core/Src/ultra.c **** }
 616              		.loc 1 140 1 is_stmt 0 view .LVU166
 617 001c 7047     		bx	lr
 618              		.cfi_endproc
 619              	.LFE142:
 621              		.section	.bss.s_waiter,"aw",%nobits
 622              		.align	2
 625              	s_waiter:
 626 0000 00000000 		.space	4
 627              		.section	.bss.meas_valid,"aw",%nobits
 630              	meas_valid:
 631 0000 00       		.space	1
 632              		.section	.bss.distance,"aw",%nobits
 633              		.align	1
 636              	distance:
 637 0000 0000     		.space	2
 638              		.section	.bss.captureFlag,"aw",%nobits
 641              	captureFlag:
 642 0000 00       		.space	1
 643              		.section	.bss.echoTime,"aw",%nobits
 644              		.align	1
 647              	echoTime:
 648 0000 0000     		.space	2
 649              		.section	.bss.IC_Value2,"aw",%nobits
 650              		.align	1
 653              	IC_Value2:
 654 0000 0000     		.space	2
 655              		.section	.bss.IC_Value1,"aw",%nobits
 656              		.align	1
 659              	IC_Value1:
 660 0000 0000     		.space	2
 661              		.text
 662              	.Letext0:
 663              		.file 2 "/usr/lib/gcc/arm-none-eabi/13.2.1/include/stdint.h"
 664              		.file 3 "Middlewares/Third_Party/FreeRTOS/Source/CMSIS_RTOS_V2/cmsis_os2.h"
 665              		.file 4 "Drivers/CMSIS/Device/ST/STM32F4xx/Include/stm32f411xe.h"
 666              		.file 5 "Drivers/STM32F4xx_HAL_Driver/Inc/stm32f4xx_hal_def.h"
 667              		.file 6 "Drivers/STM32F4xx_HAL_Driver/Inc/stm32f4xx_hal_gpio.h"
 668              		.file 7 "Drivers/STM32F4xx_HAL_Driver/Inc/stm32f4xx_hal_dma.h"
 669              		.file 8 "Drivers/STM32F4xx_HAL_Driver/Inc/stm32f4xx_hal_tim.h"
 670              		.file 9 "Middlewares/Third_Party/FreeRTOS/Source/portable/GCC/ARM_CM4F/portmacro.h"
 671              		.file 10 "Core/Inc/delay.h"
 672              		.file 11 "Core/Inc/tim.h"
ARM GAS  /tmp/ccYjTY1a.s 			page 16

